
projet_ceinture_cardi.elf:     file format elf32-littlearm

Sections:
Idx Name          Size      VMA       LMA       File off  Algn
  0 .isr_vector   0000010c  08000000  08000000  00010000  2**0
                  CONTENTS, ALLOC, LOAD, READONLY, DATA
  1 .text         0000ad3c  08000110  08000110  00010110  2**3
                  CONTENTS, ALLOC, LOAD, READONLY, CODE
  2 .rodata       00001950  0800ae50  0800ae50  0001ae50  2**3
                  CONTENTS, ALLOC, LOAD, READONLY, DATA
  3 .ARM          00000008  0800c7a0  0800c7a0  0001c7a0  2**2
                  CONTENTS, ALLOC, LOAD, READONLY, DATA
  4 .init_array   00000008  0800c7a8  0800c7a8  0001c7a8  2**2
                  CONTENTS, ALLOC, LOAD, DATA
  5 .fini_array   00000004  0800c7b0  0800c7b0  0001c7b0  2**2
                  CONTENTS, ALLOC, LOAD, DATA
  6 .data         000006e8  20000000  0800c7b4  00020000  2**3
                  CONTENTS, ALLOC, LOAD, DATA
  7 .bss          000009b4  200006e8  0800ce9c  000206e8  2**2
                  ALLOC
  8 ._user_heap_stack 00000604  2000109c  0800ce9c  0002109c  2**0
                  ALLOC
  9 .ARM.attributes 00000029  00000000  00000000  000206e8  2**0
                  CONTENTS, READONLY
 10 .comment      00000043  00000000  00000000  00020711  2**0
                  CONTENTS, READONLY
 11 .debug_info   00018af8  00000000  00000000  00020754  2**0
                  CONTENTS, READONLY, DEBUGGING, OCTETS
 12 .debug_abbrev 00003cbc  00000000  00000000  0003924c  2**0
                  CONTENTS, READONLY, DEBUGGING, OCTETS
 13 .debug_loclists 00009a2d  00000000  00000000  0003cf08  2**0
                  CONTENTS, READONLY, DEBUGGING, OCTETS
 14 .debug_aranges 00001468  00000000  00000000  00046938  2**3
                  CONTENTS, READONLY, DEBUGGING, OCTETS
 15 .debug_rnglists 00000fce  00000000  00000000  00047da0  2**0
                  CONTENTS, READONLY, DEBUGGING, OCTETS
 16 .debug_macro  0001a343  00000000  00000000  00048d6e  2**0
                  CONTENTS, READONLY, DEBUGGING, OCTETS
 17 .debug_line   0001b4c8  00000000  00000000  000630b1  2**0
                  CONTENTS, READONLY, DEBUGGING, OCTETS
 18 .debug_str    00084863  00000000  00000000  0007e579  2**0
                  CONTENTS, READONLY, DEBUGGING, OCTETS
 19 .debug_frame  00004d50  00000000  00000000  00102ddc  2**2
                  CONTENTS, READONLY, DEBUGGING, OCTETS
 20 .debug_line_str 00000068  00000000  00000000  00107b2c  2**0
                  CONTENTS, READONLY, DEBUGGING, OCTETS

Disassembly of section .text:

08000110 <__do_global_dtors_aux>:
 8000110:	b510      	push	{r4, lr}
 8000112:	4c05      	ldr	r4, [pc, #20]	; (8000128 <__do_global_dtors_aux+0x18>)
 8000114:	7823      	ldrb	r3, [r4, #0]
 8000116:	b933      	cbnz	r3, 8000126 <__do_global_dtors_aux+0x16>
 8000118:	4b04      	ldr	r3, [pc, #16]	; (800012c <__do_global_dtors_aux+0x1c>)
 800011a:	b113      	cbz	r3, 8000122 <__do_global_dtors_aux+0x12>
 800011c:	4804      	ldr	r0, [pc, #16]	; (8000130 <__do_global_dtors_aux+0x20>)
 800011e:	f3af 8000 	nop.w
 8000122:	2301      	movs	r3, #1
 8000124:	7023      	strb	r3, [r4, #0]
 8000126:	bd10      	pop	{r4, pc}
 8000128:	200006e8 	.word	0x200006e8
 800012c:	00000000 	.word	0x00000000
 8000130:	0800ae34 	.word	0x0800ae34

08000134 <frame_dummy>:
 8000134:	b508      	push	{r3, lr}
 8000136:	4b03      	ldr	r3, [pc, #12]	; (8000144 <frame_dummy+0x10>)
 8000138:	b11b      	cbz	r3, 8000142 <frame_dummy+0xe>
 800013a:	4903      	ldr	r1, [pc, #12]	; (8000148 <frame_dummy+0x14>)
 800013c:	4803      	ldr	r0, [pc, #12]	; (800014c <frame_dummy+0x18>)
 800013e:	f3af 8000 	nop.w
 8000142:	bd08      	pop	{r3, pc}
 8000144:	00000000 	.word	0x00000000
 8000148:	200006ec 	.word	0x200006ec
 800014c:	0800ae34 	.word	0x0800ae34
 8000150:	0800c7b4 	.word	0x0800c7b4
 8000154:	20000000 	.word	0x20000000
 8000158:	200006e8 	.word	0x200006e8
 800015c:	200006e8 	.word	0x200006e8
 8000160:	2000109c 	.word	0x2000109c

08000164 <Delay_us>:
	.set LOOP_ITERATION_FOR_1US, 11
.section .text
.global Delay_us
Delay_us:
	/*R0 : duration in us*/
	LDR R1,=LOOP_ITERATION_FOR_1US
 8000164:	f04f 010b 	mov.w	r1, #11
	MUL R2, R0, R1	/*R2 : nb iteration*/
 8000168:	fb00 f201 	mul.w	r2, r0, r1

0800016c <delay_us_loop>:
	delay_us_loop:
		SUBS R2, #1
 800016c:	3a01      	subs	r2, #1
		BNE delay_us_loop
 800016e:	d1fd      	bne.n	800016c <delay_us_loop>
	BX LR
 8000170:	4770      	bx	lr

08000172 <strlen>:
 8000172:	4603      	mov	r3, r0
 8000174:	f813 2b01 	ldrb.w	r2, [r3], #1
 8000178:	2a00      	cmp	r2, #0
 800017a:	d1fb      	bne.n	8000174 <strlen+0x2>
 800017c:	1a18      	subs	r0, r3, r0
 800017e:	3801      	subs	r0, #1
 8000180:	4770      	bx	lr
	...

08000184 <__aeabi_drsub>:
 8000184:	f081 4100 	eor.w	r1, r1, #2147483648	; 0x80000000
 8000188:	e002      	b.n	8000190 <__adddf3>
 800018a:	bf00      	nop

0800018c <__aeabi_dsub>:
 800018c:	f083 4300 	eor.w	r3, r3, #2147483648	; 0x80000000

08000190 <__adddf3>:
 8000190:	b530      	push	{r4, r5, lr}
 8000192:	ea4f 0441 	mov.w	r4, r1, lsl #1
 8000196:	ea4f 0543 	mov.w	r5, r3, lsl #1
 800019a:	ea94 0f05 	teq	r4, r5
 800019e:	bf08      	it	eq
 80001a0:	ea90 0f02 	teqeq	r0, r2
 80001a4:	bf1f      	itttt	ne
 80001a6:	ea54 0c00 	orrsne.w	ip, r4, r0
 80001aa:	ea55 0c02 	orrsne.w	ip, r5, r2
 80001ae:	ea7f 5c64 	mvnsne.w	ip, r4, asr #21
 80001b2:	ea7f 5c65 	mvnsne.w	ip, r5, asr #21
 80001b6:	f000 80e2 	beq.w	800037e <__adddf3+0x1ee>
 80001ba:	ea4f 5454 	mov.w	r4, r4, lsr #21
 80001be:	ebd4 5555 	rsbs	r5, r4, r5, lsr #21
 80001c2:	bfb8      	it	lt
 80001c4:	426d      	neglt	r5, r5
 80001c6:	dd0c      	ble.n	80001e2 <__adddf3+0x52>
 80001c8:	442c      	add	r4, r5
 80001ca:	ea80 0202 	eor.w	r2, r0, r2
 80001ce:	ea81 0303 	eor.w	r3, r1, r3
 80001d2:	ea82 0000 	eor.w	r0, r2, r0
 80001d6:	ea83 0101 	eor.w	r1, r3, r1
 80001da:	ea80 0202 	eor.w	r2, r0, r2
 80001de:	ea81 0303 	eor.w	r3, r1, r3
 80001e2:	2d36      	cmp	r5, #54	; 0x36
 80001e4:	bf88      	it	hi
 80001e6:	bd30      	pophi	{r4, r5, pc}
 80001e8:	f011 4f00 	tst.w	r1, #2147483648	; 0x80000000
 80001ec:	ea4f 3101 	mov.w	r1, r1, lsl #12
 80001f0:	f44f 1c80 	mov.w	ip, #1048576	; 0x100000
 80001f4:	ea4c 3111 	orr.w	r1, ip, r1, lsr #12
 80001f8:	d002      	beq.n	8000200 <__adddf3+0x70>
 80001fa:	4240      	negs	r0, r0
 80001fc:	eb61 0141 	sbc.w	r1, r1, r1, lsl #1
 8000200:	f013 4f00 	tst.w	r3, #2147483648	; 0x80000000
 8000204:	ea4f 3303 	mov.w	r3, r3, lsl #12
 8000208:	ea4c 3313 	orr.w	r3, ip, r3, lsr #12
 800020c:	d002      	beq.n	8000214 <__adddf3+0x84>
 800020e:	4252      	negs	r2, r2
 8000210:	eb63 0343 	sbc.w	r3, r3, r3, lsl #1
 8000214:	ea94 0f05 	teq	r4, r5
 8000218:	f000 80a7 	beq.w	800036a <__adddf3+0x1da>
 800021c:	f1a4 0401 	sub.w	r4, r4, #1
 8000220:	f1d5 0e20 	rsbs	lr, r5, #32
 8000224:	db0d      	blt.n	8000242 <__adddf3+0xb2>
 8000226:	fa02 fc0e 	lsl.w	ip, r2, lr
 800022a:	fa22 f205 	lsr.w	r2, r2, r5
 800022e:	1880      	adds	r0, r0, r2
 8000230:	f141 0100 	adc.w	r1, r1, #0
 8000234:	fa03 f20e 	lsl.w	r2, r3, lr
 8000238:	1880      	adds	r0, r0, r2
 800023a:	fa43 f305 	asr.w	r3, r3, r5
 800023e:	4159      	adcs	r1, r3
 8000240:	e00e      	b.n	8000260 <__adddf3+0xd0>
 8000242:	f1a5 0520 	sub.w	r5, r5, #32
 8000246:	f10e 0e20 	add.w	lr, lr, #32
 800024a:	2a01      	cmp	r2, #1
 800024c:	fa03 fc0e 	lsl.w	ip, r3, lr
 8000250:	bf28      	it	cs
 8000252:	f04c 0c02 	orrcs.w	ip, ip, #2
 8000256:	fa43 f305 	asr.w	r3, r3, r5
 800025a:	18c0      	adds	r0, r0, r3
 800025c:	eb51 71e3 	adcs.w	r1, r1, r3, asr #31
 8000260:	f001 4500 	and.w	r5, r1, #2147483648	; 0x80000000
 8000264:	d507      	bpl.n	8000276 <__adddf3+0xe6>
 8000266:	f04f 0e00 	mov.w	lr, #0
 800026a:	f1dc 0c00 	rsbs	ip, ip, #0
 800026e:	eb7e 0000 	sbcs.w	r0, lr, r0
 8000272:	eb6e 0101 	sbc.w	r1, lr, r1
 8000276:	f5b1 1f80 	cmp.w	r1, #1048576	; 0x100000
 800027a:	d31b      	bcc.n	80002b4 <__adddf3+0x124>
 800027c:	f5b1 1f00 	cmp.w	r1, #2097152	; 0x200000
 8000280:	d30c      	bcc.n	800029c <__adddf3+0x10c>
 8000282:	0849      	lsrs	r1, r1, #1
 8000284:	ea5f 0030 	movs.w	r0, r0, rrx
 8000288:	ea4f 0c3c 	mov.w	ip, ip, rrx
 800028c:	f104 0401 	add.w	r4, r4, #1
 8000290:	ea4f 5244 	mov.w	r2, r4, lsl #21
 8000294:	f512 0f80 	cmn.w	r2, #4194304	; 0x400000
 8000298:	f080 809a 	bcs.w	80003d0 <__adddf3+0x240>
 800029c:	f1bc 4f00 	cmp.w	ip, #2147483648	; 0x80000000
 80002a0:	bf08      	it	eq
 80002a2:	ea5f 0c50 	movseq.w	ip, r0, lsr #1
 80002a6:	f150 0000 	adcs.w	r0, r0, #0
 80002aa:	eb41 5104 	adc.w	r1, r1, r4, lsl #20
 80002ae:	ea41 0105 	orr.w	r1, r1, r5
 80002b2:	bd30      	pop	{r4, r5, pc}
 80002b4:	ea5f 0c4c 	movs.w	ip, ip, lsl #1
 80002b8:	4140      	adcs	r0, r0
 80002ba:	eb41 0101 	adc.w	r1, r1, r1
 80002be:	3c01      	subs	r4, #1
 80002c0:	bf28      	it	cs
 80002c2:	f5b1 1f80 	cmpcs.w	r1, #1048576	; 0x100000
 80002c6:	d2e9      	bcs.n	800029c <__adddf3+0x10c>
 80002c8:	f091 0f00 	teq	r1, #0
 80002cc:	bf04      	itt	eq
 80002ce:	4601      	moveq	r1, r0
 80002d0:	2000      	moveq	r0, #0
 80002d2:	fab1 f381 	clz	r3, r1
 80002d6:	bf08      	it	eq
 80002d8:	3320      	addeq	r3, #32
 80002da:	f1a3 030b 	sub.w	r3, r3, #11
 80002de:	f1b3 0220 	subs.w	r2, r3, #32
 80002e2:	da0c      	bge.n	80002fe <__adddf3+0x16e>
 80002e4:	320c      	adds	r2, #12
 80002e6:	dd08      	ble.n	80002fa <__adddf3+0x16a>
 80002e8:	f102 0c14 	add.w	ip, r2, #20
 80002ec:	f1c2 020c 	rsb	r2, r2, #12
 80002f0:	fa01 f00c 	lsl.w	r0, r1, ip
 80002f4:	fa21 f102 	lsr.w	r1, r1, r2
 80002f8:	e00c      	b.n	8000314 <__adddf3+0x184>
 80002fa:	f102 0214 	add.w	r2, r2, #20
 80002fe:	bfd8      	it	le
 8000300:	f1c2 0c20 	rsble	ip, r2, #32
 8000304:	fa01 f102 	lsl.w	r1, r1, r2
 8000308:	fa20 fc0c 	lsr.w	ip, r0, ip
 800030c:	bfdc      	itt	le
 800030e:	ea41 010c 	orrle.w	r1, r1, ip
 8000312:	4090      	lslle	r0, r2
 8000314:	1ae4      	subs	r4, r4, r3
 8000316:	bfa2      	ittt	ge
 8000318:	eb01 5104 	addge.w	r1, r1, r4, lsl #20
 800031c:	4329      	orrge	r1, r5
 800031e:	bd30      	popge	{r4, r5, pc}
 8000320:	ea6f 0404 	mvn.w	r4, r4
 8000324:	3c1f      	subs	r4, #31
 8000326:	da1c      	bge.n	8000362 <__adddf3+0x1d2>
 8000328:	340c      	adds	r4, #12
 800032a:	dc0e      	bgt.n	800034a <__adddf3+0x1ba>
 800032c:	f104 0414 	add.w	r4, r4, #20
 8000330:	f1c4 0220 	rsb	r2, r4, #32
 8000334:	fa20 f004 	lsr.w	r0, r0, r4
 8000338:	fa01 f302 	lsl.w	r3, r1, r2
 800033c:	ea40 0003 	orr.w	r0, r0, r3
 8000340:	fa21 f304 	lsr.w	r3, r1, r4
 8000344:	ea45 0103 	orr.w	r1, r5, r3
 8000348:	bd30      	pop	{r4, r5, pc}
 800034a:	f1c4 040c 	rsb	r4, r4, #12
 800034e:	f1c4 0220 	rsb	r2, r4, #32
 8000352:	fa20 f002 	lsr.w	r0, r0, r2
 8000356:	fa01 f304 	lsl.w	r3, r1, r4
 800035a:	ea40 0003 	orr.w	r0, r0, r3
 800035e:	4629      	mov	r1, r5
 8000360:	bd30      	pop	{r4, r5, pc}
 8000362:	fa21 f004 	lsr.w	r0, r1, r4
 8000366:	4629      	mov	r1, r5
 8000368:	bd30      	pop	{r4, r5, pc}
 800036a:	f094 0f00 	teq	r4, #0
 800036e:	f483 1380 	eor.w	r3, r3, #1048576	; 0x100000
 8000372:	bf06      	itte	eq
 8000374:	f481 1180 	eoreq.w	r1, r1, #1048576	; 0x100000
 8000378:	3401      	addeq	r4, #1
 800037a:	3d01      	subne	r5, #1
 800037c:	e74e      	b.n	800021c <__adddf3+0x8c>
 800037e:	ea7f 5c64 	mvns.w	ip, r4, asr #21
 8000382:	bf18      	it	ne
 8000384:	ea7f 5c65 	mvnsne.w	ip, r5, asr #21
 8000388:	d029      	beq.n	80003de <__adddf3+0x24e>
 800038a:	ea94 0f05 	teq	r4, r5
 800038e:	bf08      	it	eq
 8000390:	ea90 0f02 	teqeq	r0, r2
 8000394:	d005      	beq.n	80003a2 <__adddf3+0x212>
 8000396:	ea54 0c00 	orrs.w	ip, r4, r0
 800039a:	bf04      	itt	eq
 800039c:	4619      	moveq	r1, r3
 800039e:	4610      	moveq	r0, r2
 80003a0:	bd30      	pop	{r4, r5, pc}
 80003a2:	ea91 0f03 	teq	r1, r3
 80003a6:	bf1e      	ittt	ne
 80003a8:	2100      	movne	r1, #0
 80003aa:	2000      	movne	r0, #0
 80003ac:	bd30      	popne	{r4, r5, pc}
 80003ae:	ea5f 5c54 	movs.w	ip, r4, lsr #21
 80003b2:	d105      	bne.n	80003c0 <__adddf3+0x230>
 80003b4:	0040      	lsls	r0, r0, #1
 80003b6:	4149      	adcs	r1, r1
 80003b8:	bf28      	it	cs
 80003ba:	f041 4100 	orrcs.w	r1, r1, #2147483648	; 0x80000000
 80003be:	bd30      	pop	{r4, r5, pc}
 80003c0:	f514 0480 	adds.w	r4, r4, #4194304	; 0x400000
 80003c4:	bf3c      	itt	cc
 80003c6:	f501 1180 	addcc.w	r1, r1, #1048576	; 0x100000
 80003ca:	bd30      	popcc	{r4, r5, pc}
 80003cc:	f001 4500 	and.w	r5, r1, #2147483648	; 0x80000000
 80003d0:	f045 41fe 	orr.w	r1, r5, #2130706432	; 0x7f000000
 80003d4:	f441 0170 	orr.w	r1, r1, #15728640	; 0xf00000
 80003d8:	f04f 0000 	mov.w	r0, #0
 80003dc:	bd30      	pop	{r4, r5, pc}
 80003de:	ea7f 5c64 	mvns.w	ip, r4, asr #21
 80003e2:	bf1a      	itte	ne
 80003e4:	4619      	movne	r1, r3
 80003e6:	4610      	movne	r0, r2
 80003e8:	ea7f 5c65 	mvnseq.w	ip, r5, asr #21
 80003ec:	bf1c      	itt	ne
 80003ee:	460b      	movne	r3, r1
 80003f0:	4602      	movne	r2, r0
 80003f2:	ea50 3401 	orrs.w	r4, r0, r1, lsl #12
 80003f6:	bf06      	itte	eq
 80003f8:	ea52 3503 	orrseq.w	r5, r2, r3, lsl #12
 80003fc:	ea91 0f03 	teqeq	r1, r3
 8000400:	f441 2100 	orrne.w	r1, r1, #524288	; 0x80000
 8000404:	bd30      	pop	{r4, r5, pc}
 8000406:	bf00      	nop

08000408 <__aeabi_ui2d>:
 8000408:	f090 0f00 	teq	r0, #0
 800040c:	bf04      	itt	eq
 800040e:	2100      	moveq	r1, #0
 8000410:	4770      	bxeq	lr
 8000412:	b530      	push	{r4, r5, lr}
 8000414:	f44f 6480 	mov.w	r4, #1024	; 0x400
 8000418:	f104 0432 	add.w	r4, r4, #50	; 0x32
 800041c:	f04f 0500 	mov.w	r5, #0
 8000420:	f04f 0100 	mov.w	r1, #0
 8000424:	e750      	b.n	80002c8 <__adddf3+0x138>
 8000426:	bf00      	nop

08000428 <__aeabi_i2d>:
 8000428:	f090 0f00 	teq	r0, #0
 800042c:	bf04      	itt	eq
 800042e:	2100      	moveq	r1, #0
 8000430:	4770      	bxeq	lr
 8000432:	b530      	push	{r4, r5, lr}
 8000434:	f44f 6480 	mov.w	r4, #1024	; 0x400
 8000438:	f104 0432 	add.w	r4, r4, #50	; 0x32
 800043c:	f010 4500 	ands.w	r5, r0, #2147483648	; 0x80000000
 8000440:	bf48      	it	mi
 8000442:	4240      	negmi	r0, r0
 8000444:	f04f 0100 	mov.w	r1, #0
 8000448:	e73e      	b.n	80002c8 <__adddf3+0x138>
 800044a:	bf00      	nop

0800044c <__aeabi_f2d>:
 800044c:	0042      	lsls	r2, r0, #1
 800044e:	ea4f 01e2 	mov.w	r1, r2, asr #3
 8000452:	ea4f 0131 	mov.w	r1, r1, rrx
 8000456:	ea4f 7002 	mov.w	r0, r2, lsl #28
 800045a:	bf1f      	itttt	ne
 800045c:	f012 437f 	andsne.w	r3, r2, #4278190080	; 0xff000000
 8000460:	f093 4f7f 	teqne	r3, #4278190080	; 0xff000000
 8000464:	f081 5160 	eorne.w	r1, r1, #939524096	; 0x38000000
 8000468:	4770      	bxne	lr
 800046a:	f032 427f 	bics.w	r2, r2, #4278190080	; 0xff000000
 800046e:	bf08      	it	eq
 8000470:	4770      	bxeq	lr
 8000472:	f093 4f7f 	teq	r3, #4278190080	; 0xff000000
 8000476:	bf04      	itt	eq
 8000478:	f441 2100 	orreq.w	r1, r1, #524288	; 0x80000
 800047c:	4770      	bxeq	lr
 800047e:	b530      	push	{r4, r5, lr}
 8000480:	f44f 7460 	mov.w	r4, #896	; 0x380
 8000484:	f001 4500 	and.w	r5, r1, #2147483648	; 0x80000000
 8000488:	f021 4100 	bic.w	r1, r1, #2147483648	; 0x80000000
 800048c:	e71c      	b.n	80002c8 <__adddf3+0x138>
 800048e:	bf00      	nop

08000490 <__aeabi_ul2d>:
 8000490:	ea50 0201 	orrs.w	r2, r0, r1
 8000494:	bf08      	it	eq
 8000496:	4770      	bxeq	lr
 8000498:	b530      	push	{r4, r5, lr}
 800049a:	f04f 0500 	mov.w	r5, #0
 800049e:	e00a      	b.n	80004b6 <__aeabi_l2d+0x16>

080004a0 <__aeabi_l2d>:
 80004a0:	ea50 0201 	orrs.w	r2, r0, r1
 80004a4:	bf08      	it	eq
 80004a6:	4770      	bxeq	lr
 80004a8:	b530      	push	{r4, r5, lr}
 80004aa:	f011 4500 	ands.w	r5, r1, #2147483648	; 0x80000000
 80004ae:	d502      	bpl.n	80004b6 <__aeabi_l2d+0x16>
 80004b0:	4240      	negs	r0, r0
 80004b2:	eb61 0141 	sbc.w	r1, r1, r1, lsl #1
 80004b6:	f44f 6480 	mov.w	r4, #1024	; 0x400
 80004ba:	f104 0432 	add.w	r4, r4, #50	; 0x32
 80004be:	ea5f 5c91 	movs.w	ip, r1, lsr #22
 80004c2:	f43f aed8 	beq.w	8000276 <__adddf3+0xe6>
 80004c6:	f04f 0203 	mov.w	r2, #3
 80004ca:	ea5f 0cdc 	movs.w	ip, ip, lsr #3
 80004ce:	bf18      	it	ne
 80004d0:	3203      	addne	r2, #3
 80004d2:	ea5f 0cdc 	movs.w	ip, ip, lsr #3
 80004d6:	bf18      	it	ne
 80004d8:	3203      	addne	r2, #3
 80004da:	eb02 02dc 	add.w	r2, r2, ip, lsr #3
 80004de:	f1c2 0320 	rsb	r3, r2, #32
 80004e2:	fa00 fc03 	lsl.w	ip, r0, r3
 80004e6:	fa20 f002 	lsr.w	r0, r0, r2
 80004ea:	fa01 fe03 	lsl.w	lr, r1, r3
 80004ee:	ea40 000e 	orr.w	r0, r0, lr
 80004f2:	fa21 f102 	lsr.w	r1, r1, r2
 80004f6:	4414      	add	r4, r2
 80004f8:	e6bd      	b.n	8000276 <__adddf3+0xe6>
 80004fa:	bf00      	nop

080004fc <__aeabi_dmul>:
 80004fc:	b570      	push	{r4, r5, r6, lr}
 80004fe:	f04f 0cff 	mov.w	ip, #255	; 0xff
 8000502:	f44c 6ce0 	orr.w	ip, ip, #1792	; 0x700
 8000506:	ea1c 5411 	ands.w	r4, ip, r1, lsr #20
 800050a:	bf1d      	ittte	ne
 800050c:	ea1c 5513 	andsne.w	r5, ip, r3, lsr #20
 8000510:	ea94 0f0c 	teqne	r4, ip
 8000514:	ea95 0f0c 	teqne	r5, ip
 8000518:	f000 f8de 	bleq	80006d8 <__aeabi_dmul+0x1dc>
 800051c:	442c      	add	r4, r5
 800051e:	ea81 0603 	eor.w	r6, r1, r3
 8000522:	ea21 514c 	bic.w	r1, r1, ip, lsl #21
 8000526:	ea23 534c 	bic.w	r3, r3, ip, lsl #21
 800052a:	ea50 3501 	orrs.w	r5, r0, r1, lsl #12
 800052e:	bf18      	it	ne
 8000530:	ea52 3503 	orrsne.w	r5, r2, r3, lsl #12
 8000534:	f441 1180 	orr.w	r1, r1, #1048576	; 0x100000
 8000538:	f443 1380 	orr.w	r3, r3, #1048576	; 0x100000
 800053c:	d038      	beq.n	80005b0 <__aeabi_dmul+0xb4>
 800053e:	fba0 ce02 	umull	ip, lr, r0, r2
 8000542:	f04f 0500 	mov.w	r5, #0
 8000546:	fbe1 e502 	umlal	lr, r5, r1, r2
 800054a:	f006 4200 	and.w	r2, r6, #2147483648	; 0x80000000
 800054e:	fbe0 e503 	umlal	lr, r5, r0, r3
 8000552:	f04f 0600 	mov.w	r6, #0
 8000556:	fbe1 5603 	umlal	r5, r6, r1, r3
 800055a:	f09c 0f00 	teq	ip, #0
 800055e:	bf18      	it	ne
 8000560:	f04e 0e01 	orrne.w	lr, lr, #1
 8000564:	f1a4 04ff 	sub.w	r4, r4, #255	; 0xff
 8000568:	f5b6 7f00 	cmp.w	r6, #512	; 0x200
 800056c:	f564 7440 	sbc.w	r4, r4, #768	; 0x300
 8000570:	d204      	bcs.n	800057c <__aeabi_dmul+0x80>
 8000572:	ea5f 0e4e 	movs.w	lr, lr, lsl #1
 8000576:	416d      	adcs	r5, r5
 8000578:	eb46 0606 	adc.w	r6, r6, r6
 800057c:	ea42 21c6 	orr.w	r1, r2, r6, lsl #11
 8000580:	ea41 5155 	orr.w	r1, r1, r5, lsr #21
 8000584:	ea4f 20c5 	mov.w	r0, r5, lsl #11
 8000588:	ea40 505e 	orr.w	r0, r0, lr, lsr #21
 800058c:	ea4f 2ece 	mov.w	lr, lr, lsl #11
 8000590:	f1b4 0cfd 	subs.w	ip, r4, #253	; 0xfd
 8000594:	bf88      	it	hi
 8000596:	f5bc 6fe0 	cmphi.w	ip, #1792	; 0x700
 800059a:	d81e      	bhi.n	80005da <__aeabi_dmul+0xde>
 800059c:	f1be 4f00 	cmp.w	lr, #2147483648	; 0x80000000
 80005a0:	bf08      	it	eq
 80005a2:	ea5f 0e50 	movseq.w	lr, r0, lsr #1
 80005a6:	f150 0000 	adcs.w	r0, r0, #0
 80005aa:	eb41 5104 	adc.w	r1, r1, r4, lsl #20
 80005ae:	bd70      	pop	{r4, r5, r6, pc}
 80005b0:	f006 4600 	and.w	r6, r6, #2147483648	; 0x80000000
 80005b4:	ea46 0101 	orr.w	r1, r6, r1
 80005b8:	ea40 0002 	orr.w	r0, r0, r2
 80005bc:	ea81 0103 	eor.w	r1, r1, r3
 80005c0:	ebb4 045c 	subs.w	r4, r4, ip, lsr #1
 80005c4:	bfc2      	ittt	gt
 80005c6:	ebd4 050c 	rsbsgt	r5, r4, ip
 80005ca:	ea41 5104 	orrgt.w	r1, r1, r4, lsl #20
 80005ce:	bd70      	popgt	{r4, r5, r6, pc}
 80005d0:	f441 1180 	orr.w	r1, r1, #1048576	; 0x100000
 80005d4:	f04f 0e00 	mov.w	lr, #0
 80005d8:	3c01      	subs	r4, #1
 80005da:	f300 80ab 	bgt.w	8000734 <__aeabi_dmul+0x238>
 80005de:	f114 0f36 	cmn.w	r4, #54	; 0x36
 80005e2:	bfde      	ittt	le
 80005e4:	2000      	movle	r0, #0
 80005e6:	f001 4100 	andle.w	r1, r1, #2147483648	; 0x80000000
 80005ea:	bd70      	pople	{r4, r5, r6, pc}
 80005ec:	f1c4 0400 	rsb	r4, r4, #0
 80005f0:	3c20      	subs	r4, #32
 80005f2:	da35      	bge.n	8000660 <__aeabi_dmul+0x164>
 80005f4:	340c      	adds	r4, #12
 80005f6:	dc1b      	bgt.n	8000630 <__aeabi_dmul+0x134>
 80005f8:	f104 0414 	add.w	r4, r4, #20
 80005fc:	f1c4 0520 	rsb	r5, r4, #32
 8000600:	fa00 f305 	lsl.w	r3, r0, r5
 8000604:	fa20 f004 	lsr.w	r0, r0, r4
 8000608:	fa01 f205 	lsl.w	r2, r1, r5
 800060c:	ea40 0002 	orr.w	r0, r0, r2
 8000610:	f001 4200 	and.w	r2, r1, #2147483648	; 0x80000000
 8000614:	f021 4100 	bic.w	r1, r1, #2147483648	; 0x80000000
 8000618:	eb10 70d3 	adds.w	r0, r0, r3, lsr #31
 800061c:	fa21 f604 	lsr.w	r6, r1, r4
 8000620:	eb42 0106 	adc.w	r1, r2, r6
 8000624:	ea5e 0e43 	orrs.w	lr, lr, r3, lsl #1
 8000628:	bf08      	it	eq
 800062a:	ea20 70d3 	biceq.w	r0, r0, r3, lsr #31
 800062e:	bd70      	pop	{r4, r5, r6, pc}
 8000630:	f1c4 040c 	rsb	r4, r4, #12
 8000634:	f1c4 0520 	rsb	r5, r4, #32
 8000638:	fa00 f304 	lsl.w	r3, r0, r4
 800063c:	fa20 f005 	lsr.w	r0, r0, r5
 8000640:	fa01 f204 	lsl.w	r2, r1, r4
 8000644:	ea40 0002 	orr.w	r0, r0, r2
 8000648:	f001 4100 	and.w	r1, r1, #2147483648	; 0x80000000
 800064c:	eb10 70d3 	adds.w	r0, r0, r3, lsr #31
 8000650:	f141 0100 	adc.w	r1, r1, #0
 8000654:	ea5e 0e43 	orrs.w	lr, lr, r3, lsl #1
 8000658:	bf08      	it	eq
 800065a:	ea20 70d3 	biceq.w	r0, r0, r3, lsr #31
 800065e:	bd70      	pop	{r4, r5, r6, pc}
 8000660:	f1c4 0520 	rsb	r5, r4, #32
 8000664:	fa00 f205 	lsl.w	r2, r0, r5
 8000668:	ea4e 0e02 	orr.w	lr, lr, r2
 800066c:	fa20 f304 	lsr.w	r3, r0, r4
 8000670:	fa01 f205 	lsl.w	r2, r1, r5
 8000674:	ea43 0302 	orr.w	r3, r3, r2
 8000678:	fa21 f004 	lsr.w	r0, r1, r4
 800067c:	f001 4100 	and.w	r1, r1, #2147483648	; 0x80000000
 8000680:	fa21 f204 	lsr.w	r2, r1, r4
 8000684:	ea20 0002 	bic.w	r0, r0, r2
 8000688:	eb00 70d3 	add.w	r0, r0, r3, lsr #31
 800068c:	ea5e 0e43 	orrs.w	lr, lr, r3, lsl #1
 8000690:	bf08      	it	eq
 8000692:	ea20 70d3 	biceq.w	r0, r0, r3, lsr #31
 8000696:	bd70      	pop	{r4, r5, r6, pc}
 8000698:	f094 0f00 	teq	r4, #0
 800069c:	d10f      	bne.n	80006be <__aeabi_dmul+0x1c2>
 800069e:	f001 4600 	and.w	r6, r1, #2147483648	; 0x80000000
 80006a2:	0040      	lsls	r0, r0, #1
 80006a4:	eb41 0101 	adc.w	r1, r1, r1
 80006a8:	f411 1f80 	tst.w	r1, #1048576	; 0x100000
 80006ac:	bf08      	it	eq
 80006ae:	3c01      	subeq	r4, #1
 80006b0:	d0f7      	beq.n	80006a2 <__aeabi_dmul+0x1a6>
 80006b2:	ea41 0106 	orr.w	r1, r1, r6
 80006b6:	f095 0f00 	teq	r5, #0
 80006ba:	bf18      	it	ne
 80006bc:	4770      	bxne	lr
 80006be:	f003 4600 	and.w	r6, r3, #2147483648	; 0x80000000
 80006c2:	0052      	lsls	r2, r2, #1
 80006c4:	eb43 0303 	adc.w	r3, r3, r3
 80006c8:	f413 1f80 	tst.w	r3, #1048576	; 0x100000
 80006cc:	bf08      	it	eq
 80006ce:	3d01      	subeq	r5, #1
 80006d0:	d0f7      	beq.n	80006c2 <__aeabi_dmul+0x1c6>
 80006d2:	ea43 0306 	orr.w	r3, r3, r6
 80006d6:	4770      	bx	lr
 80006d8:	ea94 0f0c 	teq	r4, ip
 80006dc:	ea0c 5513 	and.w	r5, ip, r3, lsr #20
 80006e0:	bf18      	it	ne
 80006e2:	ea95 0f0c 	teqne	r5, ip
 80006e6:	d00c      	beq.n	8000702 <__aeabi_dmul+0x206>
 80006e8:	ea50 0641 	orrs.w	r6, r0, r1, lsl #1
 80006ec:	bf18      	it	ne
 80006ee:	ea52 0643 	orrsne.w	r6, r2, r3, lsl #1
 80006f2:	d1d1      	bne.n	8000698 <__aeabi_dmul+0x19c>
 80006f4:	ea81 0103 	eor.w	r1, r1, r3
 80006f8:	f001 4100 	and.w	r1, r1, #2147483648	; 0x80000000
 80006fc:	f04f 0000 	mov.w	r0, #0
 8000700:	bd70      	pop	{r4, r5, r6, pc}
 8000702:	ea50 0641 	orrs.w	r6, r0, r1, lsl #1
 8000706:	bf06      	itte	eq
 8000708:	4610      	moveq	r0, r2
 800070a:	4619      	moveq	r1, r3
 800070c:	ea52 0643 	orrsne.w	r6, r2, r3, lsl #1
 8000710:	d019      	beq.n	8000746 <__aeabi_dmul+0x24a>
 8000712:	ea94 0f0c 	teq	r4, ip
 8000716:	d102      	bne.n	800071e <__aeabi_dmul+0x222>
 8000718:	ea50 3601 	orrs.w	r6, r0, r1, lsl #12
 800071c:	d113      	bne.n	8000746 <__aeabi_dmul+0x24a>
 800071e:	ea95 0f0c 	teq	r5, ip
 8000722:	d105      	bne.n	8000730 <__aeabi_dmul+0x234>
 8000724:	ea52 3603 	orrs.w	r6, r2, r3, lsl #12
 8000728:	bf1c      	itt	ne
 800072a:	4610      	movne	r0, r2
 800072c:	4619      	movne	r1, r3
 800072e:	d10a      	bne.n	8000746 <__aeabi_dmul+0x24a>
 8000730:	ea81 0103 	eor.w	r1, r1, r3
 8000734:	f001 4100 	and.w	r1, r1, #2147483648	; 0x80000000
 8000738:	f041 41fe 	orr.w	r1, r1, #2130706432	; 0x7f000000
 800073c:	f441 0170 	orr.w	r1, r1, #15728640	; 0xf00000
 8000740:	f04f 0000 	mov.w	r0, #0
 8000744:	bd70      	pop	{r4, r5, r6, pc}
 8000746:	f041 41fe 	orr.w	r1, r1, #2130706432	; 0x7f000000
 800074a:	f441 0178 	orr.w	r1, r1, #16252928	; 0xf80000
 800074e:	bd70      	pop	{r4, r5, r6, pc}

08000750 <__aeabi_ddiv>:
 8000750:	b570      	push	{r4, r5, r6, lr}
 8000752:	f04f 0cff 	mov.w	ip, #255	; 0xff
 8000756:	f44c 6ce0 	orr.w	ip, ip, #1792	; 0x700
 800075a:	ea1c 5411 	ands.w	r4, ip, r1, lsr #20
 800075e:	bf1d      	ittte	ne
 8000760:	ea1c 5513 	andsne.w	r5, ip, r3, lsr #20
 8000764:	ea94 0f0c 	teqne	r4, ip
 8000768:	ea95 0f0c 	teqne	r5, ip
 800076c:	f000 f8a7 	bleq	80008be <__aeabi_ddiv+0x16e>
 8000770:	eba4 0405 	sub.w	r4, r4, r5
 8000774:	ea81 0e03 	eor.w	lr, r1, r3
 8000778:	ea52 3503 	orrs.w	r5, r2, r3, lsl #12
 800077c:	ea4f 3101 	mov.w	r1, r1, lsl #12
 8000780:	f000 8088 	beq.w	8000894 <__aeabi_ddiv+0x144>
 8000784:	ea4f 3303 	mov.w	r3, r3, lsl #12
 8000788:	f04f 5580 	mov.w	r5, #268435456	; 0x10000000
 800078c:	ea45 1313 	orr.w	r3, r5, r3, lsr #4
 8000790:	ea43 6312 	orr.w	r3, r3, r2, lsr #24
 8000794:	ea4f 2202 	mov.w	r2, r2, lsl #8
 8000798:	ea45 1511 	orr.w	r5, r5, r1, lsr #4
 800079c:	ea45 6510 	orr.w	r5, r5, r0, lsr #24
 80007a0:	ea4f 2600 	mov.w	r6, r0, lsl #8
 80007a4:	f00e 4100 	and.w	r1, lr, #2147483648	; 0x80000000
 80007a8:	429d      	cmp	r5, r3
 80007aa:	bf08      	it	eq
 80007ac:	4296      	cmpeq	r6, r2
 80007ae:	f144 04fd 	adc.w	r4, r4, #253	; 0xfd
 80007b2:	f504 7440 	add.w	r4, r4, #768	; 0x300
 80007b6:	d202      	bcs.n	80007be <__aeabi_ddiv+0x6e>
 80007b8:	085b      	lsrs	r3, r3, #1
 80007ba:	ea4f 0232 	mov.w	r2, r2, rrx
 80007be:	1ab6      	subs	r6, r6, r2
 80007c0:	eb65 0503 	sbc.w	r5, r5, r3
 80007c4:	085b      	lsrs	r3, r3, #1
 80007c6:	ea4f 0232 	mov.w	r2, r2, rrx
 80007ca:	f44f 1080 	mov.w	r0, #1048576	; 0x100000
 80007ce:	f44f 2c00 	mov.w	ip, #524288	; 0x80000
 80007d2:	ebb6 0e02 	subs.w	lr, r6, r2
 80007d6:	eb75 0e03 	sbcs.w	lr, r5, r3
 80007da:	bf22      	ittt	cs
 80007dc:	1ab6      	subcs	r6, r6, r2
 80007de:	4675      	movcs	r5, lr
 80007e0:	ea40 000c 	orrcs.w	r0, r0, ip
 80007e4:	085b      	lsrs	r3, r3, #1
 80007e6:	ea4f 0232 	mov.w	r2, r2, rrx
 80007ea:	ebb6 0e02 	subs.w	lr, r6, r2
 80007ee:	eb75 0e03 	sbcs.w	lr, r5, r3
 80007f2:	bf22      	ittt	cs
 80007f4:	1ab6      	subcs	r6, r6, r2
 80007f6:	4675      	movcs	r5, lr
 80007f8:	ea40 005c 	orrcs.w	r0, r0, ip, lsr #1
 80007fc:	085b      	lsrs	r3, r3, #1
 80007fe:	ea4f 0232 	mov.w	r2, r2, rrx
 8000802:	ebb6 0e02 	subs.w	lr, r6, r2
 8000806:	eb75 0e03 	sbcs.w	lr, r5, r3
 800080a:	bf22      	ittt	cs
 800080c:	1ab6      	subcs	r6, r6, r2
 800080e:	4675      	movcs	r5, lr
 8000810:	ea40 009c 	orrcs.w	r0, r0, ip, lsr #2
 8000814:	085b      	lsrs	r3, r3, #1
 8000816:	ea4f 0232 	mov.w	r2, r2, rrx
 800081a:	ebb6 0e02 	subs.w	lr, r6, r2
 800081e:	eb75 0e03 	sbcs.w	lr, r5, r3
 8000822:	bf22      	ittt	cs
 8000824:	1ab6      	subcs	r6, r6, r2
 8000826:	4675      	movcs	r5, lr
 8000828:	ea40 00dc 	orrcs.w	r0, r0, ip, lsr #3
 800082c:	ea55 0e06 	orrs.w	lr, r5, r6
 8000830:	d018      	beq.n	8000864 <__aeabi_ddiv+0x114>
 8000832:	ea4f 1505 	mov.w	r5, r5, lsl #4
 8000836:	ea45 7516 	orr.w	r5, r5, r6, lsr #28
 800083a:	ea4f 1606 	mov.w	r6, r6, lsl #4
 800083e:	ea4f 03c3 	mov.w	r3, r3, lsl #3
 8000842:	ea43 7352 	orr.w	r3, r3, r2, lsr #29
 8000846:	ea4f 02c2 	mov.w	r2, r2, lsl #3
 800084a:	ea5f 1c1c 	movs.w	ip, ip, lsr #4
 800084e:	d1c0      	bne.n	80007d2 <__aeabi_ddiv+0x82>
 8000850:	f411 1f80 	tst.w	r1, #1048576	; 0x100000
 8000854:	d10b      	bne.n	800086e <__aeabi_ddiv+0x11e>
 8000856:	ea41 0100 	orr.w	r1, r1, r0
 800085a:	f04f 0000 	mov.w	r0, #0
 800085e:	f04f 4c00 	mov.w	ip, #2147483648	; 0x80000000
 8000862:	e7b6      	b.n	80007d2 <__aeabi_ddiv+0x82>
 8000864:	f411 1f80 	tst.w	r1, #1048576	; 0x100000
 8000868:	bf04      	itt	eq
 800086a:	4301      	orreq	r1, r0
 800086c:	2000      	moveq	r0, #0
 800086e:	f1b4 0cfd 	subs.w	ip, r4, #253	; 0xfd
 8000872:	bf88      	it	hi
 8000874:	f5bc 6fe0 	cmphi.w	ip, #1792	; 0x700
 8000878:	f63f aeaf 	bhi.w	80005da <__aeabi_dmul+0xde>
 800087c:	ebb5 0c03 	subs.w	ip, r5, r3
 8000880:	bf04      	itt	eq
 8000882:	ebb6 0c02 	subseq.w	ip, r6, r2
 8000886:	ea5f 0c50 	movseq.w	ip, r0, lsr #1
 800088a:	f150 0000 	adcs.w	r0, r0, #0
 800088e:	eb41 5104 	adc.w	r1, r1, r4, lsl #20
 8000892:	bd70      	pop	{r4, r5, r6, pc}
 8000894:	f00e 4e00 	and.w	lr, lr, #2147483648	; 0x80000000
 8000898:	ea4e 3111 	orr.w	r1, lr, r1, lsr #12
 800089c:	eb14 045c 	adds.w	r4, r4, ip, lsr #1
 80008a0:	bfc2      	ittt	gt
 80008a2:	ebd4 050c 	rsbsgt	r5, r4, ip
 80008a6:	ea41 5104 	orrgt.w	r1, r1, r4, lsl #20
 80008aa:	bd70      	popgt	{r4, r5, r6, pc}
 80008ac:	f441 1180 	orr.w	r1, r1, #1048576	; 0x100000
 80008b0:	f04f 0e00 	mov.w	lr, #0
 80008b4:	3c01      	subs	r4, #1
 80008b6:	e690      	b.n	80005da <__aeabi_dmul+0xde>
 80008b8:	ea45 0e06 	orr.w	lr, r5, r6
 80008bc:	e68d      	b.n	80005da <__aeabi_dmul+0xde>
 80008be:	ea0c 5513 	and.w	r5, ip, r3, lsr #20
 80008c2:	ea94 0f0c 	teq	r4, ip
 80008c6:	bf08      	it	eq
 80008c8:	ea95 0f0c 	teqeq	r5, ip
 80008cc:	f43f af3b 	beq.w	8000746 <__aeabi_dmul+0x24a>
 80008d0:	ea94 0f0c 	teq	r4, ip
 80008d4:	d10a      	bne.n	80008ec <__aeabi_ddiv+0x19c>
 80008d6:	ea50 3401 	orrs.w	r4, r0, r1, lsl #12
 80008da:	f47f af34 	bne.w	8000746 <__aeabi_dmul+0x24a>
 80008de:	ea95 0f0c 	teq	r5, ip
 80008e2:	f47f af25 	bne.w	8000730 <__aeabi_dmul+0x234>
 80008e6:	4610      	mov	r0, r2
 80008e8:	4619      	mov	r1, r3
 80008ea:	e72c      	b.n	8000746 <__aeabi_dmul+0x24a>
 80008ec:	ea95 0f0c 	teq	r5, ip
 80008f0:	d106      	bne.n	8000900 <__aeabi_ddiv+0x1b0>
 80008f2:	ea52 3503 	orrs.w	r5, r2, r3, lsl #12
 80008f6:	f43f aefd 	beq.w	80006f4 <__aeabi_dmul+0x1f8>
 80008fa:	4610      	mov	r0, r2
 80008fc:	4619      	mov	r1, r3
 80008fe:	e722      	b.n	8000746 <__aeabi_dmul+0x24a>
 8000900:	ea50 0641 	orrs.w	r6, r0, r1, lsl #1
 8000904:	bf18      	it	ne
 8000906:	ea52 0643 	orrsne.w	r6, r2, r3, lsl #1
 800090a:	f47f aec5 	bne.w	8000698 <__aeabi_dmul+0x19c>
 800090e:	ea50 0441 	orrs.w	r4, r0, r1, lsl #1
 8000912:	f47f af0d 	bne.w	8000730 <__aeabi_dmul+0x234>
 8000916:	ea52 0543 	orrs.w	r5, r2, r3, lsl #1
 800091a:	f47f aeeb 	bne.w	80006f4 <__aeabi_dmul+0x1f8>
 800091e:	e712      	b.n	8000746 <__aeabi_dmul+0x24a>

08000920 <__gedf2>:
 8000920:	f04f 3cff 	mov.w	ip, #4294967295	; 0xffffffff
 8000924:	e006      	b.n	8000934 <__cmpdf2+0x4>
 8000926:	bf00      	nop

08000928 <__ledf2>:
 8000928:	f04f 0c01 	mov.w	ip, #1
 800092c:	e002      	b.n	8000934 <__cmpdf2+0x4>
 800092e:	bf00      	nop

08000930 <__cmpdf2>:
 8000930:	f04f 0c01 	mov.w	ip, #1
 8000934:	f84d cd04 	str.w	ip, [sp, #-4]!
 8000938:	ea4f 0c41 	mov.w	ip, r1, lsl #1
 800093c:	ea7f 5c6c 	mvns.w	ip, ip, asr #21
 8000940:	ea4f 0c43 	mov.w	ip, r3, lsl #1
 8000944:	bf18      	it	ne
 8000946:	ea7f 5c6c 	mvnsne.w	ip, ip, asr #21
 800094a:	d01b      	beq.n	8000984 <__cmpdf2+0x54>
 800094c:	b001      	add	sp, #4
 800094e:	ea50 0c41 	orrs.w	ip, r0, r1, lsl #1
 8000952:	bf0c      	ite	eq
 8000954:	ea52 0c43 	orrseq.w	ip, r2, r3, lsl #1
 8000958:	ea91 0f03 	teqne	r1, r3
 800095c:	bf02      	ittt	eq
 800095e:	ea90 0f02 	teqeq	r0, r2
 8000962:	2000      	moveq	r0, #0
 8000964:	4770      	bxeq	lr
 8000966:	f110 0f00 	cmn.w	r0, #0
 800096a:	ea91 0f03 	teq	r1, r3
 800096e:	bf58      	it	pl
 8000970:	4299      	cmppl	r1, r3
 8000972:	bf08      	it	eq
 8000974:	4290      	cmpeq	r0, r2
 8000976:	bf2c      	ite	cs
 8000978:	17d8      	asrcs	r0, r3, #31
 800097a:	ea6f 70e3 	mvncc.w	r0, r3, asr #31
 800097e:	f040 0001 	orr.w	r0, r0, #1
 8000982:	4770      	bx	lr
 8000984:	ea4f 0c41 	mov.w	ip, r1, lsl #1
 8000988:	ea7f 5c6c 	mvns.w	ip, ip, asr #21
 800098c:	d102      	bne.n	8000994 <__cmpdf2+0x64>
 800098e:	ea50 3c01 	orrs.w	ip, r0, r1, lsl #12
 8000992:	d107      	bne.n	80009a4 <__cmpdf2+0x74>
 8000994:	ea4f 0c43 	mov.w	ip, r3, lsl #1
 8000998:	ea7f 5c6c 	mvns.w	ip, ip, asr #21
 800099c:	d1d6      	bne.n	800094c <__cmpdf2+0x1c>
 800099e:	ea52 3c03 	orrs.w	ip, r2, r3, lsl #12
 80009a2:	d0d3      	beq.n	800094c <__cmpdf2+0x1c>
 80009a4:	f85d 0b04 	ldr.w	r0, [sp], #4
 80009a8:	4770      	bx	lr
 80009aa:	bf00      	nop

080009ac <__aeabi_cdrcmple>:
 80009ac:	4684      	mov	ip, r0
 80009ae:	4610      	mov	r0, r2
 80009b0:	4662      	mov	r2, ip
 80009b2:	468c      	mov	ip, r1
 80009b4:	4619      	mov	r1, r3
 80009b6:	4663      	mov	r3, ip
 80009b8:	e000      	b.n	80009bc <__aeabi_cdcmpeq>
 80009ba:	bf00      	nop

080009bc <__aeabi_cdcmpeq>:
 80009bc:	b501      	push	{r0, lr}
 80009be:	f7ff ffb7 	bl	8000930 <__cmpdf2>
 80009c2:	2800      	cmp	r0, #0
 80009c4:	bf48      	it	mi
 80009c6:	f110 0f00 	cmnmi.w	r0, #0
 80009ca:	bd01      	pop	{r0, pc}

080009cc <__aeabi_dcmpeq>:
 80009cc:	f84d ed08 	str.w	lr, [sp, #-8]!
 80009d0:	f7ff fff4 	bl	80009bc <__aeabi_cdcmpeq>
 80009d4:	bf0c      	ite	eq
 80009d6:	2001      	moveq	r0, #1
 80009d8:	2000      	movne	r0, #0
 80009da:	f85d fb08 	ldr.w	pc, [sp], #8
 80009de:	bf00      	nop

080009e0 <__aeabi_dcmplt>:
 80009e0:	f84d ed08 	str.w	lr, [sp, #-8]!
 80009e4:	f7ff ffea 	bl	80009bc <__aeabi_cdcmpeq>
 80009e8:	bf34      	ite	cc
 80009ea:	2001      	movcc	r0, #1
 80009ec:	2000      	movcs	r0, #0
 80009ee:	f85d fb08 	ldr.w	pc, [sp], #8
 80009f2:	bf00      	nop

080009f4 <__aeabi_dcmple>:
 80009f4:	f84d ed08 	str.w	lr, [sp, #-8]!
 80009f8:	f7ff ffe0 	bl	80009bc <__aeabi_cdcmpeq>
 80009fc:	bf94      	ite	ls
 80009fe:	2001      	movls	r0, #1
 8000a00:	2000      	movhi	r0, #0
 8000a02:	f85d fb08 	ldr.w	pc, [sp], #8
 8000a06:	bf00      	nop

08000a08 <__aeabi_dcmpge>:
 8000a08:	f84d ed08 	str.w	lr, [sp, #-8]!
 8000a0c:	f7ff ffce 	bl	80009ac <__aeabi_cdrcmple>
 8000a10:	bf94      	ite	ls
 8000a12:	2001      	movls	r0, #1
 8000a14:	2000      	movhi	r0, #0
 8000a16:	f85d fb08 	ldr.w	pc, [sp], #8
 8000a1a:	bf00      	nop

08000a1c <__aeabi_dcmpgt>:
 8000a1c:	f84d ed08 	str.w	lr, [sp, #-8]!
 8000a20:	f7ff ffc4 	bl	80009ac <__aeabi_cdrcmple>
 8000a24:	bf34      	ite	cc
 8000a26:	2001      	movcc	r0, #1
 8000a28:	2000      	movcs	r0, #0
 8000a2a:	f85d fb08 	ldr.w	pc, [sp], #8
 8000a2e:	bf00      	nop

08000a30 <__aeabi_dcmpun>:
 8000a30:	ea4f 0c41 	mov.w	ip, r1, lsl #1
 8000a34:	ea7f 5c6c 	mvns.w	ip, ip, asr #21
 8000a38:	d102      	bne.n	8000a40 <__aeabi_dcmpun+0x10>
 8000a3a:	ea50 3c01 	orrs.w	ip, r0, r1, lsl #12
 8000a3e:	d10a      	bne.n	8000a56 <__aeabi_dcmpun+0x26>
 8000a40:	ea4f 0c43 	mov.w	ip, r3, lsl #1
 8000a44:	ea7f 5c6c 	mvns.w	ip, ip, asr #21
 8000a48:	d102      	bne.n	8000a50 <__aeabi_dcmpun+0x20>
 8000a4a:	ea52 3c03 	orrs.w	ip, r2, r3, lsl #12
 8000a4e:	d102      	bne.n	8000a56 <__aeabi_dcmpun+0x26>
 8000a50:	f04f 0000 	mov.w	r0, #0
 8000a54:	4770      	bx	lr
 8000a56:	f04f 0001 	mov.w	r0, #1
 8000a5a:	4770      	bx	lr

08000a5c <__aeabi_d2iz>:
 8000a5c:	ea4f 0241 	mov.w	r2, r1, lsl #1
 8000a60:	f512 1200 	adds.w	r2, r2, #2097152	; 0x200000
 8000a64:	d215      	bcs.n	8000a92 <__aeabi_d2iz+0x36>
 8000a66:	d511      	bpl.n	8000a8c <__aeabi_d2iz+0x30>
 8000a68:	f46f 7378 	mvn.w	r3, #992	; 0x3e0
 8000a6c:	ebb3 5262 	subs.w	r2, r3, r2, asr #21
 8000a70:	d912      	bls.n	8000a98 <__aeabi_d2iz+0x3c>
 8000a72:	ea4f 23c1 	mov.w	r3, r1, lsl #11
 8000a76:	f043 4300 	orr.w	r3, r3, #2147483648	; 0x80000000
 8000a7a:	ea43 5350 	orr.w	r3, r3, r0, lsr #21
 8000a7e:	f011 4f00 	tst.w	r1, #2147483648	; 0x80000000
 8000a82:	fa23 f002 	lsr.w	r0, r3, r2
 8000a86:	bf18      	it	ne
 8000a88:	4240      	negne	r0, r0
 8000a8a:	4770      	bx	lr
 8000a8c:	f04f 0000 	mov.w	r0, #0
 8000a90:	4770      	bx	lr
 8000a92:	ea50 3001 	orrs.w	r0, r0, r1, lsl #12
 8000a96:	d105      	bne.n	8000aa4 <__aeabi_d2iz+0x48>
 8000a98:	f011 4000 	ands.w	r0, r1, #2147483648	; 0x80000000
 8000a9c:	bf08      	it	eq
 8000a9e:	f06f 4000 	mvneq.w	r0, #2147483648	; 0x80000000
 8000aa2:	4770      	bx	lr
 8000aa4:	f04f 0000 	mov.w	r0, #0
 8000aa8:	4770      	bx	lr
 8000aaa:	bf00      	nop

08000aac <__aeabi_d2f>:
 8000aac:	ea4f 0241 	mov.w	r2, r1, lsl #1
 8000ab0:	f1b2 43e0 	subs.w	r3, r2, #1879048192	; 0x70000000
 8000ab4:	bf24      	itt	cs
 8000ab6:	f5b3 1c00 	subscs.w	ip, r3, #2097152	; 0x200000
 8000aba:	f1dc 5cfe 	rsbscs	ip, ip, #532676608	; 0x1fc00000
 8000abe:	d90d      	bls.n	8000adc <__aeabi_d2f+0x30>
 8000ac0:	f001 4c00 	and.w	ip, r1, #2147483648	; 0x80000000
 8000ac4:	ea4f 02c0 	mov.w	r2, r0, lsl #3
 8000ac8:	ea4c 7050 	orr.w	r0, ip, r0, lsr #29
 8000acc:	f1b2 4f00 	cmp.w	r2, #2147483648	; 0x80000000
 8000ad0:	eb40 0083 	adc.w	r0, r0, r3, lsl #2
 8000ad4:	bf08      	it	eq
 8000ad6:	f020 0001 	biceq.w	r0, r0, #1
 8000ada:	4770      	bx	lr
 8000adc:	f011 4f80 	tst.w	r1, #1073741824	; 0x40000000
 8000ae0:	d121      	bne.n	8000b26 <__aeabi_d2f+0x7a>
 8000ae2:	f113 7238 	adds.w	r2, r3, #48234496	; 0x2e00000
 8000ae6:	bfbc      	itt	lt
 8000ae8:	f001 4000 	andlt.w	r0, r1, #2147483648	; 0x80000000
 8000aec:	4770      	bxlt	lr
 8000aee:	f441 1180 	orr.w	r1, r1, #1048576	; 0x100000
 8000af2:	ea4f 5252 	mov.w	r2, r2, lsr #21
 8000af6:	f1c2 0218 	rsb	r2, r2, #24
 8000afa:	f1c2 0c20 	rsb	ip, r2, #32
 8000afe:	fa10 f30c 	lsls.w	r3, r0, ip
 8000b02:	fa20 f002 	lsr.w	r0, r0, r2
 8000b06:	bf18      	it	ne
 8000b08:	f040 0001 	orrne.w	r0, r0, #1
 8000b0c:	ea4f 23c1 	mov.w	r3, r1, lsl #11
 8000b10:	ea4f 23d3 	mov.w	r3, r3, lsr #11
 8000b14:	fa03 fc0c 	lsl.w	ip, r3, ip
 8000b18:	ea40 000c 	orr.w	r0, r0, ip
 8000b1c:	fa23 f302 	lsr.w	r3, r3, r2
 8000b20:	ea4f 0343 	mov.w	r3, r3, lsl #1
 8000b24:	e7cc      	b.n	8000ac0 <__aeabi_d2f+0x14>
 8000b26:	ea7f 5362 	mvns.w	r3, r2, asr #21
 8000b2a:	d107      	bne.n	8000b3c <__aeabi_d2f+0x90>
 8000b2c:	ea50 3301 	orrs.w	r3, r0, r1, lsl #12
 8000b30:	bf1e      	ittt	ne
 8000b32:	f04f 40fe 	movne.w	r0, #2130706432	; 0x7f000000
 8000b36:	f440 0040 	orrne.w	r0, r0, #12582912	; 0xc00000
 8000b3a:	4770      	bxne	lr
 8000b3c:	f001 4000 	and.w	r0, r1, #2147483648	; 0x80000000
 8000b40:	f040 40fe 	orr.w	r0, r0, #2130706432	; 0x7f000000
 8000b44:	f440 0000 	orr.w	r0, r0, #8388608	; 0x800000
 8000b48:	4770      	bx	lr
 8000b4a:	bf00      	nop

08000b4c <__aeabi_frsub>:
 8000b4c:	f080 4000 	eor.w	r0, r0, #2147483648	; 0x80000000
 8000b50:	e002      	b.n	8000b58 <__addsf3>
 8000b52:	bf00      	nop

08000b54 <__aeabi_fsub>:
 8000b54:	f081 4100 	eor.w	r1, r1, #2147483648	; 0x80000000

08000b58 <__addsf3>:
 8000b58:	0042      	lsls	r2, r0, #1
 8000b5a:	bf1f      	itttt	ne
 8000b5c:	ea5f 0341 	movsne.w	r3, r1, lsl #1
 8000b60:	ea92 0f03 	teqne	r2, r3
 8000b64:	ea7f 6c22 	mvnsne.w	ip, r2, asr #24
 8000b68:	ea7f 6c23 	mvnsne.w	ip, r3, asr #24
 8000b6c:	d06a      	beq.n	8000c44 <__addsf3+0xec>
 8000b6e:	ea4f 6212 	mov.w	r2, r2, lsr #24
 8000b72:	ebd2 6313 	rsbs	r3, r2, r3, lsr #24
 8000b76:	bfc1      	itttt	gt
 8000b78:	18d2      	addgt	r2, r2, r3
 8000b7a:	4041      	eorgt	r1, r0
 8000b7c:	4048      	eorgt	r0, r1
 8000b7e:	4041      	eorgt	r1, r0
 8000b80:	bfb8      	it	lt
 8000b82:	425b      	neglt	r3, r3
 8000b84:	2b19      	cmp	r3, #25
 8000b86:	bf88      	it	hi
 8000b88:	4770      	bxhi	lr
 8000b8a:	f010 4f00 	tst.w	r0, #2147483648	; 0x80000000
 8000b8e:	f440 0000 	orr.w	r0, r0, #8388608	; 0x800000
 8000b92:	f020 407f 	bic.w	r0, r0, #4278190080	; 0xff000000
 8000b96:	bf18      	it	ne
 8000b98:	4240      	negne	r0, r0
 8000b9a:	f011 4f00 	tst.w	r1, #2147483648	; 0x80000000
 8000b9e:	f441 0100 	orr.w	r1, r1, #8388608	; 0x800000
 8000ba2:	f021 417f 	bic.w	r1, r1, #4278190080	; 0xff000000
 8000ba6:	bf18      	it	ne
 8000ba8:	4249      	negne	r1, r1
 8000baa:	ea92 0f03 	teq	r2, r3
 8000bae:	d03f      	beq.n	8000c30 <__addsf3+0xd8>
 8000bb0:	f1a2 0201 	sub.w	r2, r2, #1
 8000bb4:	fa41 fc03 	asr.w	ip, r1, r3
 8000bb8:	eb10 000c 	adds.w	r0, r0, ip
 8000bbc:	f1c3 0320 	rsb	r3, r3, #32
 8000bc0:	fa01 f103 	lsl.w	r1, r1, r3
 8000bc4:	f000 4300 	and.w	r3, r0, #2147483648	; 0x80000000
 8000bc8:	d502      	bpl.n	8000bd0 <__addsf3+0x78>
 8000bca:	4249      	negs	r1, r1
 8000bcc:	eb60 0040 	sbc.w	r0, r0, r0, lsl #1
 8000bd0:	f5b0 0f00 	cmp.w	r0, #8388608	; 0x800000
 8000bd4:	d313      	bcc.n	8000bfe <__addsf3+0xa6>
 8000bd6:	f1b0 7f80 	cmp.w	r0, #16777216	; 0x1000000
 8000bda:	d306      	bcc.n	8000bea <__addsf3+0x92>
 8000bdc:	0840      	lsrs	r0, r0, #1
 8000bde:	ea4f 0131 	mov.w	r1, r1, rrx
 8000be2:	f102 0201 	add.w	r2, r2, #1
 8000be6:	2afe      	cmp	r2, #254	; 0xfe
 8000be8:	d251      	bcs.n	8000c8e <__addsf3+0x136>
 8000bea:	f1b1 4f00 	cmp.w	r1, #2147483648	; 0x80000000
 8000bee:	eb40 50c2 	adc.w	r0, r0, r2, lsl #23
 8000bf2:	bf08      	it	eq
 8000bf4:	f020 0001 	biceq.w	r0, r0, #1
 8000bf8:	ea40 0003 	orr.w	r0, r0, r3
 8000bfc:	4770      	bx	lr
 8000bfe:	0049      	lsls	r1, r1, #1
 8000c00:	eb40 0000 	adc.w	r0, r0, r0
 8000c04:	3a01      	subs	r2, #1
 8000c06:	bf28      	it	cs
 8000c08:	f5b0 0f00 	cmpcs.w	r0, #8388608	; 0x800000
 8000c0c:	d2ed      	bcs.n	8000bea <__addsf3+0x92>
 8000c0e:	fab0 fc80 	clz	ip, r0
 8000c12:	f1ac 0c08 	sub.w	ip, ip, #8
 8000c16:	ebb2 020c 	subs.w	r2, r2, ip
 8000c1a:	fa00 f00c 	lsl.w	r0, r0, ip
 8000c1e:	bfaa      	itet	ge
 8000c20:	eb00 50c2 	addge.w	r0, r0, r2, lsl #23
 8000c24:	4252      	neglt	r2, r2
 8000c26:	4318      	orrge	r0, r3
 8000c28:	bfbc      	itt	lt
 8000c2a:	40d0      	lsrlt	r0, r2
 8000c2c:	4318      	orrlt	r0, r3
 8000c2e:	4770      	bx	lr
 8000c30:	f092 0f00 	teq	r2, #0
 8000c34:	f481 0100 	eor.w	r1, r1, #8388608	; 0x800000
 8000c38:	bf06      	itte	eq
 8000c3a:	f480 0000 	eoreq.w	r0, r0, #8388608	; 0x800000
 8000c3e:	3201      	addeq	r2, #1
 8000c40:	3b01      	subne	r3, #1
 8000c42:	e7b5      	b.n	8000bb0 <__addsf3+0x58>
 8000c44:	ea4f 0341 	mov.w	r3, r1, lsl #1
 8000c48:	ea7f 6c22 	mvns.w	ip, r2, asr #24
 8000c4c:	bf18      	it	ne
 8000c4e:	ea7f 6c23 	mvnsne.w	ip, r3, asr #24
 8000c52:	d021      	beq.n	8000c98 <__addsf3+0x140>
 8000c54:	ea92 0f03 	teq	r2, r3
 8000c58:	d004      	beq.n	8000c64 <__addsf3+0x10c>
 8000c5a:	f092 0f00 	teq	r2, #0
 8000c5e:	bf08      	it	eq
 8000c60:	4608      	moveq	r0, r1
 8000c62:	4770      	bx	lr
 8000c64:	ea90 0f01 	teq	r0, r1
 8000c68:	bf1c      	itt	ne
 8000c6a:	2000      	movne	r0, #0
 8000c6c:	4770      	bxne	lr
 8000c6e:	f012 4f7f 	tst.w	r2, #4278190080	; 0xff000000
 8000c72:	d104      	bne.n	8000c7e <__addsf3+0x126>
 8000c74:	0040      	lsls	r0, r0, #1
 8000c76:	bf28      	it	cs
 8000c78:	f040 4000 	orrcs.w	r0, r0, #2147483648	; 0x80000000
 8000c7c:	4770      	bx	lr
 8000c7e:	f112 7200 	adds.w	r2, r2, #33554432	; 0x2000000
 8000c82:	bf3c      	itt	cc
 8000c84:	f500 0000 	addcc.w	r0, r0, #8388608	; 0x800000
 8000c88:	4770      	bxcc	lr
 8000c8a:	f000 4300 	and.w	r3, r0, #2147483648	; 0x80000000
 8000c8e:	f043 40fe 	orr.w	r0, r3, #2130706432	; 0x7f000000
 8000c92:	f440 0000 	orr.w	r0, r0, #8388608	; 0x800000
 8000c96:	4770      	bx	lr
 8000c98:	ea7f 6222 	mvns.w	r2, r2, asr #24
 8000c9c:	bf16      	itet	ne
 8000c9e:	4608      	movne	r0, r1
 8000ca0:	ea7f 6323 	mvnseq.w	r3, r3, asr #24
 8000ca4:	4601      	movne	r1, r0
 8000ca6:	0242      	lsls	r2, r0, #9
 8000ca8:	bf06      	itte	eq
 8000caa:	ea5f 2341 	movseq.w	r3, r1, lsl #9
 8000cae:	ea90 0f01 	teqeq	r0, r1
 8000cb2:	f440 0080 	orrne.w	r0, r0, #4194304	; 0x400000
 8000cb6:	4770      	bx	lr

08000cb8 <__aeabi_ui2f>:
 8000cb8:	f04f 0300 	mov.w	r3, #0
 8000cbc:	e004      	b.n	8000cc8 <__aeabi_i2f+0x8>
 8000cbe:	bf00      	nop

08000cc0 <__aeabi_i2f>:
 8000cc0:	f010 4300 	ands.w	r3, r0, #2147483648	; 0x80000000
 8000cc4:	bf48      	it	mi
 8000cc6:	4240      	negmi	r0, r0
 8000cc8:	ea5f 0c00 	movs.w	ip, r0
 8000ccc:	bf08      	it	eq
 8000cce:	4770      	bxeq	lr
 8000cd0:	f043 4396 	orr.w	r3, r3, #1258291200	; 0x4b000000
 8000cd4:	4601      	mov	r1, r0
 8000cd6:	f04f 0000 	mov.w	r0, #0
 8000cda:	e01c      	b.n	8000d16 <__aeabi_l2f+0x2a>

08000cdc <__aeabi_ul2f>:
 8000cdc:	ea50 0201 	orrs.w	r2, r0, r1
 8000ce0:	bf08      	it	eq
 8000ce2:	4770      	bxeq	lr
 8000ce4:	f04f 0300 	mov.w	r3, #0
 8000ce8:	e00a      	b.n	8000d00 <__aeabi_l2f+0x14>
 8000cea:	bf00      	nop

08000cec <__aeabi_l2f>:
 8000cec:	ea50 0201 	orrs.w	r2, r0, r1
 8000cf0:	bf08      	it	eq
 8000cf2:	4770      	bxeq	lr
 8000cf4:	f011 4300 	ands.w	r3, r1, #2147483648	; 0x80000000
 8000cf8:	d502      	bpl.n	8000d00 <__aeabi_l2f+0x14>
 8000cfa:	4240      	negs	r0, r0
 8000cfc:	eb61 0141 	sbc.w	r1, r1, r1, lsl #1
 8000d00:	ea5f 0c01 	movs.w	ip, r1
 8000d04:	bf02      	ittt	eq
 8000d06:	4684      	moveq	ip, r0
 8000d08:	4601      	moveq	r1, r0
 8000d0a:	2000      	moveq	r0, #0
 8000d0c:	f043 43b6 	orr.w	r3, r3, #1526726656	; 0x5b000000
 8000d10:	bf08      	it	eq
 8000d12:	f1a3 5380 	subeq.w	r3, r3, #268435456	; 0x10000000
 8000d16:	f5a3 0300 	sub.w	r3, r3, #8388608	; 0x800000
 8000d1a:	fabc f28c 	clz	r2, ip
 8000d1e:	3a08      	subs	r2, #8
 8000d20:	eba3 53c2 	sub.w	r3, r3, r2, lsl #23
 8000d24:	db10      	blt.n	8000d48 <__aeabi_l2f+0x5c>
 8000d26:	fa01 fc02 	lsl.w	ip, r1, r2
 8000d2a:	4463      	add	r3, ip
 8000d2c:	fa00 fc02 	lsl.w	ip, r0, r2
 8000d30:	f1c2 0220 	rsb	r2, r2, #32
 8000d34:	f1bc 4f00 	cmp.w	ip, #2147483648	; 0x80000000
 8000d38:	fa20 f202 	lsr.w	r2, r0, r2
 8000d3c:	eb43 0002 	adc.w	r0, r3, r2
 8000d40:	bf08      	it	eq
 8000d42:	f020 0001 	biceq.w	r0, r0, #1
 8000d46:	4770      	bx	lr
 8000d48:	f102 0220 	add.w	r2, r2, #32
 8000d4c:	fa01 fc02 	lsl.w	ip, r1, r2
 8000d50:	f1c2 0220 	rsb	r2, r2, #32
 8000d54:	ea50 004c 	orrs.w	r0, r0, ip, lsl #1
 8000d58:	fa21 f202 	lsr.w	r2, r1, r2
 8000d5c:	eb43 0002 	adc.w	r0, r3, r2
 8000d60:	bf08      	it	eq
 8000d62:	ea20 70dc 	biceq.w	r0, r0, ip, lsr #31
 8000d66:	4770      	bx	lr

08000d68 <__aeabi_ldivmod>:
 8000d68:	b97b      	cbnz	r3, 8000d8a <__aeabi_ldivmod+0x22>
 8000d6a:	b972      	cbnz	r2, 8000d8a <__aeabi_ldivmod+0x22>
 8000d6c:	2900      	cmp	r1, #0
 8000d6e:	bfbe      	ittt	lt
 8000d70:	2000      	movlt	r0, #0
 8000d72:	f04f 4100 	movlt.w	r1, #2147483648	; 0x80000000
 8000d76:	e006      	blt.n	8000d86 <__aeabi_ldivmod+0x1e>
 8000d78:	bf08      	it	eq
 8000d7a:	2800      	cmpeq	r0, #0
 8000d7c:	bf1c      	itt	ne
 8000d7e:	f06f 4100 	mvnne.w	r1, #2147483648	; 0x80000000
 8000d82:	f04f 30ff 	movne.w	r0, #4294967295	; 0xffffffff
 8000d86:	f000 b9bd 	b.w	8001104 <__aeabi_idiv0>
 8000d8a:	f1ad 0c08 	sub.w	ip, sp, #8
 8000d8e:	e96d ce04 	strd	ip, lr, [sp, #-16]!
 8000d92:	2900      	cmp	r1, #0
 8000d94:	db09      	blt.n	8000daa <__aeabi_ldivmod+0x42>
 8000d96:	2b00      	cmp	r3, #0
 8000d98:	db1a      	blt.n	8000dd0 <__aeabi_ldivmod+0x68>
 8000d9a:	f000 f84d 	bl	8000e38 <__udivmoddi4>
 8000d9e:	f8dd e004 	ldr.w	lr, [sp, #4]
 8000da2:	e9dd 2302 	ldrd	r2, r3, [sp, #8]
 8000da6:	b004      	add	sp, #16
 8000da8:	4770      	bx	lr
 8000daa:	4240      	negs	r0, r0
 8000dac:	eb61 0141 	sbc.w	r1, r1, r1, lsl #1
 8000db0:	2b00      	cmp	r3, #0
 8000db2:	db1b      	blt.n	8000dec <__aeabi_ldivmod+0x84>
 8000db4:	f000 f840 	bl	8000e38 <__udivmoddi4>
 8000db8:	f8dd e004 	ldr.w	lr, [sp, #4]
 8000dbc:	e9dd 2302 	ldrd	r2, r3, [sp, #8]
 8000dc0:	b004      	add	sp, #16
 8000dc2:	4240      	negs	r0, r0
 8000dc4:	eb61 0141 	sbc.w	r1, r1, r1, lsl #1
 8000dc8:	4252      	negs	r2, r2
 8000dca:	eb63 0343 	sbc.w	r3, r3, r3, lsl #1
 8000dce:	4770      	bx	lr
 8000dd0:	4252      	negs	r2, r2
 8000dd2:	eb63 0343 	sbc.w	r3, r3, r3, lsl #1
 8000dd6:	f000 f82f 	bl	8000e38 <__udivmoddi4>
 8000dda:	f8dd e004 	ldr.w	lr, [sp, #4]
 8000dde:	e9dd 2302 	ldrd	r2, r3, [sp, #8]
 8000de2:	b004      	add	sp, #16
 8000de4:	4240      	negs	r0, r0
 8000de6:	eb61 0141 	sbc.w	r1, r1, r1, lsl #1
 8000dea:	4770      	bx	lr
 8000dec:	4252      	negs	r2, r2
 8000dee:	eb63 0343 	sbc.w	r3, r3, r3, lsl #1
 8000df2:	f000 f821 	bl	8000e38 <__udivmoddi4>
 8000df6:	f8dd e004 	ldr.w	lr, [sp, #4]
 8000dfa:	e9dd 2302 	ldrd	r2, r3, [sp, #8]
 8000dfe:	b004      	add	sp, #16
 8000e00:	4252      	negs	r2, r2
 8000e02:	eb63 0343 	sbc.w	r3, r3, r3, lsl #1
 8000e06:	4770      	bx	lr

08000e08 <__aeabi_uldivmod>:
 8000e08:	b953      	cbnz	r3, 8000e20 <__aeabi_uldivmod+0x18>
 8000e0a:	b94a      	cbnz	r2, 8000e20 <__aeabi_uldivmod+0x18>
 8000e0c:	2900      	cmp	r1, #0
 8000e0e:	bf08      	it	eq
 8000e10:	2800      	cmpeq	r0, #0
 8000e12:	bf1c      	itt	ne
 8000e14:	f04f 31ff 	movne.w	r1, #4294967295	; 0xffffffff
 8000e18:	f04f 30ff 	movne.w	r0, #4294967295	; 0xffffffff
 8000e1c:	f000 b972 	b.w	8001104 <__aeabi_idiv0>
 8000e20:	f1ad 0c08 	sub.w	ip, sp, #8
 8000e24:	e96d ce04 	strd	ip, lr, [sp, #-16]!
 8000e28:	f000 f806 	bl	8000e38 <__udivmoddi4>
 8000e2c:	f8dd e004 	ldr.w	lr, [sp, #4]
 8000e30:	e9dd 2302 	ldrd	r2, r3, [sp, #8]
 8000e34:	b004      	add	sp, #16
 8000e36:	4770      	bx	lr

08000e38 <__udivmoddi4>:
 8000e38:	e92d 47f0 	stmdb	sp!, {r4, r5, r6, r7, r8, r9, sl, lr}
 8000e3c:	9e08      	ldr	r6, [sp, #32]
 8000e3e:	460d      	mov	r5, r1
 8000e40:	4604      	mov	r4, r0
 8000e42:	468e      	mov	lr, r1
 8000e44:	2b00      	cmp	r3, #0
 8000e46:	d14c      	bne.n	8000ee2 <__udivmoddi4+0xaa>
 8000e48:	428a      	cmp	r2, r1
 8000e4a:	4694      	mov	ip, r2
 8000e4c:	d967      	bls.n	8000f1e <__udivmoddi4+0xe6>
 8000e4e:	fab2 f382 	clz	r3, r2
 8000e52:	b153      	cbz	r3, 8000e6a <__udivmoddi4+0x32>
 8000e54:	fa02 fc03 	lsl.w	ip, r2, r3
 8000e58:	f1c3 0220 	rsb	r2, r3, #32
 8000e5c:	fa01 fe03 	lsl.w	lr, r1, r3
 8000e60:	fa20 f202 	lsr.w	r2, r0, r2
 8000e64:	ea42 0e0e 	orr.w	lr, r2, lr
 8000e68:	409c      	lsls	r4, r3
 8000e6a:	ea4f 471c 	mov.w	r7, ip, lsr #16
 8000e6e:	fbbe f1f7 	udiv	r1, lr, r7
 8000e72:	fa1f f58c 	uxth.w	r5, ip
 8000e76:	fb07 ee11 	mls	lr, r7, r1, lr
 8000e7a:	fb01 f005 	mul.w	r0, r1, r5
 8000e7e:	0c22      	lsrs	r2, r4, #16
 8000e80:	ea42 420e 	orr.w	r2, r2, lr, lsl #16
 8000e84:	4290      	cmp	r0, r2
 8000e86:	d90a      	bls.n	8000e9e <__udivmoddi4+0x66>
 8000e88:	eb1c 0202 	adds.w	r2, ip, r2
 8000e8c:	f101 3eff 	add.w	lr, r1, #4294967295	; 0xffffffff
 8000e90:	f080 8119 	bcs.w	80010c6 <__udivmoddi4+0x28e>
 8000e94:	4290      	cmp	r0, r2
 8000e96:	f240 8116 	bls.w	80010c6 <__udivmoddi4+0x28e>
 8000e9a:	3902      	subs	r1, #2
 8000e9c:	4462      	add	r2, ip
 8000e9e:	1a12      	subs	r2, r2, r0
 8000ea0:	fbb2 f0f7 	udiv	r0, r2, r7
 8000ea4:	fb07 2210 	mls	r2, r7, r0, r2
 8000ea8:	fb00 f505 	mul.w	r5, r0, r5
 8000eac:	b2a4      	uxth	r4, r4
 8000eae:	ea44 4402 	orr.w	r4, r4, r2, lsl #16
 8000eb2:	42a5      	cmp	r5, r4
 8000eb4:	d90a      	bls.n	8000ecc <__udivmoddi4+0x94>
 8000eb6:	eb1c 0404 	adds.w	r4, ip, r4
 8000eba:	f100 32ff 	add.w	r2, r0, #4294967295	; 0xffffffff
 8000ebe:	f080 8104 	bcs.w	80010ca <__udivmoddi4+0x292>
 8000ec2:	42a5      	cmp	r5, r4
 8000ec4:	f240 8101 	bls.w	80010ca <__udivmoddi4+0x292>
 8000ec8:	4464      	add	r4, ip
 8000eca:	3802      	subs	r0, #2
 8000ecc:	ea40 4001 	orr.w	r0, r0, r1, lsl #16
 8000ed0:	2100      	movs	r1, #0
 8000ed2:	1b64      	subs	r4, r4, r5
 8000ed4:	b11e      	cbz	r6, 8000ede <__udivmoddi4+0xa6>
 8000ed6:	40dc      	lsrs	r4, r3
 8000ed8:	2300      	movs	r3, #0
 8000eda:	e9c6 4300 	strd	r4, r3, [r6]
 8000ede:	e8bd 87f0 	ldmia.w	sp!, {r4, r5, r6, r7, r8, r9, sl, pc}
 8000ee2:	428b      	cmp	r3, r1
 8000ee4:	d908      	bls.n	8000ef8 <__udivmoddi4+0xc0>
 8000ee6:	2e00      	cmp	r6, #0
 8000ee8:	f000 80ea 	beq.w	80010c0 <__udivmoddi4+0x288>
 8000eec:	2100      	movs	r1, #0
 8000eee:	e9c6 0500 	strd	r0, r5, [r6]
 8000ef2:	4608      	mov	r0, r1
 8000ef4:	e8bd 87f0 	ldmia.w	sp!, {r4, r5, r6, r7, r8, r9, sl, pc}
 8000ef8:	fab3 f183 	clz	r1, r3
 8000efc:	2900      	cmp	r1, #0
 8000efe:	d148      	bne.n	8000f92 <__udivmoddi4+0x15a>
 8000f00:	42ab      	cmp	r3, r5
 8000f02:	d302      	bcc.n	8000f0a <__udivmoddi4+0xd2>
 8000f04:	4282      	cmp	r2, r0
 8000f06:	f200 80f8 	bhi.w	80010fa <__udivmoddi4+0x2c2>
 8000f0a:	1a84      	subs	r4, r0, r2
 8000f0c:	eb65 0203 	sbc.w	r2, r5, r3
 8000f10:	2001      	movs	r0, #1
 8000f12:	4696      	mov	lr, r2
 8000f14:	2e00      	cmp	r6, #0
 8000f16:	d0e2      	beq.n	8000ede <__udivmoddi4+0xa6>
 8000f18:	e9c6 4e00 	strd	r4, lr, [r6]
 8000f1c:	e7df      	b.n	8000ede <__udivmoddi4+0xa6>
 8000f1e:	b902      	cbnz	r2, 8000f22 <__udivmoddi4+0xea>
 8000f20:	deff      	udf	#255	; 0xff
 8000f22:	fab2 f382 	clz	r3, r2
 8000f26:	2b00      	cmp	r3, #0
 8000f28:	f040 808e 	bne.w	8001048 <__udivmoddi4+0x210>
 8000f2c:	1a88      	subs	r0, r1, r2
 8000f2e:	2101      	movs	r1, #1
 8000f30:	0c17      	lsrs	r7, r2, #16
 8000f32:	fa1f fe82 	uxth.w	lr, r2
 8000f36:	fbb0 f5f7 	udiv	r5, r0, r7
 8000f3a:	fb07 0015 	mls	r0, r7, r5, r0
 8000f3e:	0c22      	lsrs	r2, r4, #16
 8000f40:	ea42 4200 	orr.w	r2, r2, r0, lsl #16
 8000f44:	fb0e f005 	mul.w	r0, lr, r5
 8000f48:	4290      	cmp	r0, r2
 8000f4a:	d908      	bls.n	8000f5e <__udivmoddi4+0x126>
 8000f4c:	eb1c 0202 	adds.w	r2, ip, r2
 8000f50:	f105 38ff 	add.w	r8, r5, #4294967295	; 0xffffffff
 8000f54:	d202      	bcs.n	8000f5c <__udivmoddi4+0x124>
 8000f56:	4290      	cmp	r0, r2
 8000f58:	f200 80cc 	bhi.w	80010f4 <__udivmoddi4+0x2bc>
 8000f5c:	4645      	mov	r5, r8
 8000f5e:	1a12      	subs	r2, r2, r0
 8000f60:	fbb2 f0f7 	udiv	r0, r2, r7
 8000f64:	fb07 2210 	mls	r2, r7, r0, r2
 8000f68:	fb0e fe00 	mul.w	lr, lr, r0
 8000f6c:	b2a4      	uxth	r4, r4
 8000f6e:	ea44 4402 	orr.w	r4, r4, r2, lsl #16
 8000f72:	45a6      	cmp	lr, r4
 8000f74:	d908      	bls.n	8000f88 <__udivmoddi4+0x150>
 8000f76:	eb1c 0404 	adds.w	r4, ip, r4
 8000f7a:	f100 32ff 	add.w	r2, r0, #4294967295	; 0xffffffff
 8000f7e:	d202      	bcs.n	8000f86 <__udivmoddi4+0x14e>
 8000f80:	45a6      	cmp	lr, r4
 8000f82:	f200 80b4 	bhi.w	80010ee <__udivmoddi4+0x2b6>
 8000f86:	4610      	mov	r0, r2
 8000f88:	eba4 040e 	sub.w	r4, r4, lr
 8000f8c:	ea40 4005 	orr.w	r0, r0, r5, lsl #16
 8000f90:	e7a0      	b.n	8000ed4 <__udivmoddi4+0x9c>
 8000f92:	f1c1 0720 	rsb	r7, r1, #32
 8000f96:	408b      	lsls	r3, r1
 8000f98:	fa22 fc07 	lsr.w	ip, r2, r7
 8000f9c:	ea4c 0c03 	orr.w	ip, ip, r3
 8000fa0:	fa25 fa07 	lsr.w	sl, r5, r7
 8000fa4:	ea4f 491c 	mov.w	r9, ip, lsr #16
 8000fa8:	fbba f8f9 	udiv	r8, sl, r9
 8000fac:	408d      	lsls	r5, r1
 8000fae:	fa20 f307 	lsr.w	r3, r0, r7
 8000fb2:	fb09 aa18 	mls	sl, r9, r8, sl
 8000fb6:	fa1f fe8c 	uxth.w	lr, ip
 8000fba:	432b      	orrs	r3, r5
 8000fbc:	fa00 f501 	lsl.w	r5, r0, r1
 8000fc0:	fb08 f00e 	mul.w	r0, r8, lr
 8000fc4:	0c1c      	lsrs	r4, r3, #16
 8000fc6:	ea44 440a 	orr.w	r4, r4, sl, lsl #16
 8000fca:	42a0      	cmp	r0, r4
 8000fcc:	fa02 f201 	lsl.w	r2, r2, r1
 8000fd0:	d90b      	bls.n	8000fea <__udivmoddi4+0x1b2>
 8000fd2:	eb1c 0404 	adds.w	r4, ip, r4
 8000fd6:	f108 3aff 	add.w	sl, r8, #4294967295	; 0xffffffff
 8000fda:	f080 8086 	bcs.w	80010ea <__udivmoddi4+0x2b2>
 8000fde:	42a0      	cmp	r0, r4
 8000fe0:	f240 8083 	bls.w	80010ea <__udivmoddi4+0x2b2>
 8000fe4:	f1a8 0802 	sub.w	r8, r8, #2
 8000fe8:	4464      	add	r4, ip
 8000fea:	1a24      	subs	r4, r4, r0
 8000fec:	b298      	uxth	r0, r3
 8000fee:	fbb4 f3f9 	udiv	r3, r4, r9
 8000ff2:	fb09 4413 	mls	r4, r9, r3, r4
 8000ff6:	fb03 fe0e 	mul.w	lr, r3, lr
 8000ffa:	ea40 4404 	orr.w	r4, r0, r4, lsl #16
 8000ffe:	45a6      	cmp	lr, r4
 8001000:	d908      	bls.n	8001014 <__udivmoddi4+0x1dc>
 8001002:	eb1c 0404 	adds.w	r4, ip, r4
 8001006:	f103 30ff 	add.w	r0, r3, #4294967295	; 0xffffffff
 800100a:	d26a      	bcs.n	80010e2 <__udivmoddi4+0x2aa>
 800100c:	45a6      	cmp	lr, r4
 800100e:	d968      	bls.n	80010e2 <__udivmoddi4+0x2aa>
 8001010:	3b02      	subs	r3, #2
 8001012:	4464      	add	r4, ip
 8001014:	ea43 4008 	orr.w	r0, r3, r8, lsl #16
 8001018:	fba0 9302 	umull	r9, r3, r0, r2
 800101c:	eba4 040e 	sub.w	r4, r4, lr
 8001020:	429c      	cmp	r4, r3
 8001022:	46c8      	mov	r8, r9
 8001024:	469e      	mov	lr, r3
 8001026:	d354      	bcc.n	80010d2 <__udivmoddi4+0x29a>
 8001028:	d051      	beq.n	80010ce <__udivmoddi4+0x296>
 800102a:	2e00      	cmp	r6, #0
 800102c:	d067      	beq.n	80010fe <__udivmoddi4+0x2c6>
 800102e:	ebb5 0308 	subs.w	r3, r5, r8
 8001032:	eb64 040e 	sbc.w	r4, r4, lr
 8001036:	40cb      	lsrs	r3, r1
 8001038:	fa04 f707 	lsl.w	r7, r4, r7
 800103c:	431f      	orrs	r7, r3
 800103e:	40cc      	lsrs	r4, r1
 8001040:	e9c6 7400 	strd	r7, r4, [r6]
 8001044:	2100      	movs	r1, #0
 8001046:	e74a      	b.n	8000ede <__udivmoddi4+0xa6>
 8001048:	fa02 fc03 	lsl.w	ip, r2, r3
 800104c:	f1c3 0020 	rsb	r0, r3, #32
 8001050:	40c1      	lsrs	r1, r0
 8001052:	409d      	lsls	r5, r3
 8001054:	fa24 f000 	lsr.w	r0, r4, r0
 8001058:	ea4f 471c 	mov.w	r7, ip, lsr #16
 800105c:	4328      	orrs	r0, r5
 800105e:	fbb1 f5f7 	udiv	r5, r1, r7
 8001062:	fb07 1115 	mls	r1, r7, r5, r1
 8001066:	fa1f fe8c 	uxth.w	lr, ip
 800106a:	0c02      	lsrs	r2, r0, #16
 800106c:	ea42 4201 	orr.w	r2, r2, r1, lsl #16
 8001070:	fb05 f10e 	mul.w	r1, r5, lr
 8001074:	4291      	cmp	r1, r2
 8001076:	fa04 f403 	lsl.w	r4, r4, r3
 800107a:	d908      	bls.n	800108e <__udivmoddi4+0x256>
 800107c:	eb1c 0202 	adds.w	r2, ip, r2
 8001080:	f105 38ff 	add.w	r8, r5, #4294967295	; 0xffffffff
 8001084:	d22f      	bcs.n	80010e6 <__udivmoddi4+0x2ae>
 8001086:	4291      	cmp	r1, r2
 8001088:	d92d      	bls.n	80010e6 <__udivmoddi4+0x2ae>
 800108a:	3d02      	subs	r5, #2
 800108c:	4462      	add	r2, ip
 800108e:	1a52      	subs	r2, r2, r1
 8001090:	fbb2 f1f7 	udiv	r1, r2, r7
 8001094:	fb07 2211 	mls	r2, r7, r1, r2
 8001098:	b280      	uxth	r0, r0
 800109a:	ea40 4002 	orr.w	r0, r0, r2, lsl #16
 800109e:	fb01 f20e 	mul.w	r2, r1, lr
 80010a2:	4282      	cmp	r2, r0
 80010a4:	d908      	bls.n	80010b8 <__udivmoddi4+0x280>
 80010a6:	eb1c 0000 	adds.w	r0, ip, r0
 80010aa:	f101 38ff 	add.w	r8, r1, #4294967295	; 0xffffffff
 80010ae:	d216      	bcs.n	80010de <__udivmoddi4+0x2a6>
 80010b0:	4282      	cmp	r2, r0
 80010b2:	d914      	bls.n	80010de <__udivmoddi4+0x2a6>
 80010b4:	3902      	subs	r1, #2
 80010b6:	4460      	add	r0, ip
 80010b8:	1a80      	subs	r0, r0, r2
 80010ba:	ea41 4105 	orr.w	r1, r1, r5, lsl #16
 80010be:	e73a      	b.n	8000f36 <__udivmoddi4+0xfe>
 80010c0:	4631      	mov	r1, r6
 80010c2:	4630      	mov	r0, r6
 80010c4:	e70b      	b.n	8000ede <__udivmoddi4+0xa6>
 80010c6:	4671      	mov	r1, lr
 80010c8:	e6e9      	b.n	8000e9e <__udivmoddi4+0x66>
 80010ca:	4610      	mov	r0, r2
 80010cc:	e6fe      	b.n	8000ecc <__udivmoddi4+0x94>
 80010ce:	454d      	cmp	r5, r9
 80010d0:	d2ab      	bcs.n	800102a <__udivmoddi4+0x1f2>
 80010d2:	ebb9 0802 	subs.w	r8, r9, r2
 80010d6:	eb63 0e0c 	sbc.w	lr, r3, ip
 80010da:	3801      	subs	r0, #1
 80010dc:	e7a5      	b.n	800102a <__udivmoddi4+0x1f2>
 80010de:	4641      	mov	r1, r8
 80010e0:	e7ea      	b.n	80010b8 <__udivmoddi4+0x280>
 80010e2:	4603      	mov	r3, r0
 80010e4:	e796      	b.n	8001014 <__udivmoddi4+0x1dc>
 80010e6:	4645      	mov	r5, r8
 80010e8:	e7d1      	b.n	800108e <__udivmoddi4+0x256>
 80010ea:	46d0      	mov	r8, sl
 80010ec:	e77d      	b.n	8000fea <__udivmoddi4+0x1b2>
 80010ee:	4464      	add	r4, ip
 80010f0:	3802      	subs	r0, #2
 80010f2:	e749      	b.n	8000f88 <__udivmoddi4+0x150>
 80010f4:	3d02      	subs	r5, #2
 80010f6:	4462      	add	r2, ip
 80010f8:	e731      	b.n	8000f5e <__udivmoddi4+0x126>
 80010fa:	4608      	mov	r0, r1
 80010fc:	e70a      	b.n	8000f14 <__udivmoddi4+0xdc>
 80010fe:	4631      	mov	r1, r6
 8001100:	e6ed      	b.n	8000ede <__udivmoddi4+0xa6>
 8001102:	bf00      	nop

08001104 <__aeabi_idiv0>:
 8001104:	4770      	bx	lr
 8001106:	bf00      	nop

08001108 <writeValueFloat>:
void static writeValueInt(int16_t value, uint16_t x,uint16_t y){

	//Affichage
	ILI9341_printf(x, y, &Font_11x18, ILI9341_COLOR_BLACK,ILI9341_COLOR_WHITE, "%d",value);
}
void static writeValueFloat(float value, uint16_t x,uint16_t y){
 8001108:	b530      	push	{r4, r5, lr}
 800110a:	b085      	sub	sp, #20

	//Affichage
	ILI9341_printf(x, y, &Font_11x18, ILI9341_COLOR_BLACK,ILI9341_COLOR_WHITE, "%0.2f",value);
 800110c:	b215      	sxth	r5, r2
 800110e:	b20c      	sxth	r4, r1
 8001110:	f7ff f99c 	bl	800044c <__aeabi_f2d>
 8001114:	e9cd 0102 	strd	r0, r1, [sp, #8]
 8001118:	4b06      	ldr	r3, [pc, #24]	; (8001134 <writeValueFloat+0x2c>)
 800111a:	9301      	str	r3, [sp, #4]
 800111c:	f04f 33ff 	mov.w	r3, #4294967295	; 0xffffffff
 8001120:	9300      	str	r3, [sp, #0]
 8001122:	2300      	movs	r3, #0
 8001124:	4a04      	ldr	r2, [pc, #16]	; (8001138 <writeValueFloat+0x30>)
 8001126:	4629      	mov	r1, r5
 8001128:	4620      	mov	r0, r4
 800112a:	f002 f80b 	bl	8003144 <ILI9341_printf>
}
 800112e:	b005      	add	sp, #20
 8001130:	bd30      	pop	{r4, r5, pc}
 8001132:	bf00      	nop
 8001134:	0800ae50 	.word	0x0800ae50
 8001138:	20000014 	.word	0x20000014

0800113c <initTemplate>:
void initTemplate(void){
 800113c:	b5f0      	push	{r4, r5, r6, r7, lr}
 800113e:	b083      	sub	sp, #12
	ILI9341_Init();
 8001140:	f001 fe3a 	bl	8002db8 <ILI9341_Init>
	ILI9341_Rotate(ILI9341_Orientation_Landscape_2);
 8001144:	2003      	movs	r0, #3
 8001146:	f001 fe07 	bl	8002d58 <ILI9341_Rotate>
	ILI9341_Fill(0xC618);
 800114a:	f24c 6018 	movw	r0, #50712	; 0xc618
 800114e:	f001 fdf1 	bl	8002d34 <ILI9341_Fill>
	ILI9341_DrawFilledRectangle(20,220,170,140,ILI9341_COLOR_WHITE);
 8001152:	f64f 74ff 	movw	r4, #65535	; 0xffff
 8001156:	9400      	str	r4, [sp, #0]
 8001158:	238c      	movs	r3, #140	; 0x8c
 800115a:	22aa      	movs	r2, #170	; 0xaa
 800115c:	21dc      	movs	r1, #220	; 0xdc
 800115e:	2014      	movs	r0, #20
 8001160:	f001 ffce 	bl	8003100 <ILI9341_DrawFilledRectangle>
	ILI9341_DrawRectangle(20,220,170,140,ILI9341_COLOR_BLACK);
 8001164:	2500      	movs	r5, #0
 8001166:	9500      	str	r5, [sp, #0]
 8001168:	238c      	movs	r3, #140	; 0x8c
 800116a:	22aa      	movs	r2, #170	; 0xaa
 800116c:	21dc      	movs	r1, #220	; 0xdc
 800116e:	2014      	movs	r0, #20
 8001170:	f001 ff9d 	bl	80030ae <ILI9341_DrawRectangle>
	ILI9341_DrawFilledRectangle(20,20,170,120,ILI9341_COLOR_WHITE);
 8001174:	9400      	str	r4, [sp, #0]
 8001176:	2378      	movs	r3, #120	; 0x78
 8001178:	22aa      	movs	r2, #170	; 0xaa
 800117a:	2114      	movs	r1, #20
 800117c:	4608      	mov	r0, r1
 800117e:	f001 ffbf 	bl	8003100 <ILI9341_DrawFilledRectangle>
	ILI9341_DrawRectangle(20,20,170,120,ILI9341_COLOR_GREEN);
 8001182:	f44f 66fc 	mov.w	r6, #2016	; 0x7e0
 8001186:	9600      	str	r6, [sp, #0]
 8001188:	2378      	movs	r3, #120	; 0x78
 800118a:	22aa      	movs	r2, #170	; 0xaa
 800118c:	2114      	movs	r1, #20
 800118e:	4608      	mov	r0, r1
 8001190:	f001 ff8d 	bl	80030ae <ILI9341_DrawRectangle>
	ILI9341_DrawFilledRectangle(190,20,260,60,ILI9341_COLOR_WHITE);
 8001194:	9400      	str	r4, [sp, #0]
 8001196:	233c      	movs	r3, #60	; 0x3c
 8001198:	f44f 7282 	mov.w	r2, #260	; 0x104
 800119c:	2114      	movs	r1, #20
 800119e:	20be      	movs	r0, #190	; 0xbe
 80011a0:	f001 ffae 	bl	8003100 <ILI9341_DrawFilledRectangle>
	ILI9341_DrawRectangle(190,20,260,60,ILI9341_COLOR_BLACK);
 80011a4:	9500      	str	r5, [sp, #0]
 80011a6:	233c      	movs	r3, #60	; 0x3c
 80011a8:	f44f 7282 	mov.w	r2, #260	; 0x104
 80011ac:	2114      	movs	r1, #20
 80011ae:	20be      	movs	r0, #190	; 0xbe
 80011b0:	f001 ff7d 	bl	80030ae <ILI9341_DrawRectangle>
	ILI9341_Puts(235,25, "BPM", &Font_7x10, ILI9341_COLOR_RED,ILI9341_COLOR_WHITE);
 80011b4:	4f35      	ldr	r7, [pc, #212]	; (800128c <initTemplate+0x150>)
 80011b6:	9401      	str	r4, [sp, #4]
 80011b8:	f44f 4378 	mov.w	r3, #63488	; 0xf800
 80011bc:	9300      	str	r3, [sp, #0]
 80011be:	463b      	mov	r3, r7
 80011c0:	4a33      	ldr	r2, [pc, #204]	; (8001290 <initTemplate+0x154>)
 80011c2:	2119      	movs	r1, #25
 80011c4:	20eb      	movs	r0, #235	; 0xeb
 80011c6:	f001 fe9d 	bl	8002f04 <ILI9341_Puts>
	ILI9341_DrawFilledRectangle(270,20,300,50,ILI9341_COLOR_GREEN);
 80011ca:	9600      	str	r6, [sp, #0]
 80011cc:	2332      	movs	r3, #50	; 0x32
 80011ce:	f44f 7296 	mov.w	r2, #300	; 0x12c
 80011d2:	2114      	movs	r1, #20
 80011d4:	f44f 7087 	mov.w	r0, #270	; 0x10e
 80011d8:	f001 ff92 	bl	8003100 <ILI9341_DrawFilledRectangle>
	ILI9341_DrawRectangle(270,20,300,50,ILI9341_COLOR_BLACK);
 80011dc:	9500      	str	r5, [sp, #0]
 80011de:	2332      	movs	r3, #50	; 0x32
 80011e0:	f44f 7296 	mov.w	r2, #300	; 0x12c
 80011e4:	2114      	movs	r1, #20
 80011e6:	f44f 7087 	mov.w	r0, #270	; 0x10e
 80011ea:	f001 ff60 	bl	80030ae <ILI9341_DrawRectangle>
	ILI9341_DrawFilledRectangle(190,80,300,110,ILI9341_COLOR_WHITE);
 80011ee:	9400      	str	r4, [sp, #0]
 80011f0:	236e      	movs	r3, #110	; 0x6e
 80011f2:	f44f 7296 	mov.w	r2, #300	; 0x12c
 80011f6:	2150      	movs	r1, #80	; 0x50
 80011f8:	20be      	movs	r0, #190	; 0xbe
 80011fa:	f001 ff81 	bl	8003100 <ILI9341_DrawFilledRectangle>
	ILI9341_DrawRectangle(190,80,300,110,ILI9341_COLOR_BLACK);
 80011fe:	9500      	str	r5, [sp, #0]
 8001200:	236e      	movs	r3, #110	; 0x6e
 8001202:	f44f 7296 	mov.w	r2, #300	; 0x12c
 8001206:	2150      	movs	r1, #80	; 0x50
 8001208:	20be      	movs	r0, #190	; 0xbe
 800120a:	f001 ff50 	bl	80030ae <ILI9341_DrawRectangle>
	ILI9341_Puts(285,87, "C", &Font_11x18, ILI9341_COLOR_BLACK,ILI9341_COLOR_WHITE);
 800120e:	4e21      	ldr	r6, [pc, #132]	; (8001294 <initTemplate+0x158>)
 8001210:	9401      	str	r4, [sp, #4]
 8001212:	9500      	str	r5, [sp, #0]
 8001214:	4633      	mov	r3, r6
 8001216:	4a20      	ldr	r2, [pc, #128]	; (8001298 <initTemplate+0x15c>)
 8001218:	2157      	movs	r1, #87	; 0x57
 800121a:	f240 101d 	movw	r0, #285	; 0x11d
 800121e:	f001 fe71 	bl	8002f04 <ILI9341_Puts>
	ILI9341_DrawFilledRectangle(190,130,300,160,ILI9341_COLOR_WHITE);
 8001222:	9400      	str	r4, [sp, #0]
 8001224:	23a0      	movs	r3, #160	; 0xa0
 8001226:	f44f 7296 	mov.w	r2, #300	; 0x12c
 800122a:	2182      	movs	r1, #130	; 0x82
 800122c:	20be      	movs	r0, #190	; 0xbe
 800122e:	f001 ff67 	bl	8003100 <ILI9341_DrawFilledRectangle>
	ILI9341_DrawRectangle(190,130,300,160,ILI9341_COLOR_BLACK);
 8001232:	9500      	str	r5, [sp, #0]
 8001234:	23a0      	movs	r3, #160	; 0xa0
 8001236:	f44f 7296 	mov.w	r2, #300	; 0x12c
 800123a:	2182      	movs	r1, #130	; 0x82
 800123c:	20be      	movs	r0, #190	; 0xbe
 800123e:	f001 ff36 	bl	80030ae <ILI9341_DrawRectangle>
	ILI9341_Puts(270,142, "km/h", &Font_7x10, ILI9341_COLOR_BLACK,ILI9341_COLOR_WHITE);
 8001242:	9401      	str	r4, [sp, #4]
 8001244:	9500      	str	r5, [sp, #0]
 8001246:	463b      	mov	r3, r7
 8001248:	4a14      	ldr	r2, [pc, #80]	; (800129c <initTemplate+0x160>)
 800124a:	218e      	movs	r1, #142	; 0x8e
 800124c:	f44f 7087 	mov.w	r0, #270	; 0x10e
 8001250:	f001 fe58 	bl	8002f04 <ILI9341_Puts>
	ILI9341_DrawFilledRectangle(190,180,300,220,ILI9341_COLOR_WHITE);
 8001254:	9400      	str	r4, [sp, #0]
 8001256:	23dc      	movs	r3, #220	; 0xdc
 8001258:	f44f 7296 	mov.w	r2, #300	; 0x12c
 800125c:	21b4      	movs	r1, #180	; 0xb4
 800125e:	20be      	movs	r0, #190	; 0xbe
 8001260:	f001 ff4e 	bl	8003100 <ILI9341_DrawFilledRectangle>
	ILI9341_DrawRectangle(190,180,300,220,ILI9341_COLOR_BLACK);
 8001264:	9500      	str	r5, [sp, #0]
 8001266:	23dc      	movs	r3, #220	; 0xdc
 8001268:	f44f 7296 	mov.w	r2, #300	; 0x12c
 800126c:	21b4      	movs	r1, #180	; 0xb4
 800126e:	20be      	movs	r0, #190	; 0xbe
 8001270:	f001 ff1d 	bl	80030ae <ILI9341_DrawRectangle>
	ILI9341_Puts(270,190, "km", &Font_11x18, ILI9341_COLOR_BLACK,ILI9341_COLOR_WHITE);
 8001274:	9401      	str	r4, [sp, #4]
 8001276:	9500      	str	r5, [sp, #0]
 8001278:	4633      	mov	r3, r6
 800127a:	4a09      	ldr	r2, [pc, #36]	; (80012a0 <initTemplate+0x164>)
 800127c:	21be      	movs	r1, #190	; 0xbe
 800127e:	f44f 7087 	mov.w	r0, #270	; 0x10e
 8001282:	f001 fe3f 	bl	8002f04 <ILI9341_Puts>
}
 8001286:	b003      	add	sp, #12
 8001288:	bdf0      	pop	{r4, r5, r6, r7, pc}
 800128a:	bf00      	nop
 800128c:	20000020 	.word	0x20000020
 8001290:	0800ae58 	.word	0x0800ae58
 8001294:	20000014 	.word	0x20000014
 8001298:	0800ae5c 	.word	0x0800ae5c
 800129c:	0800ae60 	.word	0x0800ae60
 80012a0:	0800ae68 	.word	0x0800ae68

080012a4 <writeTemp>:

void writeTemp(float value){
 80012a4:	b508      	push	{r3, lr}
	writeValueFloat(value,211,87);
 80012a6:	2257      	movs	r2, #87	; 0x57
 80012a8:	21d3      	movs	r1, #211	; 0xd3
 80012aa:	f7ff ff2d 	bl	8001108 <writeValueFloat>
}
 80012ae:	bd08      	pop	{r3, pc}

080012b0 <initBuffer>:
	writeValueInt(value,200,37);
}

//Partie graphe
void initBuffer(int16_t *tableau,int taille){
	for(int i = 0; i < taille; i++){
 80012b0:	2300      	movs	r3, #0
 80012b2:	e004      	b.n	80012be <initBuffer+0xe>
		tableau[i] = -1;
 80012b4:	f64f 72ff 	movw	r2, #65535	; 0xffff
 80012b8:	f820 2013 	strh.w	r2, [r0, r3, lsl #1]
	for(int i = 0; i < taille; i++){
 80012bc:	3301      	adds	r3, #1
 80012be:	428b      	cmp	r3, r1
 80012c0:	dbf8      	blt.n	80012b4 <initBuffer+0x4>
	}
}
 80012c2:	4770      	bx	lr

080012c4 <printCardioGraphe>:
    	printCardioGraphe(tableau,taille);
    	i=0;
    }
}

void printCardioGraphe(int16_t *tableau, int taille){
 80012c4:	b5f0      	push	{r4, r5, r6, r7, lr}
 80012c6:	b083      	sub	sp, #12
 80012c8:	4606      	mov	r6, r0
 80012ca:	460d      	mov	r5, r1
	ILI9341_DrawFilledRectangle(21,21,169,119,ILI9341_COLOR_WHITE);
 80012cc:	f64f 73ff 	movw	r3, #65535	; 0xffff
 80012d0:	9300      	str	r3, [sp, #0]
 80012d2:	2377      	movs	r3, #119	; 0x77
 80012d4:	22a9      	movs	r2, #169	; 0xa9
 80012d6:	2115      	movs	r1, #21
 80012d8:	4608      	mov	r0, r1
 80012da:	f001 ff11 	bl	8003100 <ILI9341_DrawFilledRectangle>
	uint16_t static yPrec = 119;
	uint16_t static y = 119;

	for(uint16_t i = 1; i < taille; i+=2){
 80012de:	2401      	movs	r4, #1
 80012e0:	e007      	b.n	80012f2 <printCardioGraphe+0x2e>
		uint16_t x = 20+i;
		yPrec = y;

		uint16_t calibrageValeur = (uint16_t)(tableau[i]*100/(MAX_Plage-MIN_Plage))-1;
		y = 119-calibrageValeur;
		if(tableau[i]!=-1) ILI9341_DrawLine((x==1)?0:x-2, yPrec, x, y, ILI9341_COLOR_RED);//ILI9341_DrawPixel(x,y,ILI9341_COLOR_RED);
 80012e2:	2000      	movs	r0, #0
 80012e4:	f44f 4778 	mov.w	r7, #63488	; 0xf800
 80012e8:	9700      	str	r7, [sp, #0]
 80012ea:	f001 fe5b 	bl	8002fa4 <ILI9341_DrawLine>
	for(uint16_t i = 1; i < taille; i+=2){
 80012ee:	3402      	adds	r4, #2
 80012f0:	b2a4      	uxth	r4, r4
 80012f2:	42ac      	cmp	r4, r5
 80012f4:	da27      	bge.n	8001346 <printCardioGraphe+0x82>
		uint16_t x = 20+i;
 80012f6:	f104 0214 	add.w	r2, r4, #20
 80012fa:	b292      	uxth	r2, r2
		yPrec = y;
 80012fc:	4f13      	ldr	r7, [pc, #76]	; (800134c <printCardioGraphe+0x88>)
 80012fe:	8839      	ldrh	r1, [r7, #0]
 8001300:	4b13      	ldr	r3, [pc, #76]	; (8001350 <printCardioGraphe+0x8c>)
 8001302:	8019      	strh	r1, [r3, #0]
		uint16_t calibrageValeur = (uint16_t)(tableau[i]*100/(MAX_Plage-MIN_Plage))-1;
 8001304:	f936 0014 	ldrsh.w	r0, [r6, r4, lsl #1]
 8001308:	2364      	movs	r3, #100	; 0x64
 800130a:	fb00 f303 	mul.w	r3, r0, r3
 800130e:	f8df c044 	ldr.w	ip, [pc, #68]	; 8001354 <printCardioGraphe+0x90>
 8001312:	f8bc c000 	ldrh.w	ip, [ip]
 8001316:	f8df e040 	ldr.w	lr, [pc, #64]	; 8001358 <printCardioGraphe+0x94>
 800131a:	f8be e000 	ldrh.w	lr, [lr]
 800131e:	ebac 0c0e 	sub.w	ip, ip, lr
 8001322:	fb93 f3fc 	sdiv	r3, r3, ip
 8001326:	b29b      	uxth	r3, r3
 8001328:	3b01      	subs	r3, #1
 800132a:	b29b      	uxth	r3, r3
		y = 119-calibrageValeur;
 800132c:	f1c3 0377 	rsb	r3, r3, #119	; 0x77
 8001330:	b29b      	uxth	r3, r3
 8001332:	803b      	strh	r3, [r7, #0]
		if(tableau[i]!=-1) ILI9341_DrawLine((x==1)?0:x-2, yPrec, x, y, ILI9341_COLOR_RED);//ILI9341_DrawPixel(x,y,ILI9341_COLOR_RED);
 8001334:	f1b0 3fff 	cmp.w	r0, #4294967295	; 0xffffffff
 8001338:	d0d9      	beq.n	80012ee <printCardioGraphe+0x2a>
 800133a:	2a01      	cmp	r2, #1
 800133c:	d0d1      	beq.n	80012e2 <printCardioGraphe+0x1e>
 800133e:	f104 0012 	add.w	r0, r4, #18
 8001342:	b280      	uxth	r0, r0
 8001344:	e7ce      	b.n	80012e4 <printCardioGraphe+0x20>
	}
	//ILI9341_DrawRectangle(20,20,170,120,ILI9341_COLOR_GREEN);
}
 8001346:	b003      	add	sp, #12
 8001348:	bdf0      	pop	{r4, r5, r6, r7, pc}
 800134a:	bf00      	nop
 800134c:	20000004 	.word	0x20000004
 8001350:	20000708 	.word	0x20000708
 8001354:	20000000 	.word	0x20000000
 8001358:	20000002 	.word	0x20000002

0800135c <addValue>:
void addValue(int16_t *tableau,int taille,adc_id_e channel){
 800135c:	b570      	push	{r4, r5, r6, lr}
 800135e:	4605      	mov	r5, r0
 8001360:	460e      	mov	r6, r1
	int16_t newValue = getCardio(channel);
 8001362:	4610      	mov	r0, r2
 8001364:	f000 f82a 	bl	80013bc <getCardio>
 8001368:	b202      	sxth	r2, r0
	if(newValue < MIN_Plage){
 800136a:	4b11      	ldr	r3, [pc, #68]	; (80013b0 <addValue+0x54>)
 800136c:	881b      	ldrh	r3, [r3, #0]
 800136e:	429a      	cmp	r2, r3
 8001370:	db09      	blt.n	8001386 <addValue+0x2a>
	}else if(newValue > MAX_Plage){
 8001372:	4910      	ldr	r1, [pc, #64]	; (80013b4 <addValue+0x58>)
 8001374:	8809      	ldrh	r1, [r1, #0]
 8001376:	428a      	cmp	r2, r1
 8001378:	dd02      	ble.n	8001380 <addValue+0x24>
		newValue=MAX_Plage-MIN_Plage;
 800137a:	1ac9      	subs	r1, r1, r3
 800137c:	b20c      	sxth	r4, r1
 800137e:	e003      	b.n	8001388 <addValue+0x2c>
		newValue-=MIN_Plage;
 8001380:	1ac4      	subs	r4, r0, r3
 8001382:	b224      	sxth	r4, r4
 8001384:	e000      	b.n	8001388 <addValue+0x2c>
		newValue=0;
 8001386:	2400      	movs	r4, #0
	Delay_ms(10);
 8001388:	200a      	movs	r0, #10
 800138a:	f000 fb48 	bl	8001a1e <Delay_ms>
    	tableau[i] = newValue;
 800138e:	4a0a      	ldr	r2, [pc, #40]	; (80013b8 <addValue+0x5c>)
 8001390:	6813      	ldr	r3, [r2, #0]
 8001392:	f825 4013 	strh.w	r4, [r5, r3, lsl #1]
    	i++;
 8001396:	3301      	adds	r3, #1
 8001398:	6013      	str	r3, [r2, #0]
    if(i==taille) {
 800139a:	42b3      	cmp	r3, r6
 800139c:	d000      	beq.n	80013a0 <addValue+0x44>
}
 800139e:	bd70      	pop	{r4, r5, r6, pc}
    	printCardioGraphe(tableau,taille);
 80013a0:	4631      	mov	r1, r6
 80013a2:	4628      	mov	r0, r5
 80013a4:	f7ff ff8e 	bl	80012c4 <printCardioGraphe>
    	i=0;
 80013a8:	4b03      	ldr	r3, [pc, #12]	; (80013b8 <addValue+0x5c>)
 80013aa:	2200      	movs	r2, #0
 80013ac:	601a      	str	r2, [r3, #0]
}
 80013ae:	e7f6      	b.n	800139e <addValue+0x42>
 80013b0:	20000002 	.word	0x20000002
 80013b4:	20000000 	.word	0x20000000
 80013b8:	20000704 	.word	0x20000704

080013bc <getCardio>:
//else,
//			writeLED(1);
	}
}

int16_t getCardio(adc_id_e channel){
 80013bc:	b508      	push	{r3, lr}
	int16_t value = ADC_getValue(channel);
 80013be:	f000 f973 	bl	80016a8 <ADC_getValue>

	return value;
}
 80013c2:	bd08      	pop	{r3, pc}

080013c4 <Cardio_init>:



void Cardio_init(void)
{
 80013c4:	b510      	push	{r4, lr}
 80013c6:	b082      	sub	sp, #8
	//Initialisation du port du capteur cardiaque en sortie Push-Pull
	BSP_GPIO_PinCfg(CAR_GPIO, CAR_PIN, GPIO_MODE_OUTPUT_PP,GPIO_NOPULL,GPIO_SPEED_FREQ_HIGH);
 80013c8:	4c07      	ldr	r4, [pc, #28]	; (80013e8 <Cardio_init+0x24>)
 80013ca:	2303      	movs	r3, #3
 80013cc:	9300      	str	r3, [sp, #0]
 80013ce:	2300      	movs	r3, #0
 80013d0:	2201      	movs	r2, #1
 80013d2:	4611      	mov	r1, r2
 80013d4:	4620      	mov	r0, r4
 80013d6:	f000 f9d9 	bl	800178c <BSP_GPIO_PinCfg>
	HAL_GPIO_WritePin(CAR_GPIO, CAR_PIN, GPIO_PIN_SET);
 80013da:	2201      	movs	r2, #1
 80013dc:	4611      	mov	r1, r2
 80013de:	4620      	mov	r0, r4
 80013e0:	f002 fc82 	bl	8003ce8 <HAL_GPIO_WritePin>
}
 80013e4:	b002      	add	sp, #8
 80013e6:	bd10      	pop	{r4, pc}
 80013e8:	40010800 	.word	0x40010800

080013ec <main>:
{
 80013ec:	b510      	push	{r4, lr}
 80013ee:	b082      	sub	sp, #8
	HAL_Init();
 80013f0:	f001 feea 	bl	80031c8 <HAL_Init>
	ADC_init();
 80013f4:	f000 f8da 	bl	80015ac <ADC_init>
	UART_init(UART2_ID,115200);
 80013f8:	f44f 31e1 	mov.w	r1, #115200	; 0x1c200
 80013fc:	2001      	movs	r0, #1
 80013fe:	f000 fe39 	bl	8002074 <UART_init>
	SYS_set_std_usart(UART2_ID, UART2_ID, UART2_ID);
 8001402:	2201      	movs	r2, #1
 8001404:	4611      	mov	r1, r2
 8001406:	4610      	mov	r0, r2
 8001408:	f000 fb9c 	bl	8001b44 <SYS_set_std_usart>
	BSP_GPIO_PinCfg(LED_GREEN_GPIO, LED_GREEN_PIN, GPIO_MODE_OUTPUT_PP,GPIO_NOPULL,GPIO_SPEED_FREQ_HIGH);
 800140c:	2403      	movs	r4, #3
 800140e:	9400      	str	r4, [sp, #0]
 8001410:	2300      	movs	r3, #0
 8001412:	2201      	movs	r2, #1
 8001414:	2120      	movs	r1, #32
 8001416:	481e      	ldr	r0, [pc, #120]	; (8001490 <main+0xa4>)
 8001418:	f000 f9b8 	bl	800178c <BSP_GPIO_PinCfg>
	BSP_GPIO_PinCfg(BLUE_BUTTON_GPIO, BLUE_BUTTON_PIN, GPIO_MODE_INPUT,GPIO_PULLUP,GPIO_SPEED_FREQ_HIGH);
 800141c:	9400      	str	r4, [sp, #0]
 800141e:	2301      	movs	r3, #1
 8001420:	2200      	movs	r2, #0
 8001422:	f44f 5100 	mov.w	r1, #8192	; 0x2000
 8001426:	481b      	ldr	r0, [pc, #108]	; (8001494 <main+0xa8>)
 8001428:	f000 f9b0 	bl	800178c <BSP_GPIO_PinCfg>
	initTemplate();
 800142c:	f7ff fe86 	bl	800113c <initTemplate>
	Cardio_init();
 8001430:	f7ff ffc8 	bl	80013c4 <Cardio_init>
	initBuffer(&cardiographe,TAILLE);
 8001434:	2196      	movs	r1, #150	; 0x96
 8001436:	4818      	ldr	r0, [pc, #96]	; (8001498 <main+0xac>)
 8001438:	f7ff ff3a 	bl	80012b0 <initBuffer>
	int Wait2=0;
 800143c:	2400      	movs	r4, #0
 800143e:	e014      	b.n	800146a <main+0x7e>
		if (updateGraphiqueCardiaque ==-1) updateGraphiqueCardiaque = HAL_GetTick();
 8001440:	f001 fee0 	bl	8003204 <HAL_GetTick>
 8001444:	4b15      	ldr	r3, [pc, #84]	; (800149c <main+0xb0>)
 8001446:	6018      	str	r0, [r3, #0]
 8001448:	e017      	b.n	800147a <main+0x8e>
			addValue(cardiographe,TAILLE,ADC_CAR);
 800144a:	2200      	movs	r2, #0
 800144c:	2196      	movs	r1, #150	; 0x96
 800144e:	4812      	ldr	r0, [pc, #72]	; (8001498 <main+0xac>)
 8001450:	f7ff ff84 	bl	800135c <addValue>
			updateGraphiqueCardiaque = HAL_GetTick();
 8001454:	f001 fed6 	bl	8003204 <HAL_GetTick>
 8001458:	4b10      	ldr	r3, [pc, #64]	; (800149c <main+0xb0>)
 800145a:	6018      	str	r0, [r3, #0]
 800145c:	e014      	b.n	8001488 <main+0x9c>
			writeTemp(getTemp(ADC_TEMP));
 800145e:	2001      	movs	r0, #1
 8001460:	f000 f81e 	bl	80014a0 <getTemp>
 8001464:	f7ff ff1e 	bl	80012a4 <writeTemp>
			Wait2 = 20;
 8001468:	2414      	movs	r4, #20
		uint16_t toto = getCardio(ADC_CAR);
 800146a:	2000      	movs	r0, #0
 800146c:	f7ff ffa6 	bl	80013bc <getCardio>
		if (updateGraphiqueCardiaque ==-1) updateGraphiqueCardiaque = HAL_GetTick();
 8001470:	4b0a      	ldr	r3, [pc, #40]	; (800149c <main+0xb0>)
 8001472:	681b      	ldr	r3, [r3, #0]
 8001474:	f1b3 3fff 	cmp.w	r3, #4294967295	; 0xffffffff
 8001478:	d0e2      	beq.n	8001440 <main+0x54>
		if (HAL_GetTick()>=updateGraphiqueCardiaque+10){
 800147a:	f001 fec3 	bl	8003204 <HAL_GetTick>
 800147e:	4b07      	ldr	r3, [pc, #28]	; (800149c <main+0xb0>)
 8001480:	681b      	ldr	r3, [r3, #0]
 8001482:	330a      	adds	r3, #10
 8001484:	4298      	cmp	r0, r3
 8001486:	d2e0      	bcs.n	800144a <main+0x5e>
		if(Wait2==0){
 8001488:	2c00      	cmp	r4, #0
 800148a:	d0e8      	beq.n	800145e <main+0x72>
			Wait2--;
 800148c:	3c01      	subs	r4, #1
 800148e:	e7ec      	b.n	800146a <main+0x7e>
 8001490:	40010800 	.word	0x40010800
 8001494:	40011000 	.word	0x40011000
 8001498:	2000070c 	.word	0x2000070c
 800149c:	20000008 	.word	0x20000008

080014a0 <getTemp>:
 *  Created on: Apr 26, 2024
 *      Author: vauraudren
 */
#include "mpc9701.h"

float getTemp(adc_id_e channel){
 80014a0:	b570      	push	{r4, r5, r6, lr}
 80014a2:	4606      	mov	r6, r0

	int valeurAnalogique = 0;

	//Phase d'chantillonage
	for (int i = 0; i < 20;i++){
 80014a4:	2400      	movs	r4, #0
	int valeurAnalogique = 0;
 80014a6:	4625      	mov	r5, r4
	for (int i = 0; i < 20;i++){
 80014a8:	e004      	b.n	80014b4 <getTemp+0x14>
		valeurAnalogique += ADC_getValue(channel);
 80014aa:	4630      	mov	r0, r6
 80014ac:	f000 f8fc 	bl	80016a8 <ADC_getValue>
 80014b0:	4405      	add	r5, r0
	for (int i = 0; i < 20;i++){
 80014b2:	3401      	adds	r4, #1
 80014b4:	2c13      	cmp	r4, #19
 80014b6:	ddf8      	ble.n	80014aa <getTemp+0xa>
	}

	float echantillonage = valeurAnalogique / 20;
 80014b8:	4815      	ldr	r0, [pc, #84]	; (8001510 <getTemp+0x70>)
 80014ba:	fb80 3005 	smull	r3, r0, r0, r5
 80014be:	17ed      	asrs	r5, r5, #31
 80014c0:	ebc5 00e0 	rsb	r0, r5, r0, asr #3
 80014c4:	f7ff fbfc 	bl	8000cc0 <__aeabi_i2f>


    // Convertir la valeur analogique en tension (en volts)
    float tension = echantillonage / 4095.0 * 3.3;
 80014c8:	f7fe ffc0 	bl	800044c <__aeabi_f2d>
 80014cc:	a30a      	add	r3, pc, #40	; (adr r3, 80014f8 <getTemp+0x58>)
 80014ce:	e9d3 2300 	ldrd	r2, r3, [r3]
 80014d2:	f7ff f93d 	bl	8000750 <__aeabi_ddiv>
 80014d6:	a30a      	add	r3, pc, #40	; (adr r3, 8001500 <getTemp+0x60>)
 80014d8:	e9d3 2300 	ldrd	r2, r3, [r3]
 80014dc:	f7ff f80e 	bl	80004fc <__aeabi_dmul>
 80014e0:	f7ff fae4 	bl	8000aac <__aeabi_d2f>

    // Convertir la tension en temprature en degrs Celsius (sensibilit de 19,5 mV/C)
    float temperature = (tension) * 19.53;
 80014e4:	f7fe ffb2 	bl	800044c <__aeabi_f2d>
 80014e8:	a307      	add	r3, pc, #28	; (adr r3, 8001508 <getTemp+0x68>)
 80014ea:	e9d3 2300 	ldrd	r2, r3, [r3]
 80014ee:	f7ff f805 	bl	80004fc <__aeabi_dmul>
 80014f2:	f7ff fadb 	bl	8000aac <__aeabi_d2f>

    return temperature;

}
 80014f6:	bd70      	pop	{r4, r5, r6, pc}
 80014f8:	00000000 	.word	0x00000000
 80014fc:	40affe00 	.word	0x40affe00
 8001500:	66666666 	.word	0x66666666
 8001504:	400a6666 	.word	0x400a6666
 8001508:	147ae148 	.word	0x147ae148
 800150c:	403387ae 	.word	0x403387ae
 8001510:	66666667 	.word	0x66666667

08001514 <PORTS_adc_init>:
 * @func	void PORTS_adc_init(void)
 * @post	A l'issue de l'excution de cette fonction, le tableau adc_id contient pour chaque canal son rang dans le tableau des valeurs mesures (adc_converted_value)
 * @post	Chaque canal non utilis comme analogique a un champ  -1 dans le tableau adc_id.
 */
static void PORTS_adc_init(void)
{
 8001514:	e92d 43f0 	stmdb	sp!, {r4, r5, r6, r7, r8, r9, lr}
 8001518:	b087      	sub	sp, #28
	uint8_t channel;
	ADC_ChannelConfTypeDef sConfig;

	// Initialisation du tableau des id des convertisseurs analogique numrique. Chaque canal non utilis verra sa case  -1.
	for(channel=0;channel<ADC_CHANNEL_NB;channel++)
 800151a:	2300      	movs	r3, #0
 800151c:	e004      	b.n	8001528 <PORTS_adc_init+0x14>
		adc_id[channel] = -1;
 800151e:	4a20      	ldr	r2, [pc, #128]	; (80015a0 <PORTS_adc_init+0x8c>)
 8001520:	21ff      	movs	r1, #255	; 0xff
 8001522:	54d1      	strb	r1, [r2, r3]
	for(channel=0;channel<ADC_CHANNEL_NB;channel++)
 8001524:	3301      	adds	r3, #1
 8001526:	b2db      	uxtb	r3, r3
 8001528:	2b12      	cmp	r3, #18
 800152a:	d9f8      	bls.n	800151e <PORTS_adc_init+0xa>

	sConfig.SamplingTime = ADC_SAMPLETIME_239CYCLES_5;
 800152c:	2307      	movs	r3, #7
 800152e:	9305      	str	r3, [sp, #20]
	sConfig.Rank = 0;
 8001530:	2400      	movs	r4, #0
 8001532:	9404      	str	r4, [sp, #16]

	#if	USE_AN0
		BSP_GPIO_PinCfg(GPIOA, GPIO_PIN_0, GPIO_MODE_ANALOG, GPIO_NOPULL, GPIO_SPEED_FREQ_HIGH);
 8001534:	f8df 906c 	ldr.w	r9, [pc, #108]	; 80015a4 <PORTS_adc_init+0x90>
 8001538:	2703      	movs	r7, #3
 800153a:	9700      	str	r7, [sp, #0]
 800153c:	4623      	mov	r3, r4
 800153e:	463a      	mov	r2, r7
 8001540:	2101      	movs	r1, #1
 8001542:	4648      	mov	r0, r9
 8001544:	f000 f922 	bl	800178c <BSP_GPIO_PinCfg>
		adc_id[ADC_0] = (int8_t)sConfig.Rank;
 8001548:	9b04      	ldr	r3, [sp, #16]
 800154a:	4e15      	ldr	r6, [pc, #84]	; (80015a0 <PORTS_adc_init+0x8c>)
 800154c:	7033      	strb	r3, [r6, #0]
		sConfig.Rank++;
 800154e:	3301      	adds	r3, #1
 8001550:	9304      	str	r3, [sp, #16]
		sConfig.Channel = ADC_CHANNEL_0;
 8001552:	9403      	str	r4, [sp, #12]
		HAL_ADC_ConfigChannel(&hadc,&sConfig);
 8001554:	4d14      	ldr	r5, [pc, #80]	; (80015a8 <PORTS_adc_init+0x94>)
 8001556:	a903      	add	r1, sp, #12
 8001558:	4628      	mov	r0, r5
 800155a:	f001 fead 	bl	80032b8 <HAL_ADC_ConfigChannel>
	#endif
	#if	USE_AN1
		BSP_GPIO_PinCfg(GPIOA, GPIO_PIN_1, GPIO_MODE_ANALOG, GPIO_NOPULL, GPIO_SPEED_FREQ_MEDIUM);
 800155e:	f04f 0801 	mov.w	r8, #1
 8001562:	f8cd 8000 	str.w	r8, [sp]
 8001566:	4623      	mov	r3, r4
 8001568:	463a      	mov	r2, r7
 800156a:	2102      	movs	r1, #2
 800156c:	4648      	mov	r0, r9
 800156e:	f000 f90d 	bl	800178c <BSP_GPIO_PinCfg>
		adc_id[ADC_1] = (int8_t)sConfig.Rank;
 8001572:	9b04      	ldr	r3, [sp, #16]
 8001574:	7073      	strb	r3, [r6, #1]
		sConfig.Rank++;
 8001576:	4443      	add	r3, r8
 8001578:	9304      	str	r3, [sp, #16]
		sConfig.Channel = ADC_CHANNEL_1;
 800157a:	f8cd 800c 	str.w	r8, [sp, #12]
		HAL_ADC_ConfigChannel(&hadc,&sConfig);
 800157e:	a903      	add	r1, sp, #12
 8001580:	4628      	mov	r0, r5
 8001582:	f001 fe99 	bl	80032b8 <HAL_ADC_ConfigChannel>
		sConfig.Rank++;
		sConfig.Channel = ADC_CHANNEL_16;
		HAL_ADC_ConfigChannel(&hadc,&sConfig);
	#endif
	#if	USE_AN17
		adc_id[ADC_17] = (int8_t)sConfig.Rank;
 8001586:	9b04      	ldr	r3, [sp, #16]
 8001588:	7473      	strb	r3, [r6, #17]
		sConfig.Rank++;
 800158a:	4443      	add	r3, r8
 800158c:	9304      	str	r3, [sp, #16]
		sConfig.Channel = ADC_CHANNEL_17;
 800158e:	2311      	movs	r3, #17
 8001590:	9303      	str	r3, [sp, #12]
		HAL_ADC_ConfigChannel(&hadc,&sConfig);
 8001592:	a903      	add	r1, sp, #12
 8001594:	4628      	mov	r0, r5
 8001596:	f001 fe8f 	bl	80032b8 <HAL_ADC_ConfigChannel>
	#endif

}
 800159a:	b007      	add	sp, #28
 800159c:	e8bd 83f0 	ldmia.w	sp!, {r4, r5, r6, r7, r8, r9, pc}
 80015a0:	20000884 	.word	0x20000884
 80015a4:	40010800 	.word	0x40010800
 80015a8:	200008a0 	.word	0x200008a0

080015ac <ADC_init>:
 * @brief	Cette fonction initialise le priphrique ADC1, ainsi que le DMA (direct memory access).
 * @func	void ADC_init(void)
 * @post	A l'issue de l'excution de cette fonction, des conversions analogiques sont menes en permanence par l'ADC... et mettent  jour un tableau adc_converted_value que l'on peut consulter.
 */
void ADC_init(void)
{
 80015ac:	e92d 43f0 	stmdb	sp!, {r4, r5, r6, r7, r8, r9, lr}
 80015b0:	b085      	sub	sp, #20
	__HAL_RCC_ADC1_CLK_ENABLE();
 80015b2:	4c37      	ldr	r4, [pc, #220]	; (8001690 <ADC_init+0xe4>)
 80015b4:	69a3      	ldr	r3, [r4, #24]
 80015b6:	f443 7300 	orr.w	r3, r3, #512	; 0x200
 80015ba:	61a3      	str	r3, [r4, #24]
 80015bc:	69a3      	ldr	r3, [r4, #24]
 80015be:	f403 7300 	and.w	r3, r3, #512	; 0x200
 80015c2:	9300      	str	r3, [sp, #0]
 80015c4:	9b00      	ldr	r3, [sp, #0]
	__HAL_RCC_ADC_CONFIG(RCC_ADCPCLK2_DIV6);
 80015c6:	6863      	ldr	r3, [r4, #4]
 80015c8:	f423 4340 	bic.w	r3, r3, #49152	; 0xc000
 80015cc:	f443 4300 	orr.w	r3, r3, #32768	; 0x8000
 80015d0:	6063      	str	r3, [r4, #4]

	//Dclenchements de l'ADC par le TIMER3 (TRGO)
	TIM_HandleTypeDef * htim;
	TIM_MasterConfigTypeDef sMasterConfig;
	TIMER_run_us(TIMER3_ID,1000, FALSE);			//1 mesure par ms. (choix arbitraire, c'est un exemple...vous pouvez changer cette priode de mesure !)
 80015d2:	2200      	movs	r2, #0
 80015d4:	f44f 717a 	mov.w	r1, #1000	; 0x3e8
 80015d8:	2002      	movs	r0, #2
 80015da:	f000 fc69 	bl	8001eb0 <TIMER_run_us>
	htim = TIMER_get_phandler(TIMER3_ID);
 80015de:	2002      	movs	r0, #2
 80015e0:	f000 fbf6 	bl	8001dd0 <TIMER_get_phandler>
 80015e4:	4605      	mov	r5, r0
	sMasterConfig.MasterOutputTrigger = TIM_TRGO_OC1;
 80015e6:	2330      	movs	r3, #48	; 0x30
 80015e8:	9302      	str	r3, [sp, #8]
	sMasterConfig.MasterSlaveMode = TIM_MASTERSLAVEMODE_ENABLE;
 80015ea:	f04f 0980 	mov.w	r9, #128	; 0x80
 80015ee:	f8cd 900c 	str.w	r9, [sp, #12]
	HAL_TIMEx_MasterConfigSynchronization(htim, &sMasterConfig);
 80015f2:	a902      	add	r1, sp, #8
 80015f4:	f003 f8c0 	bl	8004778 <HAL_TIMEx_MasterConfigSynchronization>
	HAL_TIM_GenerateEvent(htim,TIM_EVENTSOURCE_TRIGGER);
 80015f8:	2140      	movs	r1, #64	; 0x40
 80015fa:	4628      	mov	r0, r5
 80015fc:	f003 f852 	bl	80046a4 <HAL_TIM_GenerateEvent>
	hadc.Init.ExternalTrigConv = ADC_EXTERNALTRIGCONV_T3_TRGO;
 8001600:	4d24      	ldr	r5, [pc, #144]	; (8001694 <ADC_init+0xe8>)
 8001602:	f44f 2300 	mov.w	r3, #524288	; 0x80000
 8001606:	61eb      	str	r3, [r5, #28]

	// Initialisation de l'ADC1
	hadc.Instance = ADC1;
 8001608:	4b23      	ldr	r3, [pc, #140]	; (8001698 <ADC_init+0xec>)
 800160a:	602b      	str	r3, [r5, #0]
	hadc.Init.DataAlign = ADC_DATAALIGN_RIGHT;					//Alignement a droite des donnees mesurees dans le resultat sur 16 bits.
 800160c:	2600      	movs	r6, #0
 800160e:	606e      	str	r6, [r5, #4]
	hadc.Init.ScanConvMode = ADC_SCAN_ENABLE;							//Mode de conversion : ENABLE si plusieurs canaux. DISABLE si un seul canal.
 8001610:	f44f 7880 	mov.w	r8, #256	; 0x100
 8001614:	f8c5 8008 	str.w	r8, [r5, #8]
	hadc.Init.ContinuousConvMode = DISABLE;						//Mode continu : ENABLE si mesures en continu. DISABLE si une seule mesure a effectuer.
 8001618:	60ee      	str	r6, [r5, #12]
	hadc.Init.NbrOfConversion = ADC_NB_OF_CHANNEL_USED;			//Nombre de conversions a effectuer dans un cycle de mesure. (minimum 1, maximum 18).
 800161a:	2703      	movs	r7, #3
 800161c:	612f      	str	r7, [r5, #16]
	hadc.Init.DiscontinuousConvMode = DISABLE;
 800161e:	616e      	str	r6, [r5, #20]
	hadc.Init.NbrOfDiscConversion = 0;
 8001620:	61ae      	str	r6, [r5, #24]

	HAL_ADC_Init(&hadc);										//Initialisation de l'ADCx avec la structure remplie
 8001622:	4628      	mov	r0, r5
 8001624:	f001 ffe6 	bl	80035f4 <HAL_ADC_Init>

	// Initialisation des ports en analogique.
	PORTS_adc_init();
 8001628:	f7ff ff74 	bl	8001514 <PORTS_adc_init>

	//Configuration du DMA.
	__HAL_RCC_DMA1_CLK_ENABLE();
 800162c:	6963      	ldr	r3, [r4, #20]
 800162e:	f043 0301 	orr.w	r3, r3, #1
 8001632:	6163      	str	r3, [r4, #20]
 8001634:	6963      	ldr	r3, [r4, #20]
 8001636:	f003 0301 	and.w	r3, r3, #1
 800163a:	9301      	str	r3, [sp, #4]
 800163c:	9b01      	ldr	r3, [sp, #4]
	hdma.Instance = DMA1_Channel1;
 800163e:	4c17      	ldr	r4, [pc, #92]	; (800169c <ADC_init+0xf0>)
 8001640:	4b17      	ldr	r3, [pc, #92]	; (80016a0 <ADC_init+0xf4>)
 8001642:	6023      	str	r3, [r4, #0]
	hdma.XferCpltCallback = NULL;
 8001644:	62a6      	str	r6, [r4, #40]	; 0x28
	hdma.XferErrorCallback = NULL;
 8001646:	6326      	str	r6, [r4, #48]	; 0x30
	hdma.XferHalfCpltCallback = NULL;
 8001648:	62e6      	str	r6, [r4, #44]	; 0x2c
	hdma.Init.Direction = DMA_PERIPH_TO_MEMORY;				//On indique au priphrique DMA qu'il doit copier des donnes d'un priphrique vers la mmoire.
 800164a:	6066      	str	r6, [r4, #4]
	hdma.Init.PeriphInc = DMA_PINC_DISABLE;					//A chaque copie, l'adresse source des donnes n'est pas incrmente (il se sert dans le mme registre de l'ADC pour chaque nouvelle donne)
 800164c:	60a6      	str	r6, [r4, #8]
	hdma.Init.MemInc = DMA_MINC_ENABLE;						//A chaque copie, l'adresse destination des donnes est  incrmente (il range les donnes en mmoire dans un tableau)
 800164e:	f8c4 900c 	str.w	r9, [r4, #12]
	hdma.Init.PeriphDataAlignment = DMA_PDATAALIGN_HALFWORD;
 8001652:	f8c4 8010 	str.w	r8, [r4, #16]
	hdma.Init.MemDataAlignment = DMA_MDATAALIGN_WORD;
 8001656:	f44f 6300 	mov.w	r3, #2048	; 0x800
 800165a:	6163      	str	r3, [r4, #20]
	hdma.Init.Mode = DMA_CIRCULAR;
 800165c:	2320      	movs	r3, #32
 800165e:	61a3      	str	r3, [r4, #24]
	hdma.Init.Priority = DMA_PRIORITY_HIGH;
 8001660:	f44f 5300 	mov.w	r3, #8192	; 0x2000
 8001664:	61e3      	str	r3, [r4, #28]
	HAL_DMA_Init(&hdma);
 8001666:	4620      	mov	r0, r4
 8001668:	f002 f8ce 	bl	8003808 <HAL_DMA_Init>

	// Association entre le handler du DMA et celui de l'ADC
	__HAL_LINKDMA(&hadc, DMA_Handle, hdma);
 800166c:	622c      	str	r4, [r5, #32]
 800166e:	6265      	str	r5, [r4, #36]	; 0x24

	//Configuration des interruptions.
	HAL_NVIC_SetPriority(DMA1_Channel1_IRQn, 0, 0);
 8001670:	4632      	mov	r2, r6
 8001672:	4631      	mov	r1, r6
 8001674:	200b      	movs	r0, #11
 8001676:	f002 f853 	bl	8003720 <HAL_NVIC_SetPriority>
	HAL_NVIC_EnableIRQ(DMA1_Channel1_IRQn);				//Si vous souhaitez activer les interruption  chaque fin de remplissage DMA... dcommentez cette ligne.
 800167a:	200b      	movs	r0, #11
 800167c:	f002 f888 	bl	8003790 <HAL_NVIC_EnableIRQ>

	//Lancement de l'ADC, avec usage du DMA.
	HAL_ADC_Start_DMA(&hadc,adc_converted_value,ADC_NB_OF_CHANNEL_USED);
 8001680:	463a      	mov	r2, r7
 8001682:	4908      	ldr	r1, [pc, #32]	; (80016a4 <ADC_init+0xf8>)
 8001684:	4628      	mov	r0, r5
 8001686:	f001 fef7 	bl	8003478 <HAL_ADC_Start_DMA>

}
 800168a:	b005      	add	sp, #20
 800168c:	e8bd 83f0 	ldmia.w	sp!, {r4, r5, r6, r7, r8, r9, pc}
 8001690:	40021000 	.word	0x40021000
 8001694:	200008a0 	.word	0x200008a0
 8001698:	40012400 	.word	0x40012400
 800169c:	200008d0 	.word	0x200008d0
 80016a0:	40020008 	.word	0x40020008
 80016a4:	20000838 	.word	0x20000838

080016a8 <ADC_getValue>:
* @param	channel : un canal de ADC_0  ADC_15
* @retval 	un entier sign sur 16 bits, correspondant  la valeur demande, pouvant aller de 0  4095 (l'ADC mesure sur 12 bits).
* @retval	Cette fonction retourne -1 si l'on demande un canal ADC qui n'a pas t initialis (le define USE_ADCx correspondant est comment)
*/
int16_t ADC_getValue(adc_id_e channel)
{
 80016a8:	b508      	push	{r3, lr}
	if(adc_id[channel] == -1 || channel >= ADC_CHANNEL_NB)
 80016aa:	4b09      	ldr	r3, [pc, #36]	; (80016d0 <ADC_getValue+0x28>)
 80016ac:	561b      	ldrsb	r3, [r3, r0]
 80016ae:	f1b3 3fff 	cmp.w	r3, #4294967295	; 0xffffffff
 80016b2:	d005      	beq.n	80016c0 <ADC_getValue+0x18>
 80016b4:	2812      	cmp	r0, #18
 80016b6:	d803      	bhi.n	80016c0 <ADC_getValue+0x18>
	{
		printf("Lecture de la valeur du canal analogique numrique %d : non utilis ou non initialis !\n", channel);
		return -1;
	}
	return (int16_t)adc_converted_value[adc_id[channel]];
 80016b8:	4a06      	ldr	r2, [pc, #24]	; (80016d4 <ADC_getValue+0x2c>)
 80016ba:	f932 0023 	ldrsh.w	r0, [r2, r3, lsl #2]
}
 80016be:	bd08      	pop	{r3, pc}
		printf("Lecture de la valeur du canal analogique numrique %d : non utilis ou non initialis !\n", channel);
 80016c0:	4601      	mov	r1, r0
 80016c2:	4805      	ldr	r0, [pc, #20]	; (80016d8 <ADC_getValue+0x30>)
 80016c4:	f003 fd82 	bl	80051cc <printf>
		return -1;
 80016c8:	f04f 30ff 	mov.w	r0, #4294967295	; 0xffffffff
 80016cc:	e7f7      	b.n	80016be <ADC_getValue+0x16>
 80016ce:	bf00      	nop
 80016d0:	20000884 	.word	0x20000884
 80016d4:	20000838 	.word	0x20000838
 80016d8:	0800ae6c 	.word	0x0800ae6c

080016dc <DMA1_Channel1_IRQHandler>:
* @brief  This function handles DMA interrupt request.
* @param  None
* @retval None
*/
void DMA1_Channel1_IRQHandler(void)
{
 80016dc:	b508      	push	{r3, lr}
	flag_new_sample_available = TRUE;
 80016de:	4b05      	ldr	r3, [pc, #20]	; (80016f4 <DMA1_Channel1_IRQHandler+0x18>)
 80016e0:	2201      	movs	r2, #1
 80016e2:	601a      	str	r2, [r3, #0]
	HAL_DMA_IRQHandler(&hdma);
 80016e4:	4804      	ldr	r0, [pc, #16]	; (80016f8 <DMA1_Channel1_IRQHandler+0x1c>)
 80016e6:	f002 f94b 	bl	8003980 <HAL_DMA_IRQHandler>
	if(callback_function)
 80016ea:	4b04      	ldr	r3, [pc, #16]	; (80016fc <DMA1_Channel1_IRQHandler+0x20>)
 80016ec:	681b      	ldr	r3, [r3, #0]
 80016ee:	b103      	cbz	r3, 80016f2 <DMA1_Channel1_IRQHandler+0x16>
		callback_function();
 80016f0:	4798      	blx	r3
}
 80016f2:	bd08      	pop	{r3, pc}
 80016f4:	2000089c 	.word	0x2000089c
 80016f8:	200008d0 	.word	0x200008d0
 80016fc:	20000898 	.word	0x20000898

08001700 <BSP_GPIO_Enable>:
 * @brief	Configuration des entrees/sorties des broches du microcontroleur.
 * @func	void BSP_GPIO_Enable(void)
 * @post	Activation des horloges des peripheriques GPIO
 */
void BSP_GPIO_Enable(void)
{
 8001700:	b086      	sub	sp, #24
	//Activation des horloges des peripheriques GPIOx
	__HAL_RCC_GPIOA_CLK_ENABLE(); // Now defined in macros : stm32f1_hal_rcc.h (417)
 8001702:	4b20      	ldr	r3, [pc, #128]	; (8001784 <BSP_GPIO_Enable+0x84>)
 8001704:	699a      	ldr	r2, [r3, #24]
 8001706:	f042 0204 	orr.w	r2, r2, #4
 800170a:	619a      	str	r2, [r3, #24]
 800170c:	699a      	ldr	r2, [r3, #24]
 800170e:	f002 0204 	and.w	r2, r2, #4
 8001712:	9200      	str	r2, [sp, #0]
 8001714:	9a00      	ldr	r2, [sp, #0]
	__HAL_RCC_GPIOB_CLK_ENABLE();
 8001716:	699a      	ldr	r2, [r3, #24]
 8001718:	f042 0208 	orr.w	r2, r2, #8
 800171c:	619a      	str	r2, [r3, #24]
 800171e:	699a      	ldr	r2, [r3, #24]
 8001720:	f002 0208 	and.w	r2, r2, #8
 8001724:	9201      	str	r2, [sp, #4]
 8001726:	9a01      	ldr	r2, [sp, #4]
	__HAL_RCC_GPIOC_CLK_ENABLE();
 8001728:	699a      	ldr	r2, [r3, #24]
 800172a:	f042 0210 	orr.w	r2, r2, #16
 800172e:	619a      	str	r2, [r3, #24]
 8001730:	699a      	ldr	r2, [r3, #24]
 8001732:	f002 0210 	and.w	r2, r2, #16
 8001736:	9202      	str	r2, [sp, #8]
 8001738:	9a02      	ldr	r2, [sp, #8]
	__HAL_RCC_GPIOD_CLK_ENABLE();
 800173a:	699a      	ldr	r2, [r3, #24]
 800173c:	f042 0220 	orr.w	r2, r2, #32
 8001740:	619a      	str	r2, [r3, #24]
 8001742:	699a      	ldr	r2, [r3, #24]
 8001744:	f002 0220 	and.w	r2, r2, #32
 8001748:	9203      	str	r2, [sp, #12]
 800174a:	9a03      	ldr	r2, [sp, #12]
	__HAL_RCC_GPIOE_CLK_ENABLE();
 800174c:	699a      	ldr	r2, [r3, #24]
 800174e:	f042 0240 	orr.w	r2, r2, #64	; 0x40
 8001752:	619a      	str	r2, [r3, #24]
 8001754:	699a      	ldr	r2, [r3, #24]
 8001756:	f002 0240 	and.w	r2, r2, #64	; 0x40
 800175a:	9204      	str	r2, [sp, #16]
 800175c:	9a04      	ldr	r2, [sp, #16]

	__HAL_RCC_AFIO_CLK_ENABLE();
 800175e:	699a      	ldr	r2, [r3, #24]
 8001760:	f042 0201 	orr.w	r2, r2, #1
 8001764:	619a      	str	r2, [r3, #24]
 8001766:	699b      	ldr	r3, [r3, #24]
 8001768:	f003 0301 	and.w	r3, r3, #1
 800176c:	9305      	str	r3, [sp, #20]
 800176e:	9b05      	ldr	r3, [sp, #20]
	__HAL_AFIO_REMAP_SWJ_NOJTAG();	//Pour pouvoir utiliser PA15 (et retirer l'affectation de cette broche au JTAG, non utilis)
 8001770:	4a05      	ldr	r2, [pc, #20]	; (8001788 <BSP_GPIO_Enable+0x88>)
 8001772:	6853      	ldr	r3, [r2, #4]
 8001774:	f023 63e0 	bic.w	r3, r3, #117440512	; 0x7000000
 8001778:	f043 7300 	orr.w	r3, r3, #33554432	; 0x2000000
 800177c:	6053      	str	r3, [r2, #4]
}
 800177e:	b006      	add	sp, #24
 8001780:	4770      	bx	lr
 8001782:	bf00      	nop
 8001784:	40021000 	.word	0x40021000
 8001788:	40010000 	.word	0x40010000

0800178c <BSP_GPIO_PinCfg>:
 * @param GPIO_Mode : GPIO_MODE_INPUT, GPIO_MODE_OUTPUT_PP, GPIO_MODE_OUTPUT_OD, GPIO_MODE_AF_PP, GPIO_MODE_AF_OD ou GPIO_MODE_ANALOG
 * @param GPIO_Pull : GPIO_NOPULL, GPIO_PULLUP, GPIO_PULLDOWN
 * @param GPIO_Speed : GPIO_SPEED_LOW (2MHz), GPIO_SPEED_MEDIUM (25MHz), GPIO_SPEED_HIGH (100MHz)
  */
void BSP_GPIO_PinCfg(GPIO_TypeDef * GPIOx, uint32_t GPIO_Pin, uint32_t GPIO_Mode, uint32_t GPIO_Pull, uint32_t GPIO_Speed)
{
 800178c:	b500      	push	{lr}
 800178e:	b085      	sub	sp, #20
	GPIO_InitTypeDef GPIO_InitStructure;					//Structure contenant les arguments de la fonction GPIO_Init
	GPIO_InitStructure.Pin = GPIO_Pin;
 8001790:	9100      	str	r1, [sp, #0]
	GPIO_InitStructure.Mode = GPIO_Mode;
 8001792:	9201      	str	r2, [sp, #4]
	GPIO_InitStructure.Pull = GPIO_Pull;
 8001794:	9302      	str	r3, [sp, #8]
	GPIO_InitStructure.Speed = GPIO_Speed;
 8001796:	9b06      	ldr	r3, [sp, #24]
 8001798:	9303      	str	r3, [sp, #12]
	HAL_GPIO_Init(GPIOx, &GPIO_InitStructure);
 800179a:	4669      	mov	r1, sp
 800179c:	f002 f992 	bl	8003ac4 <HAL_GPIO_Init>
}
 80017a0:	b005      	add	sp, #20
 80017a2:	f85d fb04 	ldr.w	pc, [sp], #4
	...

080017a8 <NVIC_SystemReset>:
  \details Acts as a special kind of Data Memory Barrier.
           It completes when all explicit memory accesses before this instruction complete.
 */
__attribute__((always_inline)) __STATIC_INLINE void __DSB(void)
{
  __ASM volatile ("dsb 0xF":::"memory");
 80017a8:	f3bf 8f4f 	dsb	sy
__STATIC_INLINE void NVIC_SystemReset(void)
{
  __DSB();                                                          /* Ensure all outstanding memory accesses included
                                                                       buffered write are completed before reset */
  SCB->AIRCR  = (uint32_t)((0x5FAUL << SCB_AIRCR_VECTKEY_Pos)    |
                           (SCB->AIRCR & SCB_AIRCR_PRIGROUP_Msk) |
 80017ac:	4905      	ldr	r1, [pc, #20]	; (80017c4 <NVIC_SystemReset+0x1c>)
 80017ae:	68ca      	ldr	r2, [r1, #12]
 80017b0:	f402 62e0 	and.w	r2, r2, #1792	; 0x700
  SCB->AIRCR  = (uint32_t)((0x5FAUL << SCB_AIRCR_VECTKEY_Pos)    |
 80017b4:	4b04      	ldr	r3, [pc, #16]	; (80017c8 <NVIC_SystemReset+0x20>)
 80017b6:	4313      	orrs	r3, r2
 80017b8:	60cb      	str	r3, [r1, #12]
 80017ba:	f3bf 8f4f 	dsb	sy
  __ASM volatile ("nop");
 80017be:	bf00      	nop
 80017c0:	e7fd      	b.n	80017be <NVIC_SystemReset+0x16>
 80017c2:	bf00      	nop
 80017c4:	e000ed00 	.word	0xe000ed00
 80017c8:	05fa0004 	.word	0x05fa0004

080017cc <SPI_Init>:
/*
 * @brief Initialise le bus SPI
 * @param SPIx indique le SPI utilis (SPI1 ou SPI2)
 */
void SPI_Init(SPI_TypeDef* SPIx)
{
 80017cc:	b5f0      	push	{r4, r5, r6, r7, lr}
 80017ce:	b087      	sub	sp, #28
 80017d0:	4604      	mov	r4, r0
	assert(SPIx == SPI1 || SPIx == SPI2);
 80017d2:	4b45      	ldr	r3, [pc, #276]	; (80018e8 <SPI_Init+0x11c>)
 80017d4:	4298      	cmp	r0, r3
 80017d6:	d003      	beq.n	80017e0 <SPI_Init+0x14>
 80017d8:	f5a3 4378 	sub.w	r3, r3, #63488	; 0xf800
 80017dc:	4298      	cmp	r0, r3
 80017de:	d14d      	bne.n	800187c <SPI_Init+0xb0>

	// SPI_ID = SPI2_ID si SPI2 sinon SPI1_ID
	SPI_ID_e id = ((SPIx == SPI2)?SPI2_ID:SPI1_ID);
 80017e0:	4b42      	ldr	r3, [pc, #264]	; (80018ec <SPI_Init+0x120>)
 80017e2:	429c      	cmp	r4, r3
 80017e4:	bf0c      	ite	eq
 80017e6:	2501      	moveq	r5, #1
 80017e8:	2500      	movne	r5, #0
	if(id == SPI1_ID)
 80017ea:	d04e      	beq.n	800188a <SPI_Init+0xbe>
	{
		//Enables the clocks and pin configuration
		__HAL_RCC_SPI1_CLK_ENABLE();
 80017ec:	f503 33ec 	add.w	r3, r3, #120832	; 0x1d800
 80017f0:	699a      	ldr	r2, [r3, #24]
 80017f2:	f442 5280 	orr.w	r2, r2, #4096	; 0x1000
 80017f6:	619a      	str	r2, [r3, #24]
 80017f8:	699a      	ldr	r2, [r3, #24]
 80017fa:	f402 5280 	and.w	r2, r2, #4096	; 0x1000
 80017fe:	9202      	str	r2, [sp, #8]
 8001800:	9a02      	ldr	r2, [sp, #8]

		#if SPI1_ON_PA5_PA6_PA7
			__HAL_RCC_GPIOA_CLK_ENABLE();
 8001802:	699a      	ldr	r2, [r3, #24]
 8001804:	f042 0204 	orr.w	r2, r2, #4
 8001808:	619a      	str	r2, [r3, #24]
 800180a:	699b      	ldr	r3, [r3, #24]
 800180c:	f003 0304 	and.w	r3, r3, #4
 8001810:	9303      	str	r3, [sp, #12]
 8001812:	9b03      	ldr	r3, [sp, #12]
			BSP_GPIO_PinCfg(GPIOA, GPIO_PIN_5, GPIO_MODE_AF_PP, GPIO_PULLUP, GPIO_SPEED_FREQ_HIGH);
 8001814:	4e36      	ldr	r6, [pc, #216]	; (80018f0 <SPI_Init+0x124>)
 8001816:	2703      	movs	r7, #3
 8001818:	9700      	str	r7, [sp, #0]
 800181a:	2301      	movs	r3, #1
 800181c:	2202      	movs	r2, #2
 800181e:	2120      	movs	r1, #32
 8001820:	4630      	mov	r0, r6
 8001822:	f7ff ffb3 	bl	800178c <BSP_GPIO_PinCfg>
			BSP_GPIO_PinCfg(GPIOA, GPIO_PIN_6, GPIO_MODE_AF_INPUT, GPIO_PULLUP, GPIO_SPEED_FREQ_HIGH);
 8001826:	9700      	str	r7, [sp, #0]
 8001828:	2301      	movs	r3, #1
 800182a:	2200      	movs	r2, #0
 800182c:	2140      	movs	r1, #64	; 0x40
 800182e:	4630      	mov	r0, r6
 8001830:	f7ff ffac 	bl	800178c <BSP_GPIO_PinCfg>
			BSP_GPIO_PinCfg(GPIOA, GPIO_PIN_7, GPIO_MODE_AF_PP, GPIO_PULLUP, GPIO_SPEED_FREQ_HIGH);
 8001834:	9700      	str	r7, [sp, #0]
 8001836:	2301      	movs	r3, #1
 8001838:	2202      	movs	r2, #2
 800183a:	2180      	movs	r1, #128	; 0x80
 800183c:	4630      	mov	r0, r6
 800183e:	f7ff ffa5 	bl	800178c <BSP_GPIO_PinCfg>
		BSP_GPIO_PinCfg(GPIOB, GPIO_PIN_13, GPIO_MODE_AF_PP, GPIO_PULLUP, GPIO_SPEED_FREQ_HIGH);
		BSP_GPIO_PinCfg(GPIOB, GPIO_PIN_14, GPIO_MODE_AF_INPUT, GPIO_PULLUP, GPIO_SPEED_FREQ_HIGH);
		BSP_GPIO_PinCfg(GPIOB, GPIO_PIN_15, GPIO_MODE_AF_PP, GPIO_PULLUP, GPIO_SPEED_FREQ_HIGH);
	}
	//Configuration of the SPIx module
	hSPI[id].Instance = SPIx;
 8001842:	4a2c      	ldr	r2, [pc, #176]	; (80018f4 <SPI_Init+0x128>)
 8001844:	2358      	movs	r3, #88	; 0x58
 8001846:	fb05 f303 	mul.w	r3, r5, r3
 800184a:	18d0      	adds	r0, r2, r3
 800184c:	50d4      	str	r4, [r2, r3]
	hSPI[id].Init.BaudRatePrescaler = SPI_BAUDRATEPRESCALER_8;
 800184e:	2310      	movs	r3, #16
 8001850:	61c3      	str	r3, [r0, #28]
	hSPI[id].Init.CLKPhase = SPI_PHASE_1EDGE;
 8001852:	2300      	movs	r3, #0
 8001854:	6143      	str	r3, [r0, #20]
	hSPI[id].Init.CLKPolarity = SPI_POLARITY_LOW;
 8001856:	6103      	str	r3, [r0, #16]
	hSPI[id].Init.CRCCalculation = SPI_CRCCALCULATION_DISABLE;
 8001858:	6283      	str	r3, [r0, #40]	; 0x28
	hSPI[id].Init.CRCPolynomial = 0;
 800185a:	62c3      	str	r3, [r0, #44]	; 0x2c
	hSPI[id].Init.DataSize = SPI_DATASIZE_8BIT;
 800185c:	60c3      	str	r3, [r0, #12]
	hSPI[id].Init.Direction = SPI_DIRECTION_2LINES;
 800185e:	6083      	str	r3, [r0, #8]
	hSPI[id].Init.FirstBit = SPI_FIRSTBIT_MSB;
 8001860:	6203      	str	r3, [r0, #32]
	hSPI[id].Init.Mode = SPI_MODE_MASTER;
 8001862:	f44f 7282 	mov.w	r2, #260	; 0x104
 8001866:	6042      	str	r2, [r0, #4]
	hSPI[id].Init.NSS = SPI_NSS_SOFT;			//Chip select must be manage by software.
 8001868:	f44f 7200 	mov.w	r2, #512	; 0x200
 800186c:	6182      	str	r2, [r0, #24]
	hSPI[id].Init.TIMode = SPI_TIMODE_DISABLE;
 800186e:	6243      	str	r3, [r0, #36]	; 0x24
	hSPI[id].State = HAL_SPI_STATE_RESET;
 8001870:	f880 3051 	strb.w	r3, [r0, #81]	; 0x51
	HAL_SPI_Init(&hSPI[id]);
 8001874:	f002 fec0 	bl	80045f8 <HAL_SPI_Init>
}
 8001878:	b007      	add	sp, #28
 800187a:	bdf0      	pop	{r4, r5, r6, r7, pc}
	assert(SPIx == SPI1 || SPIx == SPI2);
 800187c:	4a1e      	ldr	r2, [pc, #120]	; (80018f8 <SPI_Init+0x12c>)
 800187e:	211e      	movs	r1, #30
 8001880:	481e      	ldr	r0, [pc, #120]	; (80018fc <SPI_Init+0x130>)
 8001882:	f003 fca3 	bl	80051cc <printf>
 8001886:	f7ff ff8f 	bl	80017a8 <NVIC_SystemReset>
		__HAL_RCC_SPI2_CLK_ENABLE();
 800188a:	4b1d      	ldr	r3, [pc, #116]	; (8001900 <SPI_Init+0x134>)
 800188c:	69da      	ldr	r2, [r3, #28]
 800188e:	f442 4280 	orr.w	r2, r2, #16384	; 0x4000
 8001892:	61da      	str	r2, [r3, #28]
 8001894:	69da      	ldr	r2, [r3, #28]
 8001896:	f402 4280 	and.w	r2, r2, #16384	; 0x4000
 800189a:	9204      	str	r2, [sp, #16]
 800189c:	9a04      	ldr	r2, [sp, #16]
		__HAL_RCC_GPIOB_CLK_ENABLE();
 800189e:	699a      	ldr	r2, [r3, #24]
 80018a0:	f042 0208 	orr.w	r2, r2, #8
 80018a4:	619a      	str	r2, [r3, #24]
 80018a6:	699b      	ldr	r3, [r3, #24]
 80018a8:	f003 0308 	and.w	r3, r3, #8
 80018ac:	9305      	str	r3, [sp, #20]
 80018ae:	9b05      	ldr	r3, [sp, #20]
		BSP_GPIO_PinCfg(GPIOB, GPIO_PIN_13, GPIO_MODE_AF_PP, GPIO_PULLUP, GPIO_SPEED_FREQ_HIGH);
 80018b0:	4e14      	ldr	r6, [pc, #80]	; (8001904 <SPI_Init+0x138>)
 80018b2:	2703      	movs	r7, #3
 80018b4:	9700      	str	r7, [sp, #0]
 80018b6:	2301      	movs	r3, #1
 80018b8:	2202      	movs	r2, #2
 80018ba:	f44f 5100 	mov.w	r1, #8192	; 0x2000
 80018be:	4630      	mov	r0, r6
 80018c0:	f7ff ff64 	bl	800178c <BSP_GPIO_PinCfg>
		BSP_GPIO_PinCfg(GPIOB, GPIO_PIN_14, GPIO_MODE_AF_INPUT, GPIO_PULLUP, GPIO_SPEED_FREQ_HIGH);
 80018c4:	9700      	str	r7, [sp, #0]
 80018c6:	2301      	movs	r3, #1
 80018c8:	2200      	movs	r2, #0
 80018ca:	f44f 4180 	mov.w	r1, #16384	; 0x4000
 80018ce:	4630      	mov	r0, r6
 80018d0:	f7ff ff5c 	bl	800178c <BSP_GPIO_PinCfg>
		BSP_GPIO_PinCfg(GPIOB, GPIO_PIN_15, GPIO_MODE_AF_PP, GPIO_PULLUP, GPIO_SPEED_FREQ_HIGH);
 80018d4:	9700      	str	r7, [sp, #0]
 80018d6:	2301      	movs	r3, #1
 80018d8:	2202      	movs	r2, #2
 80018da:	f44f 4100 	mov.w	r1, #32768	; 0x8000
 80018de:	4630      	mov	r0, r6
 80018e0:	f7ff ff54 	bl	800178c <BSP_GPIO_PinCfg>
 80018e4:	e7ad      	b.n	8001842 <SPI_Init+0x76>
 80018e6:	bf00      	nop
 80018e8:	40013000 	.word	0x40013000
 80018ec:	40003800 	.word	0x40003800
 80018f0:	40010800 	.word	0x40010800
 80018f4:	20000914 	.word	0x20000914
 80018f8:	0800aec8 	.word	0x0800aec8
 80018fc:	0800aee8 	.word	0x0800aee8
 8001900:	40021000 	.word	0x40021000
 8001904:	40010c00 	.word	0x40010c00

08001908 <SPI_WriteNoRegister>:
 * @brief Cette fonction sert  envoyer une donne sur l'un des bus SPI.
 * @param SPIx est le SPI sur lequel envoyer la donne.
 * @param data est la donne  envoyer.
 */
void SPI_WriteNoRegister(SPI_TypeDef* SPIx, uint8_t data)
{
 8001908:	b510      	push	{r4, lr}
 800190a:	b082      	sub	sp, #8
 800190c:	f88d 1007 	strb.w	r1, [sp, #7]
	assert(SPIx == SPI1 || SPIx == SPI2);
 8001910:	4b0f      	ldr	r3, [pc, #60]	; (8001950 <SPI_WriteNoRegister+0x48>)
 8001912:	4298      	cmp	r0, r3
 8001914:	d003      	beq.n	800191e <SPI_WriteNoRegister+0x16>
 8001916:	f5a3 4378 	sub.w	r3, r3, #63488	; 0xf800
 800191a:	4298      	cmp	r0, r3
 800191c:	d111      	bne.n	8001942 <SPI_WriteNoRegister+0x3a>
	SPI_ID_e id = ((SPIx == SPI2)?SPI2_ID:SPI1_ID);
 800191e:	4b0d      	ldr	r3, [pc, #52]	; (8001954 <SPI_WriteNoRegister+0x4c>)
 8001920:	4298      	cmp	r0, r3
 8001922:	bf14      	ite	ne
 8001924:	2000      	movne	r0, #0
 8001926:	2001      	moveq	r0, #1
	HAL_SPI_Transmit(&hSPI[id],&data,1,100);
 8001928:	2364      	movs	r3, #100	; 0x64
 800192a:	2201      	movs	r2, #1
 800192c:	f10d 0107 	add.w	r1, sp, #7
 8001930:	4c09      	ldr	r4, [pc, #36]	; (8001958 <SPI_WriteNoRegister+0x50>)
 8001932:	f04f 0c58 	mov.w	ip, #88	; 0x58
 8001936:	fb0c 4000 	mla	r0, ip, r0, r4
 800193a:	f002 fd6d 	bl	8004418 <HAL_SPI_Transmit>
}
 800193e:	b002      	add	sp, #8
 8001940:	bd10      	pop	{r4, pc}
	assert(SPIx == SPI1 || SPIx == SPI2);
 8001942:	4a06      	ldr	r2, [pc, #24]	; (800195c <SPI_WriteNoRegister+0x54>)
 8001944:	217f      	movs	r1, #127	; 0x7f
 8001946:	4806      	ldr	r0, [pc, #24]	; (8001960 <SPI_WriteNoRegister+0x58>)
 8001948:	f003 fc40 	bl	80051cc <printf>
 800194c:	f7ff ff2c 	bl	80017a8 <NVIC_SystemReset>
 8001950:	40013000 	.word	0x40013000
 8001954:	40003800 	.word	0x40003800
 8001958:	20000914 	.word	0x20000914
 800195c:	0800aec8 	.word	0x0800aec8
 8001960:	0800aee8 	.word	0x0800aee8

08001964 <SPI_WriteMultiNoRegister>:
 * @param SPIx est le SPI sur lequel envoyer les donnes.
 * @param *data est la donne  envoyer.
 * @param count est le nombre de donnes  envoyer.
 */
void SPI_WriteMultiNoRegister(SPI_TypeDef* SPIx, uint8_t* data, uint16_t count)
{
 8001964:	b510      	push	{r4, lr}
	assert(SPIx == SPI1 || SPIx == SPI2);
 8001966:	4b0e      	ldr	r3, [pc, #56]	; (80019a0 <SPI_WriteMultiNoRegister+0x3c>)
 8001968:	4298      	cmp	r0, r3
 800196a:	d003      	beq.n	8001974 <SPI_WriteMultiNoRegister+0x10>
 800196c:	f5a3 4378 	sub.w	r3, r3, #63488	; 0xf800
 8001970:	4298      	cmp	r0, r3
 8001972:	d10d      	bne.n	8001990 <SPI_WriteMultiNoRegister+0x2c>
	SPI_ID_e id = ((SPIx == SPI2)?SPI2_ID:SPI1_ID);
 8001974:	4b0b      	ldr	r3, [pc, #44]	; (80019a4 <SPI_WriteMultiNoRegister+0x40>)
 8001976:	4298      	cmp	r0, r3
 8001978:	bf14      	ite	ne
 800197a:	2000      	movne	r0, #0
 800197c:	2001      	moveq	r0, #1
	HAL_SPI_Transmit(&hSPI[id],data,count,100);
 800197e:	2364      	movs	r3, #100	; 0x64
 8001980:	4c09      	ldr	r4, [pc, #36]	; (80019a8 <SPI_WriteMultiNoRegister+0x44>)
 8001982:	f04f 0c58 	mov.w	ip, #88	; 0x58
 8001986:	fb0c 4000 	mla	r0, ip, r0, r4
 800198a:	f002 fd45 	bl	8004418 <HAL_SPI_Transmit>
}
 800198e:	bd10      	pop	{r4, pc}
	assert(SPIx == SPI1 || SPIx == SPI2);
 8001990:	4a06      	ldr	r2, [pc, #24]	; (80019ac <SPI_WriteMultiNoRegister+0x48>)
 8001992:	218c      	movs	r1, #140	; 0x8c
 8001994:	4806      	ldr	r0, [pc, #24]	; (80019b0 <SPI_WriteMultiNoRegister+0x4c>)
 8001996:	f003 fc19 	bl	80051cc <printf>
 800199a:	f7ff ff05 	bl	80017a8 <NVIC_SystemReset>
 800199e:	bf00      	nop
 80019a0:	40013000 	.word	0x40013000
 80019a4:	40003800 	.word	0x40003800
 80019a8:	20000914 	.word	0x20000914
 80019ac:	0800aec8 	.word	0x0800aec8
 80019b0:	0800aee8 	.word	0x0800aee8

080019b4 <TM_SPI_SetDataSize>:
 * @param SPIx le SPI dont on veut rgler la taille des donnes.
 * @param DataSize est la taille des donnes :
 * 						TM_SPI_DataSize_8b  pour configurer le SPI en mode 8-bits
 * 						TM_SPI_DataSize_16b pour configurer le SPI en mode 16-bits
 */
TM_SPI_DataSize_t TM_SPI_SetDataSize(SPI_TypeDef* SPIx, TM_SPI_DataSize_t DataSize) {
 80019b4:	b410      	push	{r4}
 80019b6:	4603      	mov	r3, r0
	TM_SPI_DataSize_t status = (SPIx->CR1 & SPI_CR1_DFF) ? TM_SPI_DataSize_16b : TM_SPI_DataSize_8b;
 80019b8:	6800      	ldr	r0, [r0, #0]
 80019ba:	f3c0 20c0 	ubfx	r0, r0, #11, #1
	SPI_ID_e id = ((SPIx == SPI2)?SPI2_ID:SPI1_ID);
 80019be:	4a13      	ldr	r2, [pc, #76]	; (8001a0c <TM_SPI_SetDataSize+0x58>)
 80019c0:	4293      	cmp	r3, r2
 80019c2:	bf14      	ite	ne
 80019c4:	2200      	movne	r2, #0
 80019c6:	2201      	moveq	r2, #1

	/* Disable SPI first */
	SPIx->CR1 &= ~SPI_CR1_SPE;
 80019c8:	681c      	ldr	r4, [r3, #0]
 80019ca:	f024 0440 	bic.w	r4, r4, #64	; 0x40
 80019ce:	601c      	str	r4, [r3, #0]

	/* Set proper value */
	if (DataSize == TM_SPI_DataSize_16b) {
 80019d0:	2901      	cmp	r1, #1
 80019d2:	d00f      	beq.n	80019f4 <TM_SPI_SetDataSize+0x40>
		hSPI[id].Init.DataSize = SPI_DATASIZE_16BIT;
		/* Set bit for frame */
		SPIx->CR1 |= SPI_CR1_DFF;
	} else {
		hSPI[id].Init.DataSize = SPI_DATASIZE_8BIT;
 80019d4:	490e      	ldr	r1, [pc, #56]	; (8001a10 <TM_SPI_SetDataSize+0x5c>)
 80019d6:	2458      	movs	r4, #88	; 0x58
 80019d8:	fb04 1202 	mla	r2, r4, r2, r1
 80019dc:	2100      	movs	r1, #0
 80019de:	60d1      	str	r1, [r2, #12]
		/* Clear bit for frame */
		SPIx->CR1 &= ~SPI_CR1_DFF;
 80019e0:	681a      	ldr	r2, [r3, #0]
 80019e2:	f422 6200 	bic.w	r2, r2, #2048	; 0x800
 80019e6:	601a      	str	r2, [r3, #0]
	}

	/* Enable SPI back */
	SPIx->CR1 |= SPI_CR1_SPE;
 80019e8:	681a      	ldr	r2, [r3, #0]
 80019ea:	f042 0240 	orr.w	r2, r2, #64	; 0x40
 80019ee:	601a      	str	r2, [r3, #0]

	/* Return status */
	return status;
}
 80019f0:	bc10      	pop	{r4}
 80019f2:	4770      	bx	lr
		hSPI[id].Init.DataSize = SPI_DATASIZE_16BIT;
 80019f4:	4906      	ldr	r1, [pc, #24]	; (8001a10 <TM_SPI_SetDataSize+0x5c>)
 80019f6:	2458      	movs	r4, #88	; 0x58
 80019f8:	fb04 1202 	mla	r2, r4, r2, r1
 80019fc:	f44f 6100 	mov.w	r1, #2048	; 0x800
 8001a00:	60d1      	str	r1, [r2, #12]
		SPIx->CR1 |= SPI_CR1_DFF;
 8001a02:	681a      	ldr	r2, [r3, #0]
 8001a04:	430a      	orrs	r2, r1
 8001a06:	601a      	str	r2, [r3, #0]
 8001a08:	e7ee      	b.n	80019e8 <TM_SPI_SetDataSize+0x34>
 8001a0a:	bf00      	nop
 8001a0c:	40003800 	.word	0x40003800
 8001a10:	20000914 	.word	0x20000914

08001a14 <SYS_NVIC_PriorityGrouping>:
	BSP_GPIO_Enable();			//Activation des priphriques GPIO
	SYS_ClockConfig();			//Configuration des horloges.
}

void SYS_NVIC_PriorityGrouping(void)
{
 8001a14:	b508      	push	{r3, lr}
	//Pas de subpriority sur les interruptions
	HAL_NVIC_SetPriorityGrouping(NVIC_PRIORITYGROUP_4);
 8001a16:	2003      	movs	r0, #3
 8001a18:	f001 fe70 	bl	80036fc <HAL_NVIC_SetPriorityGrouping>
}
 8001a1c:	bd08      	pop	{r3, pc}

08001a1e <Delay_ms>:


void Delay_ms(uint32_t ms)
{
	if(ms == 0)
 8001a1e:	b170      	cbz	r0, 8001a3e <Delay_ms+0x20>
{
 8001a20:	b508      	push	{r3, lr}
 8001a22:	4603      	mov	r3, r0
		return;
	else if(ms == 1)
 8001a24:	2801      	cmp	r0, #1
 8001a26:	d003      	beq.n	8001a30 <Delay_ms+0x12>
		Delay_us(1000*ms);
	else
		HAL_Delay(ms-1);
 8001a28:	3801      	subs	r0, #1
 8001a2a:	f001 fbf1 	bl	8003210 <HAL_Delay>
}
 8001a2e:	bd08      	pop	{r3, pc}
		Delay_us(1000*ms);
 8001a30:	f44f 707a 	mov.w	r0, #1000	; 0x3e8
 8001a34:	fb03 f000 	mul.w	r0, r3, r0
 8001a38:	f7fe fb94 	bl	8000164 <Delay_us>
 8001a3c:	e7f7      	b.n	8001a2e <Delay_ms+0x10>
 8001a3e:	4770      	bx	lr

08001a40 <SYS_ClockConfig>:
 * 	LSE (low speed external)		= dsactiv
 * 	LSI (low speed internal)		= dsactiv
 *
 */
void SYS_ClockConfig(void)
{
 8001a40:	b510      	push	{r4, lr}
 8001a42:	b090      	sub	sp, #64	; 0x40
	 if (HAL_RCCEx_PeriphCLKConfig(&PeriphClkInit) != HAL_OK)
	 {
	   Error_Handler();
	 }
#else
	RCC_OscInitTypeDef osc = {0};
 8001a44:	2228      	movs	r2, #40	; 0x28
 8001a46:	2100      	movs	r1, #0
 8001a48:	a806      	add	r0, sp, #24
 8001a4a:	f005 ffc1 	bl	80079d0 <memset>
	osc.PLL.PLLState = RCC_PLL_ON;
 8001a4e:	2402      	movs	r4, #2
 8001a50:	940d      	str	r4, [sp, #52]	; 0x34
	osc.PLL.PLLSource = RCC_PLLSOURCE_HSI_DIV2;
	osc.PLL.PLLMUL = RCC_PLL_MUL16;
 8001a52:	f44f 1360 	mov.w	r3, #3670016	; 0x380000
 8001a56:	930f      	str	r3, [sp, #60]	; 0x3c
	osc.OscillatorType = RCC_OSCILLATORTYPE_HSI;
 8001a58:	9406      	str	r4, [sp, #24]
	osc.HSICalibrationValue = RCC_HSICALIBRATION_DEFAULT;
 8001a5a:	2310      	movs	r3, #16
 8001a5c:	930b      	str	r3, [sp, #44]	; 0x2c
	osc.HSIState = RCC_HSI_ON;
 8001a5e:	2301      	movs	r3, #1
 8001a60:	930a      	str	r3, [sp, #40]	; 0x28
	osc.HSEState = RCC_HSE_OFF;
	osc.LSEState = RCC_LSE_OFF;
	HAL_RCC_OscConfig(&osc);
 8001a62:	a806      	add	r0, sp, #24
 8001a64:	f002 f95c 	bl	8003d20 <HAL_RCC_OscConfig>

	RCC_ClkInitTypeDef clkconfig;
	clkconfig.AHBCLKDivider = RCC_SYSCLK_DIV1;
 8001a68:	2300      	movs	r3, #0
 8001a6a:	9303      	str	r3, [sp, #12]
	clkconfig.APB1CLKDivider = RCC_HCLK_DIV2;
 8001a6c:	f44f 6280 	mov.w	r2, #1024	; 0x400
 8001a70:	9204      	str	r2, [sp, #16]
	clkconfig.APB2CLKDivider = RCC_HCLK_DIV1;
 8001a72:	9305      	str	r3, [sp, #20]
	clkconfig.SYSCLKSource = RCC_SYSCLKSOURCE_PLLCLK;
 8001a74:	9402      	str	r4, [sp, #8]
	clkconfig.ClockType = RCC_CLOCKTYPE_SYSCLK | RCC_CLOCKTYPE_PCLK1 | RCC_CLOCKTYPE_PCLK2 | RCC_CLOCKTYPE_HCLK;
 8001a76:	230f      	movs	r3, #15
 8001a78:	9301      	str	r3, [sp, #4]
	HAL_RCC_ClockConfig(&clkconfig,FLASH_LATENCY_2);
 8001a7a:	4621      	mov	r1, r4
 8001a7c:	a801      	add	r0, sp, #4
 8001a7e:	f002 fb8f 	bl	80041a0 <HAL_RCC_ClockConfig>

	//Les lignes ci-dessous permettent d'observer sur la broche PA8 la frquence d'horloge systme.
	//BSP_GPIO_PinCfg(GPIOA, GPIO_PIN_8,GPIO_MODE_AF_PP,GPIO_NOPULL,GPIO_SPEED_HIGH);
	//HAL_RCC_MCOConfig(RCC_MCO,RCC_MCO1SOURCE_SYSCLK,RCC_MCODIV_1);
#endif
	SystemCoreClockUpdate();
 8001a82:	f000 fee9 	bl	8002858 <SystemCoreClockUpdate>
}
 8001a86:	b010      	add	sp, #64	; 0x40
 8001a88:	bd10      	pop	{r4, pc}

08001a8a <HAL_MspInit>:
{
 8001a8a:	b508      	push	{r3, lr}
	BSP_GPIO_Enable();			//Activation des priphriques GPIO
 8001a8c:	f7ff fe38 	bl	8001700 <BSP_GPIO_Enable>
	SYS_ClockConfig();			//Configuration des horloges.
 8001a90:	f7ff ffd6 	bl	8001a40 <SYS_ClockConfig>
}
 8001a94:	bd08      	pop	{r3, pc}

08001a96 <_close>:
}

__attribute__((weak))
int _close(int file __unused) {
	return -1;
}
 8001a96:	f04f 30ff 	mov.w	r0, #4294967295	; 0xffffffff
 8001a9a:	4770      	bx	lr

08001a9c <_fstat>:
 all files are regarded as character special devices.
 The `sys/stat.h' header file required is distributed in the `include' subdirectory for this C library.
 */
__attribute__((weak))
int _fstat(int file __unused, struct stat *st) {
	st->st_mode = S_IFCHR;
 8001a9c:	f44f 5300 	mov.w	r3, #8192	; 0x2000
 8001aa0:	604b      	str	r3, [r1, #4]
	return 0;
}
 8001aa2:	2000      	movs	r0, #0
 8001aa4:	4770      	bx	lr

08001aa6 <_getpid>:
 Process-ID; this is sometimes used to generate strings unlikely to conflict with other processes. Minimal implementation, for a system without processes:
 */
__attribute__((weak))
int _getpid() {
	return 1;
}
 8001aa6:	2001      	movs	r0, #1
 8001aa8:	4770      	bx	lr

08001aaa <_isatty>:
 isatty
 Query whether output stream is a terminal. For consistency with the other minimal implementations,
 */
__attribute__((weak))
int _isatty(int file) {
	switch (file){
 8001aaa:	2802      	cmp	r0, #2
 8001aac:	d801      	bhi.n	8001ab2 <_isatty+0x8>
		case STDOUT_FILENO:
		case STDERR_FILENO:
		case STDIN_FILENO:
			return 1;
 8001aae:	2001      	movs	r0, #1
		default:
			//errno = ENOTTY;
			errno = EBADF;
			return 0;
	}
}
 8001ab0:	4770      	bx	lr
int _isatty(int file) {
 8001ab2:	b508      	push	{r3, lr}
			errno = EBADF;
 8001ab4:	f005 ffb2 	bl	8007a1c <__errno>
 8001ab8:	2309      	movs	r3, #9
 8001aba:	6003      	str	r3, [r0, #0]
			return 0;
 8001abc:	2000      	movs	r0, #0
}
 8001abe:	bd08      	pop	{r3, pc}

08001ac0 <_kill>:
/*
 kill
 Send a signal. Minimal implementation:
 */
__attribute__((weak))
int _kill(int pid __unused, int sig __unused) {
 8001ac0:	b508      	push	{r3, lr}
	errno = EINVAL;
 8001ac2:	f005 ffab 	bl	8007a1c <__errno>
 8001ac6:	2316      	movs	r3, #22
 8001ac8:	6003      	str	r3, [r0, #0]
	return (-1);
}
 8001aca:	f04f 30ff 	mov.w	r0, #4294967295	; 0xffffffff
 8001ace:	bd08      	pop	{r3, pc}

08001ad0 <_lseek>:
 Set position in a file. Minimal implementation:
 */
__attribute__((weak))
int _lseek(int file __unused, int ptr __unused, int dir __unused) {
	return 0;
}
 8001ad0:	2000      	movs	r0, #0
 8001ad2:	4770      	bx	lr

08001ad4 <_sbrk>:
*/

register char * stack_ptr asm("sp");

caddr_t _sbrk(int incr)
{
 8001ad4:	b508      	push	{r3, lr}
 8001ad6:	4603      	mov	r3, r0
	extern char end asm("end");
	static char *heap_end;
	char *prev_heap_end;

	if (heap_end == 0)
 8001ad8:	4a0b      	ldr	r2, [pc, #44]	; (8001b08 <_sbrk+0x34>)
 8001ada:	6812      	ldr	r2, [r2, #0]
 8001adc:	b142      	cbz	r2, 8001af0 <_sbrk+0x1c>
		heap_end = &end;

	prev_heap_end = heap_end;
 8001ade:	4a0a      	ldr	r2, [pc, #40]	; (8001b08 <_sbrk+0x34>)
 8001ae0:	6810      	ldr	r0, [r2, #0]
	if (heap_end + incr > stack_ptr)
 8001ae2:	4403      	add	r3, r0
 8001ae4:	466a      	mov	r2, sp
 8001ae6:	4293      	cmp	r3, r2
 8001ae8:	d806      	bhi.n	8001af8 <_sbrk+0x24>
//		abort();
		errno = ENOMEM;
		return (caddr_t) -1;
	}

	heap_end += incr;
 8001aea:	4a07      	ldr	r2, [pc, #28]	; (8001b08 <_sbrk+0x34>)
 8001aec:	6013      	str	r3, [r2, #0]

	return (caddr_t) prev_heap_end;
}
 8001aee:	bd08      	pop	{r3, pc}
		heap_end = &end;
 8001af0:	4a05      	ldr	r2, [pc, #20]	; (8001b08 <_sbrk+0x34>)
 8001af2:	4906      	ldr	r1, [pc, #24]	; (8001b0c <_sbrk+0x38>)
 8001af4:	6011      	str	r1, [r2, #0]
 8001af6:	e7f2      	b.n	8001ade <_sbrk+0xa>
		errno = ENOMEM;
 8001af8:	f005 ff90 	bl	8007a1c <__errno>
 8001afc:	230c      	movs	r3, #12
 8001afe:	6003      	str	r3, [r0, #0]
		return (caddr_t) -1;
 8001b00:	f04f 30ff 	mov.w	r0, #4294967295	; 0xffffffff
 8001b04:	e7f3      	b.n	8001aee <_sbrk+0x1a>
 8001b06:	bf00      	nop
 8001b08:	200009c4 	.word	0x200009c4
 8001b0c:	200010a0 	.word	0x200010a0

08001b10 <_sbrk_r>:


void * _sbrk_r(struct _reent *ptr, ptrdiff_t incr)
{
 8001b10:	b538      	push	{r3, r4, r5, lr}
 8001b12:	4605      	mov	r5, r0
 8001b14:	460c      	mov	r4, r1
  char *ret;

  errno = 0;
 8001b16:	f005 ff81 	bl	8007a1c <__errno>
 8001b1a:	2300      	movs	r3, #0
 8001b1c:	6003      	str	r3, [r0, #0]
  if ((ret = (char *)(_sbrk (incr))) == (void *) -1 && errno != 0)
 8001b1e:	4620      	mov	r0, r4
 8001b20:	f7ff ffd8 	bl	8001ad4 <_sbrk>
 8001b24:	4604      	mov	r4, r0
 8001b26:	f1b0 3fff 	cmp.w	r0, #4294967295	; 0xffffffff
 8001b2a:	d001      	beq.n	8001b30 <_sbrk_r+0x20>
    ptr->_errno = errno;
  return ret;
}
 8001b2c:	4620      	mov	r0, r4
 8001b2e:	bd38      	pop	{r3, r4, r5, pc}
  if ((ret = (char *)(_sbrk (incr))) == (void *) -1 && errno != 0)
 8001b30:	f005 ff74 	bl	8007a1c <__errno>
 8001b34:	6803      	ldr	r3, [r0, #0]
 8001b36:	2b00      	cmp	r3, #0
 8001b38:	d0f8      	beq.n	8001b2c <_sbrk_r+0x1c>
    ptr->_errno = errno;
 8001b3a:	f005 ff6f 	bl	8007a1c <__errno>
 8001b3e:	6803      	ldr	r3, [r0, #0]
 8001b40:	602b      	str	r3, [r5, #0]
  return ret;
 8001b42:	e7f3      	b.n	8001b2c <_sbrk_r+0x1c>

08001b44 <SYS_set_std_usart>:
*/



void SYS_set_std_usart(uart_id_e in, uart_id_e out, uart_id_e err)
{
 8001b44:	b410      	push	{r4}
	uart_initialized = 0xE5E0E5E0;
 8001b46:	4b05      	ldr	r3, [pc, #20]	; (8001b5c <SYS_set_std_usart+0x18>)
 8001b48:	4c05      	ldr	r4, [pc, #20]	; (8001b60 <SYS_set_std_usart+0x1c>)
 8001b4a:	601c      	str	r4, [r3, #0]
	stdin_usart = in;
 8001b4c:	4b05      	ldr	r3, [pc, #20]	; (8001b64 <SYS_set_std_usart+0x20>)
 8001b4e:	7018      	strb	r0, [r3, #0]
	stdout_usart = out;
 8001b50:	4b05      	ldr	r3, [pc, #20]	; (8001b68 <SYS_set_std_usart+0x24>)
 8001b52:	7019      	strb	r1, [r3, #0]
	stderr_usart = err;
 8001b54:	4b05      	ldr	r3, [pc, #20]	; (8001b6c <SYS_set_std_usart+0x28>)
 8001b56:	701a      	strb	r2, [r3, #0]
}
 8001b58:	bc10      	pop	{r4}
 8001b5a:	4770      	bx	lr
 8001b5c:	200009cc 	.word	0x200009cc
 8001b60:	e5e0e5e0 	.word	0xe5e0e5e0
 8001b64:	200009c9 	.word	0x200009c9
 8001b68:	200009ca 	.word	0x200009ca
 8001b6c:	200009c8 	.word	0x200009c8

08001b70 <_read>:
 read
 Read a character to a file. `libc' subroutines will use this system routine for input from all files, including stdin
 Returns -1 on error or blocks until the number of characters have been read.
 */
__attribute__((weak))
int _read(int file, char *ptr, int len) {
 8001b70:	b5f8      	push	{r3, r4, r5, r6, r7, lr}
	int n;
	int num = 0;
	switch (file) {
 8001b72:	b9c0      	cbnz	r0, 8001ba6 <_read+0x36>
 8001b74:	460c      	mov	r4, r1
 8001b76:	4617      	mov	r7, r2
 8001b78:	4605      	mov	r5, r0
	int num = 0;
 8001b7a:	4606      	mov	r6, r0
 8001b7c:	e00f      	b.n	8001b9e <_read+0x2e>
			for (n = 0; n < len; n++)
			{
				/*while ((stdin_usart->SR & USART_FLAG_RXNE) == (uint16_t)RESET);
				char c = (char)(stdin_usart->DR & (uint16_t)0x01FF);*/
				char c;
				while(!UART_data_ready(stdin_usart));	//Blocant.
 8001b7e:	4b0d      	ldr	r3, [pc, #52]	; (8001bb4 <_read+0x44>)
 8001b80:	7818      	ldrb	r0, [r3, #0]
 8001b82:	f000 fafb 	bl	800217c <UART_data_ready>
 8001b86:	2800      	cmp	r0, #0
 8001b88:	d0f9      	beq.n	8001b7e <_read+0xe>
				c = UART_get_next_byte(stdin_usart);
 8001b8a:	4b0a      	ldr	r3, [pc, #40]	; (8001bb4 <_read+0x44>)
 8001b8c:	7818      	ldrb	r0, [r3, #0]
 8001b8e:	f000 fb09 	bl	80021a4 <UART_get_next_byte>
				*ptr++ = c;
 8001b92:	4621      	mov	r1, r4
 8001b94:	f801 0b01 	strb.w	r0, [r1], #1
				num++;
 8001b98:	3601      	adds	r6, #1
			for (n = 0; n < len; n++)
 8001b9a:	3501      	adds	r5, #1
				*ptr++ = c;
 8001b9c:	460c      	mov	r4, r1
			for (n = 0; n < len; n++)
 8001b9e:	42bd      	cmp	r5, r7
 8001ba0:	dbed      	blt.n	8001b7e <_read+0xe>
		default:
			errno = EBADF;
			return -1;
	}
	return num;
}
 8001ba2:	4630      	mov	r0, r6
 8001ba4:	bdf8      	pop	{r3, r4, r5, r6, r7, pc}
			errno = EBADF;
 8001ba6:	f005 ff39 	bl	8007a1c <__errno>
 8001baa:	2309      	movs	r3, #9
 8001bac:	6003      	str	r3, [r0, #0]
			return -1;
 8001bae:	f04f 36ff 	mov.w	r6, #4294967295	; 0xffffffff
 8001bb2:	e7f6      	b.n	8001ba2 <_read+0x32>
 8001bb4:	200009c9 	.word	0x200009c9

08001bb8 <_write>:
 write
 Write a character to a file. `libc' subroutines will use this system routine for output to all files, including stdout
 Returns -1 on error or number of bytes sent
 */
__attribute__((weak))
int _write(int file, char *ptr, int len) {
 8001bb8:	b570      	push	{r4, r5, r6, lr}
 8001bba:	4615      	mov	r5, r2
	int n;
	switch (file) {
 8001bbc:	2801      	cmp	r0, #1
 8001bbe:	d015      	beq.n	8001bec <_write+0x34>
 8001bc0:	2802      	cmp	r0, #2
 8001bc2:	d021      	beq.n	8001c08 <_write+0x50>
				UART_putc(stderr_usart,*ptr++);
#endif
			}
			break;
		default:
			errno = EBADF;
 8001bc4:	f005 ff2a 	bl	8007a1c <__errno>
 8001bc8:	2309      	movs	r3, #9
 8001bca:	6003      	str	r3, [r0, #0]
			return -1;
 8001bcc:	f04f 35ff 	mov.w	r5, #4294967295	; 0xffffffff
 8001bd0:	e00a      	b.n	8001be8 <_write+0x30>
				UART_putc(stdout_usart,*ptr++);
 8001bd2:	460c      	mov	r4, r1
 8001bd4:	f814 1b01 	ldrb.w	r1, [r4], #1
 8001bd8:	4b0c      	ldr	r3, [pc, #48]	; (8001c0c <_write+0x54>)
 8001bda:	7818      	ldrb	r0, [r3, #0]
 8001bdc:	f000 fb2a 	bl	8002234 <UART_putc>
			for (n = 0; n < len; n++)
 8001be0:	3601      	adds	r6, #1
				UART_putc(stdout_usart,*ptr++);
 8001be2:	4621      	mov	r1, r4
			for (n = 0; n < len; n++)
 8001be4:	42ae      	cmp	r6, r5
 8001be6:	dbf4      	blt.n	8001bd2 <_write+0x1a>
	}
	return len;
}
 8001be8:	4628      	mov	r0, r5
 8001bea:	bd70      	pop	{r4, r5, r6, pc}
	switch (file) {
 8001bec:	2600      	movs	r6, #0
 8001bee:	e7f9      	b.n	8001be4 <_write+0x2c>
				UART_putc(stderr_usart,*ptr++);
 8001bf0:	460c      	mov	r4, r1
 8001bf2:	f814 1b01 	ldrb.w	r1, [r4], #1
 8001bf6:	4b06      	ldr	r3, [pc, #24]	; (8001c10 <_write+0x58>)
 8001bf8:	7818      	ldrb	r0, [r3, #0]
 8001bfa:	f000 fb1b 	bl	8002234 <UART_putc>
			for (n = 0; n < len; n++)
 8001bfe:	3601      	adds	r6, #1
				UART_putc(stderr_usart,*ptr++);
 8001c00:	4621      	mov	r1, r4
			for (n = 0; n < len; n++)
 8001c02:	42ae      	cmp	r6, r5
 8001c04:	dbf4      	blt.n	8001bf0 <_write+0x38>
 8001c06:	e7ef      	b.n	8001be8 <_write+0x30>
	switch (file) {
 8001c08:	2600      	movs	r6, #0
 8001c0a:	e7fa      	b.n	8001c02 <_write+0x4a>
 8001c0c:	200009ca 	.word	0x200009ca
 8001c10:	200009c8 	.word	0x200009c8

08001c14 <_exit>:
void _exit(int status __unused) {
 8001c14:	b508      	push	{r3, lr}
	_write(1, "exit", 4);
 8001c16:	2204      	movs	r2, #4
 8001c18:	4902      	ldr	r1, [pc, #8]	; (8001c24 <_exit+0x10>)
 8001c1a:	2001      	movs	r0, #1
 8001c1c:	f7ff ffcc 	bl	8001bb8 <_write>
	while (1) {
 8001c20:	e7fe      	b.n	8001c20 <_exit+0xc>
 8001c22:	bf00      	nop
 8001c24:	0800af24 	.word	0x0800af24

08001c28 <dump_printf>:


#define DUMP_PRINTF_BUFFER_SIZE	256
uint32_t dump_printf(const char *format, ...) {
 8001c28:	b40f      	push	{r0, r1, r2, r3}
 8001c2a:	b510      	push	{r4, lr}
 8001c2c:	b0c2      	sub	sp, #264	; 0x108
 8001c2e:	ab44      	add	r3, sp, #272	; 0x110
 8001c30:	f853 2b04 	ldr.w	r2, [r3], #4
	uint32_t ret;

	va_list args_list;
	va_start(args_list, format);
 8001c34:	9341      	str	r3, [sp, #260]	; 0x104
	uint8_t buf[DUMP_PRINTF_BUFFER_SIZE];

	ret = (uint32_t)vsnprintf((char*)buf, DUMP_PRINTF_BUFFER_SIZE, format, args_list);	//Prpare la chaine  envoyer.
 8001c36:	f44f 7180 	mov.w	r1, #256	; 0x100
 8001c3a:	a801      	add	r0, sp, #4
 8001c3c:	f005 fc76 	bl	800752c <vsnprintf>
 8001c40:	4604      	mov	r4, r0
	if(ret >= DUMP_PRINTF_BUFFER_SIZE)
 8001c42:	28ff      	cmp	r0, #255	; 0xff
 8001c44:	d80a      	bhi.n	8001c5c <dump_printf+0x34>
		ret = DUMP_PRINTF_BUFFER_SIZE-1;

	UART_impolite_force_puts_on_uart(UART2_ID, buf, ret);
 8001c46:	4622      	mov	r2, r4
 8001c48:	a901      	add	r1, sp, #4
 8001c4a:	2001      	movs	r0, #1
 8001c4c:	f000 fb2c 	bl	80022a8 <UART_impolite_force_puts_on_uart>

	va_end(args_list);
	return ret;
}
 8001c50:	4620      	mov	r0, r4
 8001c52:	b042      	add	sp, #264	; 0x108
 8001c54:	e8bd 4010 	ldmia.w	sp!, {r4, lr}
 8001c58:	b004      	add	sp, #16
 8001c5a:	4770      	bx	lr
		ret = DUMP_PRINTF_BUFFER_SIZE-1;
 8001c5c:	24ff      	movs	r4, #255	; 0xff
 8001c5e:	e7f2      	b.n	8001c46 <dump_printf+0x1e>

08001c60 <dump_trap_info>:
	dump_printf("ASSERT FAILED file : %s, line %ld\n", file, line);
	while(1);
}


void dump_trap_info(uint32_t stack_ptr[], uint32_t lr) {
 8001c60:	b5f8      	push	{r3, r4, r5, r6, r7, lr}
	extern char _estack;	//Defined by the linker, end of stack
	if(uart_initialized != 0xE5E0E5E0)
 8001c62:	4b33      	ldr	r3, [pc, #204]	; (8001d30 <dump_trap_info+0xd0>)
 8001c64:	681a      	ldr	r2, [r3, #0]
 8001c66:	4b33      	ldr	r3, [pc, #204]	; (8001d34 <dump_trap_info+0xd4>)
 8001c68:	429a      	cmp	r2, r3
 8001c6a:	d130      	bne.n	8001cce <dump_trap_info+0x6e>
 8001c6c:	4605      	mov	r5, r0
 8001c6e:	460c      	mov	r4, r1
  __ASM volatile ("MRS %0, ipsr" : "=r" (result) );
 8001c70:	f3ef 8105 	mrs	r1, IPSR
	{
		NVIC_SystemReset();
	}
	dump_printf("FATAL Error ! Exception %ld\n", __get_IPSR() & 0xFF);
 8001c74:	b2c9      	uxtb	r1, r1
 8001c76:	4830      	ldr	r0, [pc, #192]	; (8001d38 <dump_trap_info+0xd8>)
 8001c78:	f7ff ffd6 	bl	8001c28 <dump_printf>
		13 = Reserved
		14 = PendSV
		15 = SysTick
		16 = IRQ0.
	*/
	if(lr & 0x00000008)
 8001c7c:	f014 0f08 	tst.w	r4, #8
 8001c80:	d032      	beq.n	8001ce8 <dump_trap_info+0x88>
		dump_printf("CPU was in thread mode\n");
 8001c82:	482e      	ldr	r0, [pc, #184]	; (8001d3c <dump_trap_info+0xdc>)
 8001c84:	f7ff ffd0 	bl	8001c28 <dump_printf>
	else dump_printf("CPU was in handler mode\n");

	int offset, i;
	offset = 0;

	dump_printf("CPU status was:\n");
 8001c88:	482d      	ldr	r0, [pc, #180]	; (8001d40 <dump_trap_info+0xe0>)
 8001c8a:	f7ff ffcd 	bl	8001c28 <dump_printf>
	dump_printf("-  R0: 0x%08lX  R1: 0x%08lX\n", stack_ptr[offset], stack_ptr[offset + 1]); offset += 2;
 8001c8e:	686a      	ldr	r2, [r5, #4]
 8001c90:	6829      	ldr	r1, [r5, #0]
 8001c92:	482c      	ldr	r0, [pc, #176]	; (8001d44 <dump_trap_info+0xe4>)
 8001c94:	f7ff ffc8 	bl	8001c28 <dump_printf>
	dump_printf("-  R2: 0x%08lX  R3: 0x%08lX\n", stack_ptr[offset], stack_ptr[offset + 1]); offset += 2;
 8001c98:	68ea      	ldr	r2, [r5, #12]
 8001c9a:	68a9      	ldr	r1, [r5, #8]
 8001c9c:	482a      	ldr	r0, [pc, #168]	; (8001d48 <dump_trap_info+0xe8>)
 8001c9e:	f7ff ffc3 	bl	8001c28 <dump_printf>
	dump_printf("- R12: 0x%08lX\n", stack_ptr[offset++]);
 8001ca2:	6929      	ldr	r1, [r5, #16]
 8001ca4:	4829      	ldr	r0, [pc, #164]	; (8001d4c <dump_trap_info+0xec>)
 8001ca6:	f7ff ffbf 	bl	8001c28 <dump_printf>
	dump_printf("- LR:   0x%08lX\n", stack_ptr[offset++]);
 8001caa:	6969      	ldr	r1, [r5, #20]
 8001cac:	4828      	ldr	r0, [pc, #160]	; (8001d50 <dump_trap_info+0xf0>)
 8001cae:	f7ff ffbb 	bl	8001c28 <dump_printf>
	dump_printf("- PC:   0x%08lX\n", stack_ptr[offset++]);
 8001cb2:	69a9      	ldr	r1, [r5, #24]
 8001cb4:	4827      	ldr	r0, [pc, #156]	; (8001d54 <dump_trap_info+0xf4>)
 8001cb6:	f7ff ffb7 	bl	8001c28 <dump_printf>
	dump_printf("- xPSR: 0x%08lX\n\n", stack_ptr[offset++]);
 8001cba:	69e9      	ldr	r1, [r5, #28]
 8001cbc:	4826      	ldr	r0, [pc, #152]	; (8001d58 <dump_trap_info+0xf8>)
 8001cbe:	f7ff ffb3 	bl	8001c28 <dump_printf>
		dump_printf("- FPSCR: 0x%08lX\n", stack_ptr[offset++]);
		offset++; //empty value at end
	}
	*/

	dump_printf("Stack was: \n");
 8001cc2:	4826      	ldr	r0, [pc, #152]	; (8001d5c <dump_trap_info+0xfc>)
 8001cc4:	f7ff ffb0 	bl	8001c28 <dump_printf>
	for(i=0; i < 32 && (char*)&(stack_ptr[offset]) < &_estack; i++) {
 8001cc8:	2300      	movs	r3, #0
	dump_printf("- xPSR: 0x%08lX\n\n", stack_ptr[offset++]);
 8001cca:	2408      	movs	r4, #8
	for(i=0; i < 32 && (char*)&(stack_ptr[offset]) < &_estack; i++) {
 8001ccc:	e016      	b.n	8001cfc <dump_trap_info+0x9c>
  __ASM volatile ("dsb 0xF":::"memory");
 8001cce:	f3bf 8f4f 	dsb	sy
                           (SCB->AIRCR & SCB_AIRCR_PRIGROUP_Msk) |
 8001cd2:	4923      	ldr	r1, [pc, #140]	; (8001d60 <dump_trap_info+0x100>)
 8001cd4:	68ca      	ldr	r2, [r1, #12]
 8001cd6:	f402 62e0 	and.w	r2, r2, #1792	; 0x700
  SCB->AIRCR  = (uint32_t)((0x5FAUL << SCB_AIRCR_VECTKEY_Pos)    |
 8001cda:	4b22      	ldr	r3, [pc, #136]	; (8001d64 <dump_trap_info+0x104>)
 8001cdc:	4313      	orrs	r3, r2
 8001cde:	60cb      	str	r3, [r1, #12]
 8001ce0:	f3bf 8f4f 	dsb	sy
  __ASM volatile ("nop");
 8001ce4:	bf00      	nop
 8001ce6:	e7fd      	b.n	8001ce4 <dump_trap_info+0x84>
	else dump_printf("CPU was in handler mode\n");
 8001ce8:	481f      	ldr	r0, [pc, #124]	; (8001d68 <dump_trap_info+0x108>)
 8001cea:	f7ff ff9d 	bl	8001c28 <dump_printf>
 8001cee:	e7cb      	b.n	8001c88 <dump_trap_info+0x28>
		if(!((i + 1) % 4) && i)
			dump_printf("\n");
		dump_printf("0x%08lX ", stack_ptr[offset++]);
 8001cf0:	3401      	adds	r4, #1
 8001cf2:	59e9      	ldr	r1, [r5, r7]
 8001cf4:	481d      	ldr	r0, [pc, #116]	; (8001d6c <dump_trap_info+0x10c>)
 8001cf6:	f7ff ff97 	bl	8001c28 <dump_printf>
	for(i=0; i < 32 && (char*)&(stack_ptr[offset]) < &_estack; i++) {
 8001cfa:	4633      	mov	r3, r6
 8001cfc:	2b1f      	cmp	r3, #31
 8001cfe:	dc0f      	bgt.n	8001d20 <dump_trap_info+0xc0>
 8001d00:	00a7      	lsls	r7, r4, #2
 8001d02:	eb05 0184 	add.w	r1, r5, r4, lsl #2
 8001d06:	4a1a      	ldr	r2, [pc, #104]	; (8001d70 <dump_trap_info+0x110>)
 8001d08:	4291      	cmp	r1, r2
 8001d0a:	d209      	bcs.n	8001d20 <dump_trap_info+0xc0>
		if(!((i + 1) % 4) && i)
 8001d0c:	1c5e      	adds	r6, r3, #1
 8001d0e:	f016 0f03 	tst.w	r6, #3
 8001d12:	d1ed      	bne.n	8001cf0 <dump_trap_info+0x90>
 8001d14:	2b00      	cmp	r3, #0
 8001d16:	d0eb      	beq.n	8001cf0 <dump_trap_info+0x90>
			dump_printf("\n");
 8001d18:	4816      	ldr	r0, [pc, #88]	; (8001d74 <dump_trap_info+0x114>)
 8001d1a:	f7ff ff85 	bl	8001c28 <dump_printf>
 8001d1e:	e7e7      	b.n	8001cf0 <dump_trap_info+0x90>
	}
	dump_printf("\n");
 8001d20:	4814      	ldr	r0, [pc, #80]	; (8001d74 <dump_trap_info+0x114>)
 8001d22:	f7ff ff81 	bl	8001c28 <dump_printf>


	dump_printf("END of Fault Handler\n");
 8001d26:	4814      	ldr	r0, [pc, #80]	; (8001d78 <dump_trap_info+0x118>)
 8001d28:	f7ff ff7e 	bl	8001c28 <dump_printf>
}
 8001d2c:	bdf8      	pop	{r3, r4, r5, r6, r7, pc}
 8001d2e:	bf00      	nop
 8001d30:	200009cc 	.word	0x200009cc
 8001d34:	e5e0e5e0 	.word	0xe5e0e5e0
 8001d38:	0800af2c 	.word	0x0800af2c
 8001d3c:	0800af4c 	.word	0x0800af4c
 8001d40:	0800af80 	.word	0x0800af80
 8001d44:	0800af94 	.word	0x0800af94
 8001d48:	0800afb4 	.word	0x0800afb4
 8001d4c:	0800afd4 	.word	0x0800afd4
 8001d50:	0800afe4 	.word	0x0800afe4
 8001d54:	0800aff8 	.word	0x0800aff8
 8001d58:	0800b00c 	.word	0x0800b00c
 8001d5c:	0800b020 	.word	0x0800b020
 8001d60:	e000ed00 	.word	0xe000ed00
 8001d64:	05fa0004 	.word	0x05fa0004
 8001d68:	0800af64 	.word	0x0800af64
 8001d6c:	0800b030 	.word	0x0800b030
 8001d70:	20005000 	.word	0x20005000
 8001d74:	0800b01c 	.word	0x0800b01c
 8001d78:	0800b03c 	.word	0x0800b03c

08001d7c <BusFault_Handler>:

__attribute__((naked)) void Fault_Handler(void)
{
	//On ne veux pas perdre l'tat des registres, donc pas de C
	//l'attribut naked indique qu'on ne veux pas de prologue / epilogue gnrs par GCC
	__asm volatile
 8001d7c:	f01e 0f04 	tst.w	lr, #4
 8001d80:	bf0c      	ite	eq
 8001d82:	f3ef 8008 	mrseq	r0, MSP
 8001d86:	f3ef 8009 	mrsne	r0, PSP
 8001d8a:	4671      	mov	r1, lr
 8001d8c:	f7ff bf68 	b.w	8001c60 <dump_trap_info>

08001d90 <NMI_Handler>:
void MemManage_Handler(void) __attribute__((alias("Fault_Handler"))) 	__attribute__((unused));
void BusFault_Handler(void) __attribute__((alias("Fault_Handler"))) 	__attribute__((unused));
void UsageFault_Handler(void) __attribute__((alias("Fault_Handler"))) 	__attribute__((unused));

void NMI_Handler(void)
{
 8001d90:	b508      	push	{r3, lr}
	dump_printf("NMI: unimplemented\n");
 8001d92:	4802      	ldr	r0, [pc, #8]	; (8001d9c <NMI_Handler+0xc>)
 8001d94:	f7ff ff48 	bl	8001c28 <dump_printf>
}
 8001d98:	bd08      	pop	{r3, pc}
 8001d9a:	bf00      	nop
 8001d9c:	0800b054 	.word	0x0800b054

08001da0 <SVC_Handler>:

void SVC_Handler(void)
{
 8001da0:	b508      	push	{r3, lr}
	dump_printf("SVC interrupt: unimplemented\n");
 8001da2:	4802      	ldr	r0, [pc, #8]	; (8001dac <SVC_Handler+0xc>)
 8001da4:	f7ff ff40 	bl	8001c28 <dump_printf>
}
 8001da8:	bd08      	pop	{r3, pc}
 8001daa:	bf00      	nop
 8001dac:	0800b08c 	.word	0x0800b08c

08001db0 <DebugMon_Handler>:

void DebugMon_Handler(void)
{
 8001db0:	b508      	push	{r3, lr}
	dump_printf("DebugMon: unimplemented\n");
 8001db2:	4802      	ldr	r0, [pc, #8]	; (8001dbc <DebugMon_Handler+0xc>)
 8001db4:	f7ff ff38 	bl	8001c28 <dump_printf>
}
 8001db8:	bd08      	pop	{r3, pc}
 8001dba:	bf00      	nop
 8001dbc:	0800b068 	.word	0x0800b068

08001dc0 <PendSV_Handler>:

void PendSV_Handler(void)
{
 8001dc0:	b508      	push	{r3, lr}
	dump_printf("Pending SVC interrupt: unimplemented\n");
 8001dc2:	4802      	ldr	r0, [pc, #8]	; (8001dcc <PendSV_Handler+0xc>)
 8001dc4:	f7ff ff30 	bl	8001c28 <dump_printf>
}
 8001dc8:	bd08      	pop	{r3, pc}
 8001dca:	bf00      	nop
 8001dcc:	0800b084 	.word	0x0800b084

08001dd0 <TIMER_get_phandler>:
 * @func 	void TIMER_get_phandler(void)
 *///Rcupration de la structure du timer
TIM_HandleTypeDef * TIMER_get_phandler(timer_id_e timer_id)
{
	return &TIMER_HandleStructure[timer_id];
}
 8001dd0:	4b01      	ldr	r3, [pc, #4]	; (8001dd8 <TIMER_get_phandler+0x8>)
 8001dd2:	eb03 1080 	add.w	r0, r3, r0, lsl #6
 8001dd6:	4770      	bx	lr
 8001dd8:	200009d0 	.word	0x200009d0

08001ddc <TIMER1_user_handler_it>:
//Ainsi, si l'utilisateur dfinie sa propre TIMER1_user_handler_it_1ms(), elle sera appele
//Sinon, aucun message d'erreur n'indiquera que cette fonction n'existe pas !
__weak void TIMER1_user_handler_it(void)
{

}
 8001ddc:	4770      	bx	lr

08001dde <TIMER2_user_handler_it>:

__weak void TIMER2_user_handler_it(void)
{

}
 8001dde:	4770      	bx	lr

08001de0 <TIMER3_user_handler_it>:

__weak void TIMER3_user_handler_it(void)
{

}
 8001de0:	4770      	bx	lr

08001de2 <TIMER4_user_handler_it>:

__weak void TIMER4_user_handler_it(void)
{

}
 8001de2:	4770      	bx	lr

08001de4 <TIM1_UP_IRQHandler>:
 * @func 	void TIM1_IRQHandler(void)
 * @pre		Cette fonction NE DOIT PAS tre appele directement par l'utilisateur...
 * @post	Acquittement du flag d'interruption, et appel de la fonction de l'utilisateur : TIMER1_user_handler_it_1ms()
 * @note	Nous n'avons PAS le choix du nom de cette fonction, c'est comme a qu'elle est nomme dans le fichier startup.s !
 */
void TIM1_UP_IRQHandler(void){
 8001de4:	b508      	push	{r3, lr}
	if(__HAL_TIM_GET_IT_SOURCE(&TIMER_HandleStructure[TIMER1_ID], TIM_IT_UPDATE) != RESET) 	//Si le flag est lev...
 8001de6:	4b06      	ldr	r3, [pc, #24]	; (8001e00 <TIM1_UP_IRQHandler+0x1c>)
 8001de8:	681b      	ldr	r3, [r3, #0]
 8001dea:	68da      	ldr	r2, [r3, #12]
 8001dec:	f012 0f01 	tst.w	r2, #1
 8001df0:	d100      	bne.n	8001df4 <TIM1_UP_IRQHandler+0x10>
	{
		__HAL_TIM_CLEAR_IT(&TIMER_HandleStructure[TIMER1_ID], TIM_IT_UPDATE);				//...On l'acquitte...
		TIMER1_user_handler_it();									//...Et on appelle la fonction qui nous intresse
	}
}
 8001df2:	bd08      	pop	{r3, pc}
		__HAL_TIM_CLEAR_IT(&TIMER_HandleStructure[TIMER1_ID], TIM_IT_UPDATE);				//...On l'acquitte...
 8001df4:	f06f 0201 	mvn.w	r2, #1
 8001df8:	611a      	str	r2, [r3, #16]
		TIMER1_user_handler_it();									//...Et on appelle la fonction qui nous intresse
 8001dfa:	f7ff ffef 	bl	8001ddc <TIMER1_user_handler_it>
}
 8001dfe:	e7f8      	b.n	8001df2 <TIM1_UP_IRQHandler+0xe>
 8001e00:	200009d0 	.word	0x200009d0

08001e04 <TIM2_IRQHandler>:

void TIM2_IRQHandler(void){
 8001e04:	b508      	push	{r3, lr}
	if(__HAL_TIM_GET_IT_SOURCE(&TIMER_HandleStructure[TIMER2_ID], TIM_IT_UPDATE) != RESET) 	//Si le flag est lev...
 8001e06:	4b06      	ldr	r3, [pc, #24]	; (8001e20 <TIM2_IRQHandler+0x1c>)
 8001e08:	6c1b      	ldr	r3, [r3, #64]	; 0x40
 8001e0a:	68da      	ldr	r2, [r3, #12]
 8001e0c:	f012 0f01 	tst.w	r2, #1
 8001e10:	d100      	bne.n	8001e14 <TIM2_IRQHandler+0x10>
	{
		__HAL_TIM_CLEAR_IT(&TIMER_HandleStructure[TIMER2_ID], TIM_IT_UPDATE);				//...On l'acquitte...
		TIMER2_user_handler_it();									//...Et on appelle la fonction qui nous intresse
	}
}
 8001e12:	bd08      	pop	{r3, pc}
		__HAL_TIM_CLEAR_IT(&TIMER_HandleStructure[TIMER2_ID], TIM_IT_UPDATE);				//...On l'acquitte...
 8001e14:	f06f 0201 	mvn.w	r2, #1
 8001e18:	611a      	str	r2, [r3, #16]
		TIMER2_user_handler_it();									//...Et on appelle la fonction qui nous intresse
 8001e1a:	f7ff ffe0 	bl	8001dde <TIMER2_user_handler_it>
}
 8001e1e:	e7f8      	b.n	8001e12 <TIM2_IRQHandler+0xe>
 8001e20:	200009d0 	.word	0x200009d0

08001e24 <TIM3_IRQHandler>:

void TIM3_IRQHandler(void){
 8001e24:	b508      	push	{r3, lr}
	if(__HAL_TIM_GET_IT_SOURCE(&TIMER_HandleStructure[TIMER3_ID], TIM_IT_UPDATE) != RESET) 	//Si le flag est lev...
 8001e26:	4b07      	ldr	r3, [pc, #28]	; (8001e44 <TIM3_IRQHandler+0x20>)
 8001e28:	f8d3 3080 	ldr.w	r3, [r3, #128]	; 0x80
 8001e2c:	68da      	ldr	r2, [r3, #12]
 8001e2e:	f012 0f01 	tst.w	r2, #1
 8001e32:	d100      	bne.n	8001e36 <TIM3_IRQHandler+0x12>
	{
		__HAL_TIM_CLEAR_IT(&TIMER_HandleStructure[TIMER3_ID], TIM_IT_UPDATE);				//...On l'acquitte...
		TIMER3_user_handler_it();									//...Et on appelle la fonction qui nous intresse
	}
}
 8001e34:	bd08      	pop	{r3, pc}
		__HAL_TIM_CLEAR_IT(&TIMER_HandleStructure[TIMER3_ID], TIM_IT_UPDATE);				//...On l'acquitte...
 8001e36:	f06f 0201 	mvn.w	r2, #1
 8001e3a:	611a      	str	r2, [r3, #16]
		TIMER3_user_handler_it();									//...Et on appelle la fonction qui nous intresse
 8001e3c:	f7ff ffd0 	bl	8001de0 <TIMER3_user_handler_it>
}
 8001e40:	e7f8      	b.n	8001e34 <TIM3_IRQHandler+0x10>
 8001e42:	bf00      	nop
 8001e44:	200009d0 	.word	0x200009d0

08001e48 <TIM4_IRQHandler>:

void TIM4_IRQHandler(void){
 8001e48:	b508      	push	{r3, lr}
	if(__HAL_TIM_GET_IT_SOURCE(&TIMER_HandleStructure[TIMER4_ID], TIM_IT_UPDATE) != RESET) 	//Si le flag est lev...
 8001e4a:	4b07      	ldr	r3, [pc, #28]	; (8001e68 <TIM4_IRQHandler+0x20>)
 8001e4c:	f8d3 30c0 	ldr.w	r3, [r3, #192]	; 0xc0
 8001e50:	68da      	ldr	r2, [r3, #12]
 8001e52:	f012 0f01 	tst.w	r2, #1
 8001e56:	d100      	bne.n	8001e5a <TIM4_IRQHandler+0x12>
	{
		__HAL_TIM_CLEAR_IT(&TIMER_HandleStructure[TIMER4_ID], TIM_IT_UPDATE);				//...On l'acquitte...
		TIMER4_user_handler_it();									//...Et on appelle la fonction qui nous intresse
	}
}
 8001e58:	bd08      	pop	{r3, pc}
		__HAL_TIM_CLEAR_IT(&TIMER_HandleStructure[TIMER4_ID], TIM_IT_UPDATE);				//...On l'acquitte...
 8001e5a:	f06f 0201 	mvn.w	r2, #1
 8001e5e:	611a      	str	r2, [r3, #16]
		TIMER4_user_handler_it();									//...Et on appelle la fonction qui nous intresse
 8001e60:	f7ff ffbf 	bl	8001de2 <TIMER4_user_handler_it>
}
 8001e64:	e7f8      	b.n	8001e58 <TIM4_IRQHandler+0x10>
 8001e66:	bf00      	nop
 8001e68:	200009d0 	.word	0x200009d0

08001e6c <clear_it_status>:
 * @func 	void clear_it_status(void)
 * @pre 	Le timer a ete initialise
 * @post	Le timer est acquit
 */
void clear_it_status(timer_id_e timer_id){
	switch(timer_id)
 8001e6c:	2803      	cmp	r0, #3
 8001e6e:	d81c      	bhi.n	8001eaa <clear_it_status+0x3e>
 8001e70:	e8df f000 	tbb	[pc, r0]
 8001e74:	150e0802 	.word	0x150e0802
	{
		case TIMER1_ID:
			__HAL_TIM_CLEAR_IT(&TIMER_HandleStructure[TIMER1_ID], TIM_IT_UPDATE);
 8001e78:	4b0c      	ldr	r3, [pc, #48]	; (8001eac <clear_it_status+0x40>)
 8001e7a:	681b      	ldr	r3, [r3, #0]
 8001e7c:	f06f 0201 	mvn.w	r2, #1
 8001e80:	611a      	str	r2, [r3, #16]
			break;
 8001e82:	4770      	bx	lr
		case TIMER2_ID:
			__HAL_TIM_CLEAR_IT(&TIMER_HandleStructure[TIMER2_ID], TIM_IT_UPDATE);
 8001e84:	4b09      	ldr	r3, [pc, #36]	; (8001eac <clear_it_status+0x40>)
 8001e86:	6c1b      	ldr	r3, [r3, #64]	; 0x40
 8001e88:	f06f 0201 	mvn.w	r2, #1
 8001e8c:	611a      	str	r2, [r3, #16]
			break;
 8001e8e:	4770      	bx	lr
		case TIMER3_ID:
			__HAL_TIM_CLEAR_IT(&TIMER_HandleStructure[TIMER3_ID], TIM_IT_UPDATE);
 8001e90:	4b06      	ldr	r3, [pc, #24]	; (8001eac <clear_it_status+0x40>)
 8001e92:	f8d3 3080 	ldr.w	r3, [r3, #128]	; 0x80
 8001e96:	f06f 0201 	mvn.w	r2, #1
 8001e9a:	611a      	str	r2, [r3, #16]
			break;
 8001e9c:	4770      	bx	lr
		case TIMER4_ID:
			__HAL_TIM_CLEAR_IT(&TIMER_HandleStructure[TIMER4_ID], TIM_IT_UPDATE);				//...On l'acquitte...
 8001e9e:	4b03      	ldr	r3, [pc, #12]	; (8001eac <clear_it_status+0x40>)
 8001ea0:	f8d3 30c0 	ldr.w	r3, [r3, #192]	; 0xc0
 8001ea4:	f06f 0201 	mvn.w	r2, #1
 8001ea8:	611a      	str	r2, [r3, #16]
			break;
		default:
			break;

	}
}
 8001eaa:	4770      	bx	lr
 8001eac:	200009d0 	.word	0x200009d0

08001eb0 <TIMER_run_us>:
{
 8001eb0:	e92d 41f0 	stmdb	sp!, {r4, r5, r6, r7, r8, lr}
 8001eb4:	b084      	sub	sp, #16
 8001eb6:	4604      	mov	r4, r0
 8001eb8:	4688      	mov	r8, r1
 8001eba:	4615      	mov	r5, r2
	switch(timer_id)
 8001ebc:	2803      	cmp	r0, #3
 8001ebe:	d80d      	bhi.n	8001edc <TIMER_run_us+0x2c>
 8001ec0:	e8df f000 	tbb	[pc, r0]
 8001ec4:	695e5302 	.word	0x695e5302
			__HAL_RCC_TIM1_CLK_ENABLE();
 8001ec8:	4b5d      	ldr	r3, [pc, #372]	; (8002040 <TIMER_run_us+0x190>)
 8001eca:	699a      	ldr	r2, [r3, #24]
 8001ecc:	f442 6200 	orr.w	r2, r2, #2048	; 0x800
 8001ed0:	619a      	str	r2, [r3, #24]
 8001ed2:	699b      	ldr	r3, [r3, #24]
 8001ed4:	f403 6300 	and.w	r3, r3, #2048	; 0x800
 8001ed8:	9300      	str	r3, [sp, #0]
 8001eda:	9b00      	ldr	r3, [sp, #0]
	TIMER_HandleStructure[timer_id].Instance = (TIM_TypeDef*)instance_array[timer_id]; //On donne le timer en instance  notre gestionnaire (Handle)
 8001edc:	4b59      	ldr	r3, [pc, #356]	; (8002044 <TIMER_run_us+0x194>)
 8001ede:	f853 1024 	ldr.w	r1, [r3, r4, lsl #2]
 8001ee2:	01a3      	lsls	r3, r4, #6
 8001ee4:	4a58      	ldr	r2, [pc, #352]	; (8002048 <TIMER_run_us+0x198>)
 8001ee6:	50d1      	str	r1, [r2, r3]
	if(timer_id == TIMER1_ID)
 8001ee8:	2c00      	cmp	r4, #0
 8001eea:	d15f      	bne.n	8001fac <TIMER_run_us+0xfc>
		freq = HAL_RCC_GetPCLK2Freq();
 8001eec:	f002 fa24 	bl	8004338 <HAL_RCC_GetPCLK2Freq>
 8001ef0:	4602      	mov	r2, r0
		if((RCC->CFGR & RCC_CFGR_PPRE2) >> 11 != RCC_HCLK_DIV1)
 8001ef2:	4b53      	ldr	r3, [pc, #332]	; (8002040 <TIMER_run_us+0x190>)
 8001ef4:	685b      	ldr	r3, [r3, #4]
 8001ef6:	f413 5f60 	tst.w	r3, #14336	; 0x3800
 8001efa:	d000      	beq.n	8001efe <TIMER_run_us+0x4e>
			freq *= 2;
 8001efc:	0042      	lsls	r2, r0, #1
	uint64_t nb_psec_per_event = (uint64_t)(1000000000000/freq);
 8001efe:	2300      	movs	r3, #0
 8001f00:	a14d      	add	r1, pc, #308	; (adr r1, 8002038 <TIMER_run_us+0x188>)
 8001f02:	e9d1 0100 	ldrd	r0, r1, [r1]
 8001f06:	f7fe ff2f 	bl	8000d68 <__aeabi_ldivmod>
 8001f0a:	4606      	mov	r6, r0
 8001f0c:	460f      	mov	r7, r1
	uint64_t period = (((uint64_t)(us))*1000000)/nb_psec_per_event;
 8001f0e:	ea4f 62d8 	mov.w	r2, r8, lsr #27
 8001f12:	ea4f 1348 	mov.w	r3, r8, lsl #5
 8001f16:	ebb3 0308 	subs.w	r3, r3, r8
 8001f1a:	f162 0200 	sbc.w	r2, r2, #0
 8001f1e:	0252      	lsls	r2, r2, #9
 8001f20:	ea42 52d3 	orr.w	r2, r2, r3, lsr #23
 8001f24:	025b      	lsls	r3, r3, #9
 8001f26:	eb13 0308 	adds.w	r3, r3, r8
 8001f2a:	f142 0200 	adc.w	r2, r2, #0
 8001f2e:	0191      	lsls	r1, r2, #6
 8001f30:	ea41 6193 	orr.w	r1, r1, r3, lsr #26
 8001f34:	0198      	lsls	r0, r3, #6
 8001f36:	1ac0      	subs	r0, r0, r3
 8001f38:	eb61 0102 	sbc.w	r1, r1, r2
 8001f3c:	eb10 0008 	adds.w	r0, r0, r8
 8001f40:	4632      	mov	r2, r6
 8001f42:	463b      	mov	r3, r7
 8001f44:	f141 0100 	adc.w	r1, r1, #0
 8001f48:	f7fe ff5e 	bl	8000e08 <__aeabi_uldivmod>
 8001f4c:	4603      	mov	r3, r0
 8001f4e:	468c      	mov	ip, r1
	if(period > 65536)
 8001f50:	f1b0 1f01 	cmp.w	r0, #65537	; 0x10001
 8001f54:	f171 0100 	sbcs.w	r1, r1, #0
 8001f58:	d25b      	bcs.n	8002012 <TIMER_run_us+0x162>
		TIMER_HandleStructure[timer_id].Init.Prescaler 	= 0;
 8001f5a:	4b3b      	ldr	r3, [pc, #236]	; (8002048 <TIMER_run_us+0x198>)
 8001f5c:	eb03 1384 	add.w	r3, r3, r4, lsl #6
 8001f60:	2200      	movs	r2, #0
 8001f62:	605a      	str	r2, [r3, #4]
		TIMER_HandleStructure[timer_id].Init.Period 	= (uint32_t)period - 1;
 8001f64:	3801      	subs	r0, #1
 8001f66:	60d8      	str	r0, [r3, #12]
 8001f68:	e03c      	b.n	8001fe4 <TIMER_run_us+0x134>
			__HAL_RCC_TIM2_CLK_ENABLE();
 8001f6a:	4b35      	ldr	r3, [pc, #212]	; (8002040 <TIMER_run_us+0x190>)
 8001f6c:	69da      	ldr	r2, [r3, #28]
 8001f6e:	f042 0201 	orr.w	r2, r2, #1
 8001f72:	61da      	str	r2, [r3, #28]
 8001f74:	69db      	ldr	r3, [r3, #28]
 8001f76:	f003 0301 	and.w	r3, r3, #1
 8001f7a:	9301      	str	r3, [sp, #4]
 8001f7c:	9b01      	ldr	r3, [sp, #4]
			break;
 8001f7e:	e7ad      	b.n	8001edc <TIMER_run_us+0x2c>
			__HAL_RCC_TIM3_CLK_ENABLE();
 8001f80:	4b2f      	ldr	r3, [pc, #188]	; (8002040 <TIMER_run_us+0x190>)
 8001f82:	69da      	ldr	r2, [r3, #28]
 8001f84:	f042 0202 	orr.w	r2, r2, #2
 8001f88:	61da      	str	r2, [r3, #28]
 8001f8a:	69db      	ldr	r3, [r3, #28]
 8001f8c:	f003 0302 	and.w	r3, r3, #2
 8001f90:	9302      	str	r3, [sp, #8]
 8001f92:	9b02      	ldr	r3, [sp, #8]
			break;
 8001f94:	e7a2      	b.n	8001edc <TIMER_run_us+0x2c>
			__HAL_RCC_TIM4_CLK_ENABLE();
 8001f96:	4b2a      	ldr	r3, [pc, #168]	; (8002040 <TIMER_run_us+0x190>)
 8001f98:	69da      	ldr	r2, [r3, #28]
 8001f9a:	f042 0204 	orr.w	r2, r2, #4
 8001f9e:	61da      	str	r2, [r3, #28]
 8001fa0:	69db      	ldr	r3, [r3, #28]
 8001fa2:	f003 0304 	and.w	r3, r3, #4
 8001fa6:	9303      	str	r3, [sp, #12]
 8001fa8:	9b03      	ldr	r3, [sp, #12]
			break;
 8001faa:	e797      	b.n	8001edc <TIMER_run_us+0x2c>
		freq = HAL_RCC_GetPCLK1Freq();
 8001fac:	f002 f9b4 	bl	8004318 <HAL_RCC_GetPCLK1Freq>
 8001fb0:	4602      	mov	r2, r0
		if((RCC->CFGR & RCC_CFGR_PPRE1) >> 8 != RCC_HCLK_DIV1)
 8001fb2:	4b23      	ldr	r3, [pc, #140]	; (8002040 <TIMER_run_us+0x190>)
 8001fb4:	685b      	ldr	r3, [r3, #4]
 8001fb6:	f413 6fe0 	tst.w	r3, #1792	; 0x700
 8001fba:	d0a0      	beq.n	8001efe <TIMER_run_us+0x4e>
			freq *= 2;
 8001fbc:	0042      	lsls	r2, r0, #1
 8001fbe:	e79e      	b.n	8001efe <TIMER_run_us+0x4e>
			prescaler *= 2;
 8001fc0:	0052      	lsls	r2, r2, #1
			period /= 2;
 8001fc2:	085b      	lsrs	r3, r3, #1
 8001fc4:	ea43 73cc 	orr.w	r3, r3, ip, lsl #31
 8001fc8:	ea4f 0c5c 	mov.w	ip, ip, lsr #1
		while(period > 65536)
 8001fcc:	f1b3 1f01 	cmp.w	r3, #65537	; 0x10001
 8001fd0:	f17c 0100 	sbcs.w	r1, ip, #0
 8001fd4:	d2f4      	bcs.n	8001fc0 <TIMER_run_us+0x110>
		TIMER_HandleStructure[timer_id].Init.Prescaler 	= prescaler - 1;	//le prescaler du timer doit tre enregistr avec un offset de -1.
 8001fd6:	3a01      	subs	r2, #1
 8001fd8:	491b      	ldr	r1, [pc, #108]	; (8002048 <TIMER_run_us+0x198>)
 8001fda:	eb01 1184 	add.w	r1, r1, r4, lsl #6
 8001fde:	604a      	str	r2, [r1, #4]
		TIMER_HandleStructure[timer_id].Init.Period 	= (uint32_t)(period - 1);	//On compte de 0  period-1
 8001fe0:	3b01      	subs	r3, #1
 8001fe2:	60cb      	str	r3, [r1, #12]
	TIMER_HandleStructure[timer_id].Init.ClockDivision = TIM_CLOCKDIVISION_DIV1;
 8001fe4:	4e18      	ldr	r6, [pc, #96]	; (8002048 <TIMER_run_us+0x198>)
 8001fe6:	eb06 1684 	add.w	r6, r6, r4, lsl #6
 8001fea:	2300      	movs	r3, #0
 8001fec:	6133      	str	r3, [r6, #16]
	TIMER_HandleStructure[timer_id].Init.CounterMode = TIM_COUNTERMODE_UP;
 8001fee:	60b3      	str	r3, [r6, #8]
	HAL_TIM_Base_Init(&TIMER_HandleStructure[timer_id]);
 8001ff0:	4630      	mov	r0, r6
 8001ff2:	f002 fba7 	bl	8004744 <HAL_TIM_Base_Init>
	if(enable_irq)
 8001ff6:	b975      	cbnz	r5, 8002016 <TIMER_run_us+0x166>
	HAL_TIM_Base_Start_IT(&TIMER_HandleStructure[timer_id]);
 8001ff8:	4630      	mov	r0, r6
 8001ffa:	f002 fb42 	bl	8004682 <HAL_TIM_Base_Start_IT>
	__HAL_TIM_ENABLE(&TIMER_HandleStructure[timer_id]);
 8001ffe:	01a4      	lsls	r4, r4, #6
 8002000:	4b11      	ldr	r3, [pc, #68]	; (8002048 <TIMER_run_us+0x198>)
 8002002:	591a      	ldr	r2, [r3, r4]
 8002004:	6813      	ldr	r3, [r2, #0]
 8002006:	f043 0301 	orr.w	r3, r3, #1
 800200a:	6013      	str	r3, [r2, #0]
}
 800200c:	b004      	add	sp, #16
 800200e:	e8bd 81f0 	ldmia.w	sp!, {r4, r5, r6, r7, r8, pc}
		uint32_t prescaler = 1;
 8002012:	2201      	movs	r2, #1
 8002014:	e7da      	b.n	8001fcc <TIMER_run_us+0x11c>
		clear_it_status(timer_id);
 8002016:	4620      	mov	r0, r4
 8002018:	f7ff ff28 	bl	8001e6c <clear_it_status>
		HAL_NVIC_SetPriority(nvic_irq_array[timer_id] , 4,  1);
 800201c:	4b0b      	ldr	r3, [pc, #44]	; (800204c <TIMER_run_us+0x19c>)
 800201e:	571d      	ldrsb	r5, [r3, r4]
 8002020:	2201      	movs	r2, #1
 8002022:	2104      	movs	r1, #4
 8002024:	4628      	mov	r0, r5
 8002026:	f001 fb7b 	bl	8003720 <HAL_NVIC_SetPriority>
		HAL_NVIC_EnableIRQ(nvic_irq_array[timer_id]);
 800202a:	4628      	mov	r0, r5
 800202c:	f001 fbb0 	bl	8003790 <HAL_NVIC_EnableIRQ>
 8002030:	e7e2      	b.n	8001ff8 <TIMER_run_us+0x148>
 8002032:	bf00      	nop
 8002034:	f3af 8000 	nop.w
 8002038:	d4a51000 	.word	0xd4a51000
 800203c:	000000e8 	.word	0x000000e8
 8002040:	40021000 	.word	0x40021000
 8002044:	0800b0ac 	.word	0x0800b0ac
 8002048:	200009d0 	.word	0x200009d0
 800204c:	0800b0bc 	.word	0x0800b0bc

08002050 <NVIC_SystemReset>:
  __ASM volatile ("dsb 0xF":::"memory");
 8002050:	f3bf 8f4f 	dsb	sy
                           (SCB->AIRCR & SCB_AIRCR_PRIGROUP_Msk) |
 8002054:	4905      	ldr	r1, [pc, #20]	; (800206c <NVIC_SystemReset+0x1c>)
 8002056:	68ca      	ldr	r2, [r1, #12]
 8002058:	f402 62e0 	and.w	r2, r2, #1792	; 0x700
  SCB->AIRCR  = (uint32_t)((0x5FAUL << SCB_AIRCR_VECTKEY_Pos)    |
 800205c:	4b04      	ldr	r3, [pc, #16]	; (8002070 <NVIC_SystemReset+0x20>)
 800205e:	4313      	orrs	r3, r2
 8002060:	60cb      	str	r3, [r1, #12]
 8002062:	f3bf 8f4f 	dsb	sy
  __ASM volatile ("nop");
 8002066:	bf00      	nop
 8002068:	e7fd      	b.n	8002066 <NVIC_SystemReset+0x16>
 800206a:	bf00      	nop
 800206c:	e000ed00 	.word	0xe000ed00
 8002070:	05fa0004 	.word	0x05fa0004

08002074 <UART_init>:
 * 				USART3 : Rx=PB11 et Tx=PB10 	ou avec remap : Rx=PD9 et Tx=PD8
 * 				La gestion des envois et reception se fait en interruption.
 *
 */
void UART_init(uart_id_e uart_id, uint32_t baudrate)
{
 8002074:	e92d 43f8 	stmdb	sp!, {r3, r4, r5, r6, r7, r8, r9, lr}
	assert(baudrate > 1000);
 8002078:	f5b1 7f7a 	cmp.w	r1, #1000	; 0x3e8
 800207c:	d958      	bls.n	8002130 <UART_init+0xbc>
 800207e:	4605      	mov	r5, r0
	assert(uart_id < UART_ID_NB);
 8002080:	2802      	cmp	r0, #2
 8002082:	d85c      	bhi.n	800213e <UART_init+0xca>

	buffer_rx_read_index[uart_id] = 0;
 8002084:	2400      	movs	r4, #0
 8002086:	4b31      	ldr	r3, [pc, #196]	; (800214c <UART_init+0xd8>)
 8002088:	f843 4020 	str.w	r4, [r3, r0, lsl #2]
	buffer_rx_write_index[uart_id] = 0;
 800208c:	f8df 80c0 	ldr.w	r8, [pc, #192]	; 8002150 <UART_init+0xdc>
 8002090:	f808 4000 	strb.w	r4, [r8, r0]
	buffer_rx_data_ready[uart_id] = FALSE;
 8002094:	4b2f      	ldr	r3, [pc, #188]	; (8002154 <UART_init+0xe0>)
 8002096:	f843 4020 	str.w	r4, [r3, r0, lsl #2]
		- No parity
		- Hardware flow control disabled (RTS and CTS signals)
		- Receive and transmit enabled
		- OverSampling: enable
	*/
	UART_HandleStructure[uart_id].Instance = (USART_TypeDef*)instance_array[uart_id];
 800209a:	4b2f      	ldr	r3, [pc, #188]	; (8002158 <UART_init+0xe4>)
 800209c:	f853 3020 	ldr.w	r3, [r3, r0, lsl #2]
 80020a0:	4f2e      	ldr	r7, [pc, #184]	; (800215c <UART_init+0xe8>)
 80020a2:	ea4f 1980 	mov.w	r9, r0, lsl #6
 80020a6:	eb07 1680 	add.w	r6, r7, r0, lsl #6
 80020aa:	f847 3009 	str.w	r3, [r7, r9]
	UART_HandleStructure[uart_id].Init.BaudRate = baudrate;
 80020ae:	6071      	str	r1, [r6, #4]
	UART_HandleStructure[uart_id].Init.WordLength = UART_WORDLENGTH_8B;//
 80020b0:	60b4      	str	r4, [r6, #8]
	UART_HandleStructure[uart_id].Init.StopBits = UART_STOPBITS_1;//
 80020b2:	60f4      	str	r4, [r6, #12]
	UART_HandleStructure[uart_id].Init.Parity = UART_PARITY_NONE;//
 80020b4:	6134      	str	r4, [r6, #16]
	UART_HandleStructure[uart_id].Init.HwFlowCtl = UART_HWCONTROL_NONE;//
 80020b6:	61b4      	str	r4, [r6, #24]
	UART_HandleStructure[uart_id].Init.Mode = UART_MODE_TX_RX;//
 80020b8:	230c      	movs	r3, #12
 80020ba:	6173      	str	r3, [r6, #20]
	UART_HandleStructure[uart_id].Init.OverSampling = UART_OVERSAMPLING_16;//
 80020bc:	61f4      	str	r4, [r6, #28]

	/*On applique les parametres d'initialisation ci-dessus */
	HAL_UART_Init(&UART_HandleStructure[uart_id]);
 80020be:	4630      	mov	r0, r6
 80020c0:	f002 fc92 	bl	80049e8 <HAL_UART_Init>
	
	/*Activation de l'UART */
	__HAL_UART_ENABLE(&UART_HandleStructure[uart_id]);
 80020c4:	f857 2009 	ldr.w	r2, [r7, r9]
 80020c8:	68d3      	ldr	r3, [r2, #12]
 80020ca:	f443 5300 	orr.w	r3, r3, #8192	; 0x2000
 80020ce:	60d3      	str	r3, [r2, #12]

	// On fixe les priorits des interruptions de l'usart PreemptionPriority = 0, SubPriority = 1 et on autorise les interruptions
	HAL_NVIC_SetPriority(nvic_irq_array[uart_id] , 1, 1);
 80020d0:	4b23      	ldr	r3, [pc, #140]	; (8002160 <UART_init+0xec>)
 80020d2:	575f      	ldrsb	r7, [r3, r5]
 80020d4:	2201      	movs	r2, #1
 80020d6:	4611      	mov	r1, r2
 80020d8:	4638      	mov	r0, r7
 80020da:	f001 fb21 	bl	8003720 <HAL_NVIC_SetPriority>
	HAL_NVIC_EnableIRQ(nvic_irq_array[uart_id]);
 80020de:	4638      	mov	r0, r7
 80020e0:	f001 fb56 	bl	8003790 <HAL_NVIC_EnableIRQ>
	HAL_UART_Receive_IT(&UART_HandleStructure[uart_id],&buffer_rx[uart_id][buffer_rx_write_index[uart_id]],1);	//Activation de la rception d'un caractre
 80020e4:	f818 3005 	ldrb.w	r3, [r8, r5]
 80020e8:	eb03 13c5 	add.w	r3, r3, r5, lsl #7
 80020ec:	2201      	movs	r2, #1
 80020ee:	491d      	ldr	r1, [pc, #116]	; (8002164 <UART_init+0xf0>)
 80020f0:	4419      	add	r1, r3
 80020f2:	4630      	mov	r0, r6
 80020f4:	f002 fcce 	bl	8004a94 <HAL_UART_Receive_IT>

	//Config LibC: no buffering
	setvbuf(stdout, NULL, _IONBF, 0 );
 80020f8:	4e1b      	ldr	r6, [pc, #108]	; (8002168 <UART_init+0xf4>)
 80020fa:	6830      	ldr	r0, [r6, #0]
 80020fc:	4623      	mov	r3, r4
 80020fe:	2202      	movs	r2, #2
 8002100:	4621      	mov	r1, r4
 8002102:	6880      	ldr	r0, [r0, #8]
 8002104:	f004 ffdc 	bl	80070c0 <setvbuf>
	setvbuf(stderr, NULL, _IONBF, 0 );
 8002108:	6830      	ldr	r0, [r6, #0]
 800210a:	4623      	mov	r3, r4
 800210c:	2202      	movs	r2, #2
 800210e:	4621      	mov	r1, r4
 8002110:	68c0      	ldr	r0, [r0, #12]
 8002112:	f004 ffd5 	bl	80070c0 <setvbuf>
	setvbuf(stdin, NULL, _IONBF, 0 );
 8002116:	6830      	ldr	r0, [r6, #0]
 8002118:	4623      	mov	r3, r4
 800211a:	2202      	movs	r2, #2
 800211c:	4621      	mov	r1, r4
 800211e:	6840      	ldr	r0, [r0, #4]
 8002120:	f004 ffce 	bl	80070c0 <setvbuf>

	uart_initialized[uart_id] = TRUE;
 8002124:	4b11      	ldr	r3, [pc, #68]	; (800216c <UART_init+0xf8>)
 8002126:	2201      	movs	r2, #1
 8002128:	f843 2025 	str.w	r2, [r3, r5, lsl #2]
}
 800212c:	e8bd 83f8 	ldmia.w	sp!, {r3, r4, r5, r6, r7, r8, r9, pc}
	assert(baudrate > 1000);
 8002130:	4a0f      	ldr	r2, [pc, #60]	; (8002170 <UART_init+0xfc>)
 8002132:	218a      	movs	r1, #138	; 0x8a
 8002134:	480f      	ldr	r0, [pc, #60]	; (8002174 <UART_init+0x100>)
 8002136:	f003 f849 	bl	80051cc <printf>
 800213a:	f7ff ff89 	bl	8002050 <NVIC_SystemReset>
	assert(uart_id < UART_ID_NB);
 800213e:	4a0e      	ldr	r2, [pc, #56]	; (8002178 <UART_init+0x104>)
 8002140:	218b      	movs	r1, #139	; 0x8b
 8002142:	480c      	ldr	r0, [pc, #48]	; (8002174 <UART_init+0x100>)
 8002144:	f003 f842 	bl	80051cc <printf>
 8002148:	f7ff ff82 	bl	8002050 <NVIC_SystemReset>
 800214c:	20000d1c 	.word	0x20000d1c
 8002150:	20000d28 	.word	0x20000d28
 8002154:	20000d10 	.word	0x20000d10
 8002158:	0800b124 	.word	0x0800b124
 800215c:	20000ad0 	.word	0x20000ad0
 8002160:	0800b130 	.word	0x0800b130
 8002164:	20000b90 	.word	0x20000b90
 8002168:	200006e0 	.word	0x200006e0
 800216c:	20000d2c 	.word	0x20000d2c
 8002170:	0800b0c0 	.word	0x0800b0c0
 8002174:	0800b0d0 	.word	0x0800b0d0
 8002178:	0800b10c 	.word	0x0800b10c

0800217c <UART_data_ready>:
 * @ret		Retourne VRAI si un ou des caractres sont disponibles dans le buffer.
 * @ret		Retourne FAUX si aucun caractre n'est disponible dans le buffer (le buffer est vide)
 * @param	uart_id est le numro de l'UART concern :	UART1_ID, UART2_ID, UART3_ID
 */
bool_e UART_data_ready(uart_id_e uart_id)
{
 800217c:	b508      	push	{r3, lr}
	assert(uart_id < UART_ID_NB);
 800217e:	2802      	cmp	r0, #2
 8002180:	d803      	bhi.n	800218a <UART_data_ready+0xe>
	return buffer_rx_data_ready[uart_id];
 8002182:	4b05      	ldr	r3, [pc, #20]	; (8002198 <UART_data_ready+0x1c>)
 8002184:	f853 0020 	ldr.w	r0, [r3, r0, lsl #2]
}
 8002188:	bd08      	pop	{r3, pc}
	assert(uart_id < UART_ID_NB);
 800218a:	4a04      	ldr	r2, [pc, #16]	; (800219c <UART_data_ready+0x20>)
 800218c:	21c8      	movs	r1, #200	; 0xc8
 800218e:	4804      	ldr	r0, [pc, #16]	; (80021a0 <UART_data_ready+0x24>)
 8002190:	f003 f81c 	bl	80051cc <printf>
 8002194:	f7ff ff5c 	bl	8002050 <NVIC_SystemReset>
 8002198:	20000d10 	.word	0x20000d10
 800219c:	0800b10c 	.word	0x0800b10c
 80021a0:	0800b0d0 	.word	0x0800b0d0

080021a4 <UART_get_next_byte>:
 * @brief	Fonction permettant de rcuprer le prochain caractre reu dans le buffer.
 * @ret 	Retourne le prochain caractre reu. Ou 0 si rien n'a t reu.
 * @post 	Le caractre renvoy par cette fonction ne sera plus renvoy.
 */
uint8_t UART_get_next_byte(uart_id_e uart_id)
{
 80021a4:	b538      	push	{r3, r4, r5, lr}
	uint8_t ret;
	assert(uart_id < UART_ID_NB);
 80021a6:	2802      	cmp	r0, #2
 80021a8:	d825      	bhi.n	80021f6 <UART_get_next_byte+0x52>
 80021aa:	4603      	mov	r3, r0

	if(!buffer_rx_data_ready[uart_id])	//N'est jamais sens se produire si l'utilisateur vrifie que UART_data_ready() avant d'appeler UART_get_next_byte()
 80021ac:	4a19      	ldr	r2, [pc, #100]	; (8002214 <UART_get_next_byte+0x70>)
 80021ae:	f852 2020 	ldr.w	r2, [r2, r0, lsl #2]
 80021b2:	b362      	cbz	r2, 800220e <UART_get_next_byte+0x6a>
		return 0;

	ret =  buffer_rx[uart_id][buffer_rx_read_index[uart_id]];
 80021b4:	4c18      	ldr	r4, [pc, #96]	; (8002218 <UART_get_next_byte+0x74>)
 80021b6:	f854 2020 	ldr.w	r2, [r4, r0, lsl #2]
 80021ba:	4918      	ldr	r1, [pc, #96]	; (800221c <UART_get_next_byte+0x78>)
 80021bc:	eb01 11c0 	add.w	r1, r1, r0, lsl #7
 80021c0:	5c88      	ldrb	r0, [r1, r2]
	buffer_rx_read_index[uart_id] = (buffer_rx_read_index[uart_id] + 1) % BUFFER_RX_SIZE;
 80021c2:	3201      	adds	r2, #1
 80021c4:	f002 027f 	and.w	r2, r2, #127	; 0x7f
 80021c8:	f844 2023 	str.w	r2, [r4, r3, lsl #2]

	//Section critique durant laquelle on dsactive les interruptions... pour viter une mauvaise premption.
	NVIC_DisableIRQ(nvic_irq_array[uart_id]);
 80021cc:	4914      	ldr	r1, [pc, #80]	; (8002220 <UART_get_next_byte+0x7c>)
 80021ce:	56c9      	ldrsb	r1, [r1, r3]
  NVIC->ICER[(((uint32_t)(int32_t)IRQn) >> 5UL)] = (uint32_t)(1UL << (((uint32_t)(int32_t)IRQn) & 0x1FUL));
 80021d0:	f001 051f 	and.w	r5, r1, #31
 80021d4:	0949      	lsrs	r1, r1, #5
 80021d6:	2401      	movs	r4, #1
 80021d8:	40ac      	lsls	r4, r5
 80021da:	f101 0c20 	add.w	ip, r1, #32
 80021de:	4d11      	ldr	r5, [pc, #68]	; (8002224 <UART_get_next_byte+0x80>)
 80021e0:	f845 402c 	str.w	r4, [r5, ip, lsl #2]
	if (buffer_rx_write_index[uart_id] == buffer_rx_read_index[uart_id])
 80021e4:	4d10      	ldr	r5, [pc, #64]	; (8002228 <UART_get_next_byte+0x84>)
 80021e6:	f815 c003 	ldrb.w	ip, [r5, r3]
 80021ea:	4562      	cmp	r2, ip
 80021ec:	d00a      	beq.n	8002204 <UART_get_next_byte+0x60>
  NVIC->ISER[(((uint32_t)(int32_t)IRQn) >> 5UL)] = (uint32_t)(1UL << (((uint32_t)(int32_t)IRQn) & 0x1FUL));
 80021ee:	4b0d      	ldr	r3, [pc, #52]	; (8002224 <UART_get_next_byte+0x80>)
 80021f0:	f843 4021 	str.w	r4, [r3, r1, lsl #2]
		buffer_rx_data_ready[uart_id] = FALSE;
	NVIC_EnableIRQ(nvic_irq_array[uart_id]);
	return ret;
}
 80021f4:	bd38      	pop	{r3, r4, r5, pc}
	assert(uart_id < UART_ID_NB);
 80021f6:	4a0d      	ldr	r2, [pc, #52]	; (800222c <UART_get_next_byte+0x88>)
 80021f8:	21d4      	movs	r1, #212	; 0xd4
 80021fa:	480d      	ldr	r0, [pc, #52]	; (8002230 <UART_get_next_byte+0x8c>)
 80021fc:	f002 ffe6 	bl	80051cc <printf>
 8002200:	f7ff ff26 	bl	8002050 <NVIC_SystemReset>
		buffer_rx_data_ready[uart_id] = FALSE;
 8002204:	4a03      	ldr	r2, [pc, #12]	; (8002214 <UART_get_next_byte+0x70>)
 8002206:	2500      	movs	r5, #0
 8002208:	f842 5023 	str.w	r5, [r2, r3, lsl #2]
 800220c:	e7ef      	b.n	80021ee <UART_get_next_byte+0x4a>
		return 0;
 800220e:	2000      	movs	r0, #0
 8002210:	e7f0      	b.n	80021f4 <UART_get_next_byte+0x50>
 8002212:	bf00      	nop
 8002214:	20000d10 	.word	0x20000d10
 8002218:	20000d1c 	.word	0x20000d1c
 800221c:	20000b90 	.word	0x20000b90
 8002220:	0800b130 	.word	0x0800b130
 8002224:	e000e100 	.word	0xe000e100
 8002228:	20000d28 	.word	0x20000d28
 800222c:	0800b10c 	.word	0x0800b10c
 8002230:	0800b0d0 	.word	0x0800b0d0

08002234 <UART_putc>:
 * @func 	void UART_putc(UART_HandleTypeDef * UART_Handle, char c)
 * @param	c : le caractere a envoyer
 * @param	USARTx : USART1, USART2 ou USART6
 */
void UART_putc(uart_id_e uart_id, uint8_t c)
{
 8002234:	b5f0      	push	{r4, r5, r6, r7, lr}
 8002236:	b083      	sub	sp, #12
 8002238:	f88d 1007 	strb.w	r1, [sp, #7]
	HAL_StatusTypeDef state;
	assert(uart_id < UART_ID_NB);
 800223c:	2802      	cmp	r0, #2
 800223e:	d81e      	bhi.n	800227e <UART_putc+0x4a>
 8002240:	4607      	mov	r7, r0
	if(uart_initialized[uart_id])
 8002242:	4b13      	ldr	r3, [pc, #76]	; (8002290 <UART_putc+0x5c>)
 8002244:	f853 3020 	ldr.w	r3, [r3, r0, lsl #2]
 8002248:	b1bb      	cbz	r3, 800227a <UART_putc+0x46>
	{
		do
		{
			NVIC_DisableIRQ(nvic_irq_array[uart_id]);
 800224a:	4b12      	ldr	r3, [pc, #72]	; (8002294 <UART_putc+0x60>)
 800224c:	57dc      	ldrsb	r4, [r3, r7]
  NVIC->ICER[(((uint32_t)(int32_t)IRQn) >> 5UL)] = (uint32_t)(1UL << (((uint32_t)(int32_t)IRQn) & 0x1FUL));
 800224e:	f004 051f 	and.w	r5, r4, #31
 8002252:	0964      	lsrs	r4, r4, #5
 8002254:	2201      	movs	r2, #1
 8002256:	fa02 f505 	lsl.w	r5, r2, r5
 800225a:	4e0f      	ldr	r6, [pc, #60]	; (8002298 <UART_putc+0x64>)
 800225c:	f104 0320 	add.w	r3, r4, #32
 8002260:	f846 5023 	str.w	r5, [r6, r3, lsl #2]
			state = HAL_UART_Transmit_IT(&UART_HandleStructure[uart_id], &c, 1);
 8002264:	f10d 0107 	add.w	r1, sp, #7
 8002268:	480c      	ldr	r0, [pc, #48]	; (800229c <UART_putc+0x68>)
 800226a:	eb00 1087 	add.w	r0, r0, r7, lsl #6
 800226e:	f002 fbea 	bl	8004a46 <HAL_UART_Transmit_IT>
  NVIC->ISER[(((uint32_t)(int32_t)IRQn) >> 5UL)] = (uint32_t)(1UL << (((uint32_t)(int32_t)IRQn) & 0x1FUL));
 8002272:	f846 5024 	str.w	r5, [r6, r4, lsl #2]
			NVIC_EnableIRQ(nvic_irq_array[uart_id]);
		}while(state == HAL_BUSY);
 8002276:	2802      	cmp	r0, #2
 8002278:	d0e7      	beq.n	800224a <UART_putc+0x16>
	}
}
 800227a:	b003      	add	sp, #12
 800227c:	bdf0      	pop	{r4, r5, r6, r7, pc}
	assert(uart_id < UART_ID_NB);
 800227e:	4a08      	ldr	r2, [pc, #32]	; (80022a0 <UART_putc+0x6c>)
 8002280:	f240 113d 	movw	r1, #317	; 0x13d
 8002284:	4807      	ldr	r0, [pc, #28]	; (80022a4 <UART_putc+0x70>)
 8002286:	f002 ffa1 	bl	80051cc <printf>
 800228a:	f7ff fee1 	bl	8002050 <NVIC_SystemReset>
 800228e:	bf00      	nop
 8002290:	20000d2c 	.word	0x20000d2c
 8002294:	0800b130 	.word	0x0800b130
 8002298:	e000e100 	.word	0xe000e100
 800229c:	20000ad0 	.word	0x20000ad0
 80022a0:	0800b10c 	.word	0x0800b10c
 80022a4:	0800b0d0 	.word	0x0800b0d0

080022a8 <UART_impolite_force_puts_on_uart>:

//ecriture impolie force bloquante sur l'UART ( utiliser en IT, en cas d'extrme recours)
void UART_impolite_force_puts_on_uart(uart_id_e uart_id, uint8_t * str, uint32_t len)
{
	uint32_t i;
	if(uart_initialized[uart_id])
 80022a8:	4b0a      	ldr	r3, [pc, #40]	; (80022d4 <UART_impolite_force_puts_on_uart+0x2c>)
 80022aa:	f853 3020 	ldr.w	r3, [r3, r0, lsl #2]
 80022ae:	b183      	cbz	r3, 80022d2 <UART_impolite_force_puts_on_uart+0x2a>
	{
		USART_TypeDef * pusart;
		pusart = UART_HandleStructure[uart_id].Instance;
 80022b0:	0180      	lsls	r0, r0, #6
 80022b2:	4b09      	ldr	r3, [pc, #36]	; (80022d8 <UART_impolite_force_puts_on_uart+0x30>)
 80022b4:	5818      	ldr	r0, [r3, r0]
		for(i=0; i<len; i++)
 80022b6:	f04f 0c00 	mov.w	ip, #0
 80022ba:	e008      	b.n	80022ce <UART_impolite_force_puts_on_uart+0x26>
		{
			while(!(pusart->SR & USART_FLAG_TXE));
 80022bc:	6803      	ldr	r3, [r0, #0]
 80022be:	f013 0f80 	tst.w	r3, #128	; 0x80
 80022c2:	d0fb      	beq.n	80022bc <UART_impolite_force_puts_on_uart+0x14>
			pusart->DR = str[i];
 80022c4:	f811 300c 	ldrb.w	r3, [r1, ip]
 80022c8:	6043      	str	r3, [r0, #4]
		for(i=0; i<len; i++)
 80022ca:	f10c 0c01 	add.w	ip, ip, #1
 80022ce:	4594      	cmp	ip, r2
 80022d0:	d3f4      	bcc.n	80022bc <UART_impolite_force_puts_on_uart+0x14>
		}
	}
}
 80022d2:	4770      	bx	lr
 80022d4:	20000d2c 	.word	0x20000d2c
 80022d8:	20000ad0 	.word	0x20000ad0

080022dc <USART1_IRQHandler>:
}

/////////////////  ROUTINES D'INTERRUPTION  //////////////////////////////

void USART1_IRQHandler(void)
{
 80022dc:	b508      	push	{r3, lr}
	HAL_UART_IRQHandler(&UART_HandleStructure[UART1_ID]);
 80022de:	4802      	ldr	r0, [pc, #8]	; (80022e8 <USART1_IRQHandler+0xc>)
 80022e0:	f002 fc66 	bl	8004bb0 <HAL_UART_IRQHandler>
}
 80022e4:	bd08      	pop	{r3, pc}
 80022e6:	bf00      	nop
 80022e8:	20000ad0 	.word	0x20000ad0

080022ec <USART2_IRQHandler>:

void USART2_IRQHandler(void)
{
 80022ec:	b508      	push	{r3, lr}
	HAL_UART_IRQHandler(&UART_HandleStructure[UART2_ID]);
 80022ee:	4802      	ldr	r0, [pc, #8]	; (80022f8 <USART2_IRQHandler+0xc>)
 80022f0:	f002 fc5e 	bl	8004bb0 <HAL_UART_IRQHandler>
}
 80022f4:	bd08      	pop	{r3, pc}
 80022f6:	bf00      	nop
 80022f8:	20000b10 	.word	0x20000b10

080022fc <USART3_IRQHandler>:

void USART3_IRQHandler(void)
{
 80022fc:	b508      	push	{r3, lr}
	HAL_UART_IRQHandler(&UART_HandleStructure[UART3_ID]);
 80022fe:	4802      	ldr	r0, [pc, #8]	; (8002308 <USART3_IRQHandler+0xc>)
 8002300:	f002 fc56 	bl	8004bb0 <HAL_UART_IRQHandler>
}
 8002304:	bd08      	pop	{r3, pc}
 8002306:	bf00      	nop
 8002308:	20000b50 	.word	0x20000b50

0800230c <HAL_UART_RxCpltCallback>:
 * @post	La rception en IT du prochain octet est r-active.
 */
void HAL_UART_RxCpltCallback(UART_HandleTypeDef *huart)
{
	uint8_t uart_id;
	if(huart->Instance == USART1)		uart_id = UART1_ID;
 800230c:	6803      	ldr	r3, [r0, #0]
 800230e:	4a16      	ldr	r2, [pc, #88]	; (8002368 <HAL_UART_RxCpltCallback+0x5c>)
 8002310:	4293      	cmp	r3, r2
 8002312:	d024      	beq.n	800235e <HAL_UART_RxCpltCallback+0x52>
	else if(huart->Instance == USART2)	uart_id = UART2_ID;
 8002314:	f5a2 4274 	sub.w	r2, r2, #62464	; 0xf400
 8002318:	4293      	cmp	r3, r2
 800231a:	d022      	beq.n	8002362 <HAL_UART_RxCpltCallback+0x56>
	else if(huart->Instance == USART3)	uart_id = UART3_ID;
 800231c:	f502 6280 	add.w	r2, r2, #1024	; 0x400
 8002320:	4293      	cmp	r3, r2
 8002322:	d000      	beq.n	8002326 <HAL_UART_RxCpltCallback+0x1a>
 8002324:	4770      	bx	lr
 8002326:	2302      	movs	r3, #2
{
 8002328:	b510      	push	{r4, lr}
	else return;

	buffer_rx_data_ready[uart_id] = TRUE;	//Le buffer n'est pas (ou plus) vide.
 800232a:	2201      	movs	r2, #1
 800232c:	490f      	ldr	r1, [pc, #60]	; (800236c <HAL_UART_RxCpltCallback+0x60>)
 800232e:	f841 2023 	str.w	r2, [r1, r3, lsl #2]
	buffer_rx_write_index[uart_id] = (uint8_t)((buffer_rx_write_index[uart_id] + 1) % BUFFER_RX_SIZE);						//Dplacement pointeur en criture
 8002332:	4c0f      	ldr	r4, [pc, #60]	; (8002370 <HAL_UART_RxCpltCallback+0x64>)
 8002334:	5ce1      	ldrb	r1, [r4, r3]
 8002336:	4411      	add	r1, r2
 8002338:	4248      	negs	r0, r1
 800233a:	f001 017f 	and.w	r1, r1, #127	; 0x7f
 800233e:	f000 007f 	and.w	r0, r0, #127	; 0x7f
 8002342:	bf58      	it	pl
 8002344:	4241      	negpl	r1, r0
 8002346:	b2c9      	uxtb	r1, r1
 8002348:	54e1      	strb	r1, [r4, r3]
	HAL_UART_Receive_IT(&UART_HandleStructure[uart_id],&buffer_rx[uart_id][buffer_rx_write_index[uart_id]],1);	//Ractivation de la rception d'un caractre
 800234a:	eb01 11c3 	add.w	r1, r1, r3, lsl #7
 800234e:	4809      	ldr	r0, [pc, #36]	; (8002374 <HAL_UART_RxCpltCallback+0x68>)
 8002350:	4401      	add	r1, r0
 8002352:	4809      	ldr	r0, [pc, #36]	; (8002378 <HAL_UART_RxCpltCallback+0x6c>)
 8002354:	eb00 1083 	add.w	r0, r0, r3, lsl #6
 8002358:	f002 fb9c 	bl	8004a94 <HAL_UART_Receive_IT>
}
 800235c:	bd10      	pop	{r4, pc}
	if(huart->Instance == USART1)		uart_id = UART1_ID;
 800235e:	2300      	movs	r3, #0
 8002360:	e7e2      	b.n	8002328 <HAL_UART_RxCpltCallback+0x1c>
	else if(huart->Instance == USART2)	uart_id = UART2_ID;
 8002362:	2301      	movs	r3, #1
 8002364:	e7e0      	b.n	8002328 <HAL_UART_RxCpltCallback+0x1c>
 8002366:	bf00      	nop
 8002368:	40013800 	.word	0x40013800
 800236c:	20000d10 	.word	0x20000d10
 8002370:	20000d28 	.word	0x20000d28
 8002374:	20000b90 	.word	0x20000b90
 8002378:	20000ad0 	.word	0x20000ad0

0800237c <HAL_UART_MspInit>:
 * @brief	Cette fonction est appele par la fonction d'initialisation HAL_UART_Init().
 * 			Selon le numro de l'UART, on y defini la configuration des broches correspondantes (voir la doc)
 * @param	huart: uart handler utilis
 */
void HAL_UART_MspInit(UART_HandleTypeDef *huart)
{
 800237c:	b570      	push	{r4, r5, r6, lr}
 800237e:	b08a      	sub	sp, #40	; 0x28

	if(huart->Instance == USART1)
 8002380:	6803      	ldr	r3, [r0, #0]
 8002382:	4a44      	ldr	r2, [pc, #272]	; (8002494 <HAL_UART_MspInit+0x118>)
 8002384:	4293      	cmp	r3, r2
 8002386:	d007      	beq.n	8002398 <HAL_UART_MspInit+0x1c>
			BSP_GPIO_PinCfg(GPIOB, GPIO_PIN_7, GPIO_MODE_AF_INPUT, GPIO_PULLUP, GPIO_SPEED_FREQ_HIGH); //Configure Rx as AF
			__HAL_AFIO_REMAP_USART1_ENABLE();
		#endif
		__HAL_RCC_USART1_CLK_ENABLE();		//Horloge du peripherique UART
	}
	else if(huart->Instance == USART2)
 8002388:	4a43      	ldr	r2, [pc, #268]	; (8002498 <HAL_UART_MspInit+0x11c>)
 800238a:	4293      	cmp	r3, r2
 800238c:	d038      	beq.n	8002400 <HAL_UART_MspInit+0x84>
			BSP_GPIO_PinCfg(GPIOD, GPIO_PIN_6, GPIO_MODE_AF_INPUT, GPIO_PULLUP, GPIO_SPEED_FREQ_HIGH); //Configure Rx as AF
			__HAL_AFIO_REMAP_USART2_ENABLE()
		#endif
		__HAL_RCC_USART2_CLK_ENABLE();		//Horloge du peripherique UART
	}
	else if(huart->Instance == USART3)
 800238e:	4a43      	ldr	r2, [pc, #268]	; (800249c <HAL_UART_MspInit+0x120>)
 8002390:	4293      	cmp	r3, r2
 8002392:	d059      	beq.n	8002448 <HAL_UART_MspInit+0xcc>
			BSP_GPIO_PinCfg(GPIOD, GPIO_PIN_9, GPIO_MODE_AF_INPUT, GPIO_PULLUP, GPIO_SPEED_FREQ_HIGH); //Configure Rx as AF
			__HAL_AFIO_REMAP_USART3_ENABLE();
		#endif
		__HAL_RCC_USART3_CLK_ENABLE();		//Horloge du peripherique UART
	}
}
 8002394:	b00a      	add	sp, #40	; 0x28
 8002396:	bd70      	pop	{r4, r5, r6, pc}
			__HAL_RCC_AFIO_CLK_ENABLE();
 8002398:	4c41      	ldr	r4, [pc, #260]	; (80024a0 <HAL_UART_MspInit+0x124>)
 800239a:	69a3      	ldr	r3, [r4, #24]
 800239c:	f043 0301 	orr.w	r3, r3, #1
 80023a0:	61a3      	str	r3, [r4, #24]
 80023a2:	69a3      	ldr	r3, [r4, #24]
 80023a4:	f003 0301 	and.w	r3, r3, #1
 80023a8:	9303      	str	r3, [sp, #12]
 80023aa:	9b03      	ldr	r3, [sp, #12]
			__HAL_RCC_GPIOB_CLK_ENABLE();		//Horloge des broches a utiliser
 80023ac:	69a3      	ldr	r3, [r4, #24]
 80023ae:	f043 0308 	orr.w	r3, r3, #8
 80023b2:	61a3      	str	r3, [r4, #24]
 80023b4:	69a3      	ldr	r3, [r4, #24]
 80023b6:	f003 0308 	and.w	r3, r3, #8
 80023ba:	9304      	str	r3, [sp, #16]
 80023bc:	9b04      	ldr	r3, [sp, #16]
			BSP_GPIO_PinCfg(GPIOB, GPIO_PIN_6, GPIO_MODE_AF_PP, GPIO_PULLUP, GPIO_SPEED_FREQ_HIGH); //Configure Tx as AF
 80023be:	4d39      	ldr	r5, [pc, #228]	; (80024a4 <HAL_UART_MspInit+0x128>)
 80023c0:	2603      	movs	r6, #3
 80023c2:	9600      	str	r6, [sp, #0]
 80023c4:	2301      	movs	r3, #1
 80023c6:	2202      	movs	r2, #2
 80023c8:	2140      	movs	r1, #64	; 0x40
 80023ca:	4628      	mov	r0, r5
 80023cc:	f7ff f9de 	bl	800178c <BSP_GPIO_PinCfg>
			BSP_GPIO_PinCfg(GPIOB, GPIO_PIN_7, GPIO_MODE_AF_INPUT, GPIO_PULLUP, GPIO_SPEED_FREQ_HIGH); //Configure Rx as AF
 80023d0:	9600      	str	r6, [sp, #0]
 80023d2:	2301      	movs	r3, #1
 80023d4:	2200      	movs	r2, #0
 80023d6:	2180      	movs	r1, #128	; 0x80
 80023d8:	4628      	mov	r0, r5
 80023da:	f7ff f9d7 	bl	800178c <BSP_GPIO_PinCfg>
			__HAL_AFIO_REMAP_USART1_ENABLE();
 80023de:	4a32      	ldr	r2, [pc, #200]	; (80024a8 <HAL_UART_MspInit+0x12c>)
 80023e0:	6853      	ldr	r3, [r2, #4]
 80023e2:	f043 63e0 	orr.w	r3, r3, #117440512	; 0x7000000
 80023e6:	f043 0304 	orr.w	r3, r3, #4
 80023ea:	6053      	str	r3, [r2, #4]
		__HAL_RCC_USART1_CLK_ENABLE();		//Horloge du peripherique UART
 80023ec:	69a3      	ldr	r3, [r4, #24]
 80023ee:	f443 4380 	orr.w	r3, r3, #16384	; 0x4000
 80023f2:	61a3      	str	r3, [r4, #24]
 80023f4:	69a3      	ldr	r3, [r4, #24]
 80023f6:	f403 4380 	and.w	r3, r3, #16384	; 0x4000
 80023fa:	9305      	str	r3, [sp, #20]
 80023fc:	9b05      	ldr	r3, [sp, #20]
 80023fe:	e7c9      	b.n	8002394 <HAL_UART_MspInit+0x18>
			__HAL_RCC_GPIOA_CLK_ENABLE();		//Horloge des broches a utiliser
 8002400:	4c27      	ldr	r4, [pc, #156]	; (80024a0 <HAL_UART_MspInit+0x124>)
 8002402:	69a3      	ldr	r3, [r4, #24]
 8002404:	f043 0304 	orr.w	r3, r3, #4
 8002408:	61a3      	str	r3, [r4, #24]
 800240a:	69a3      	ldr	r3, [r4, #24]
 800240c:	f003 0304 	and.w	r3, r3, #4
 8002410:	9306      	str	r3, [sp, #24]
 8002412:	9b06      	ldr	r3, [sp, #24]
			BSP_GPIO_PinCfg(GPIOA, GPIO_PIN_2, GPIO_MODE_AF_PP, GPIO_PULLUP, GPIO_SPEED_FREQ_HIGH);	//Configure Tx as AF
 8002414:	4d25      	ldr	r5, [pc, #148]	; (80024ac <HAL_UART_MspInit+0x130>)
 8002416:	2603      	movs	r6, #3
 8002418:	9600      	str	r6, [sp, #0]
 800241a:	2301      	movs	r3, #1
 800241c:	2202      	movs	r2, #2
 800241e:	2104      	movs	r1, #4
 8002420:	4628      	mov	r0, r5
 8002422:	f7ff f9b3 	bl	800178c <BSP_GPIO_PinCfg>
			BSP_GPIO_PinCfg(GPIOA, GPIO_PIN_3, GPIO_MODE_AF_INPUT, GPIO_PULLUP, GPIO_SPEED_FREQ_HIGH); //Configure Rx as AF
 8002426:	9600      	str	r6, [sp, #0]
 8002428:	2301      	movs	r3, #1
 800242a:	2200      	movs	r2, #0
 800242c:	2108      	movs	r1, #8
 800242e:	4628      	mov	r0, r5
 8002430:	f7ff f9ac 	bl	800178c <BSP_GPIO_PinCfg>
		__HAL_RCC_USART2_CLK_ENABLE();		//Horloge du peripherique UART
 8002434:	69e3      	ldr	r3, [r4, #28]
 8002436:	f443 3300 	orr.w	r3, r3, #131072	; 0x20000
 800243a:	61e3      	str	r3, [r4, #28]
 800243c:	69e3      	ldr	r3, [r4, #28]
 800243e:	f403 3300 	and.w	r3, r3, #131072	; 0x20000
 8002442:	9307      	str	r3, [sp, #28]
 8002444:	9b07      	ldr	r3, [sp, #28]
 8002446:	e7a5      	b.n	8002394 <HAL_UART_MspInit+0x18>
			__HAL_RCC_GPIOB_CLK_ENABLE();		//Horloge des broches a utiliser
 8002448:	4c15      	ldr	r4, [pc, #84]	; (80024a0 <HAL_UART_MspInit+0x124>)
 800244a:	69a3      	ldr	r3, [r4, #24]
 800244c:	f043 0308 	orr.w	r3, r3, #8
 8002450:	61a3      	str	r3, [r4, #24]
 8002452:	69a3      	ldr	r3, [r4, #24]
 8002454:	f003 0308 	and.w	r3, r3, #8
 8002458:	9308      	str	r3, [sp, #32]
 800245a:	9b08      	ldr	r3, [sp, #32]
			BSP_GPIO_PinCfg(GPIOB, GPIO_PIN_10, GPIO_MODE_AF_PP, GPIO_PULLUP, GPIO_SPEED_FREQ_HIGH);	//Configure Tx as AF
 800245c:	4d11      	ldr	r5, [pc, #68]	; (80024a4 <HAL_UART_MspInit+0x128>)
 800245e:	2603      	movs	r6, #3
 8002460:	9600      	str	r6, [sp, #0]
 8002462:	2301      	movs	r3, #1
 8002464:	2202      	movs	r2, #2
 8002466:	f44f 6180 	mov.w	r1, #1024	; 0x400
 800246a:	4628      	mov	r0, r5
 800246c:	f7ff f98e 	bl	800178c <BSP_GPIO_PinCfg>
			BSP_GPIO_PinCfg(GPIOB, GPIO_PIN_11, GPIO_MODE_AF_INPUT, GPIO_PULLUP, GPIO_SPEED_FREQ_HIGH); //Configure Rx as AF
 8002470:	9600      	str	r6, [sp, #0]
 8002472:	2301      	movs	r3, #1
 8002474:	2200      	movs	r2, #0
 8002476:	f44f 6100 	mov.w	r1, #2048	; 0x800
 800247a:	4628      	mov	r0, r5
 800247c:	f7ff f986 	bl	800178c <BSP_GPIO_PinCfg>
		__HAL_RCC_USART3_CLK_ENABLE();		//Horloge du peripherique UART
 8002480:	69e3      	ldr	r3, [r4, #28]
 8002482:	f443 2380 	orr.w	r3, r3, #262144	; 0x40000
 8002486:	61e3      	str	r3, [r4, #28]
 8002488:	69e3      	ldr	r3, [r4, #28]
 800248a:	f403 2380 	and.w	r3, r3, #262144	; 0x40000
 800248e:	9309      	str	r3, [sp, #36]	; 0x24
 8002490:	9b09      	ldr	r3, [sp, #36]	; 0x24
}
 8002492:	e77f      	b.n	8002394 <HAL_UART_MspInit+0x18>
 8002494:	40013800 	.word	0x40013800
 8002498:	40004400 	.word	0x40004400
 800249c:	40004800 	.word	0x40004800
 80024a0:	40021000 	.word	0x40021000
 80024a4:	40010c00 	.word	0x40010c00
 80024a8:	40010000 	.word	0x40010000
 80024ac:	40010800 	.word	0x40010800

080024b0 <HAL_UART_ErrorCallback>:
 * @brief	Function called when the uart throws an error
 * @param	huart handler used to throw errors
 */
void HAL_UART_ErrorCallback(UART_HandleTypeDef *huart)
{
    if (huart->ErrorCode == HAL_UART_ERROR_ORE){
 80024b0:	6bc3      	ldr	r3, [r0, #60]	; 0x3c
 80024b2:	2b08      	cmp	r3, #8
 80024b4:	d000      	beq.n	80024b8 <HAL_UART_ErrorCallback+0x8>
        huart->ErrorCode = HAL_UART_ERROR_NONE;
        // set the correct state, so that the UART_RX_IT works correctly
        huart->RxState = HAL_UART_STATE_BUSY_RX;
    }

}
 80024b6:	4770      	bx	lr
        huart->ErrorCode = HAL_UART_ERROR_NONE;
 80024b8:	2300      	movs	r3, #0
 80024ba:	63c3      	str	r3, [r0, #60]	; 0x3c
        huart->RxState = HAL_UART_STATE_BUSY_RX;
 80024bc:	2322      	movs	r3, #34	; 0x22
 80024be:	f880 303a 	strb.w	r3, [r0, #58]	; 0x3a
}
 80024c2:	e7f8      	b.n	80024b6 <HAL_UART_ErrorCallback+0x6>

080024c4 <WWDG_IRQHandler>:
	dump_printf(msg, "SysTick");
	while(1);
}

__weak void WWDG_IRQHandler(void)
{
 80024c4:	b508      	push	{r3, lr}
	dump_printf(msg, "WWDG");
 80024c6:	4903      	ldr	r1, [pc, #12]	; (80024d4 <WWDG_IRQHandler+0x10>)
 80024c8:	4b03      	ldr	r3, [pc, #12]	; (80024d8 <WWDG_IRQHandler+0x14>)
 80024ca:	6818      	ldr	r0, [r3, #0]
 80024cc:	f7ff fbac 	bl	8001c28 <dump_printf>
	while(1);
 80024d0:	e7fe      	b.n	80024d0 <WWDG_IRQHandler+0xc>
 80024d2:	bf00      	nop
 80024d4:	0800b134 	.word	0x0800b134
 80024d8:	2000000c 	.word	0x2000000c

080024dc <PVD_IRQHandler>:
}

__weak void PVD_IRQHandler(void)
{
 80024dc:	b508      	push	{r3, lr}
	dump_printf(msg, "PVD");
 80024de:	4903      	ldr	r1, [pc, #12]	; (80024ec <PVD_IRQHandler+0x10>)
 80024e0:	4b03      	ldr	r3, [pc, #12]	; (80024f0 <PVD_IRQHandler+0x14>)
 80024e2:	6818      	ldr	r0, [r3, #0]
 80024e4:	f7ff fba0 	bl	8001c28 <dump_printf>
	while(1);
 80024e8:	e7fe      	b.n	80024e8 <PVD_IRQHandler+0xc>
 80024ea:	bf00      	nop
 80024ec:	0800b13c 	.word	0x0800b13c
 80024f0:	2000000c 	.word	0x2000000c

080024f4 <TAMPER_IRQHandler>:
}

__weak void TAMPER_IRQHandler(void)
{
 80024f4:	b508      	push	{r3, lr}
	dump_printf(msg, "TAMPER");
 80024f6:	4903      	ldr	r1, [pc, #12]	; (8002504 <TAMPER_IRQHandler+0x10>)
 80024f8:	4b03      	ldr	r3, [pc, #12]	; (8002508 <TAMPER_IRQHandler+0x14>)
 80024fa:	6818      	ldr	r0, [r3, #0]
 80024fc:	f7ff fb94 	bl	8001c28 <dump_printf>
	while(1);
 8002500:	e7fe      	b.n	8002500 <TAMPER_IRQHandler+0xc>
 8002502:	bf00      	nop
 8002504:	0800b140 	.word	0x0800b140
 8002508:	2000000c 	.word	0x2000000c

0800250c <RTC_IRQHandler>:
}

__weak void RTC_IRQHandler(void)
{
 800250c:	b508      	push	{r3, lr}
	dump_printf(msg, "RTC");
 800250e:	4903      	ldr	r1, [pc, #12]	; (800251c <RTC_IRQHandler+0x10>)
 8002510:	4b03      	ldr	r3, [pc, #12]	; (8002520 <RTC_IRQHandler+0x14>)
 8002512:	6818      	ldr	r0, [r3, #0]
 8002514:	f7ff fb88 	bl	8001c28 <dump_printf>
	while(1);
 8002518:	e7fe      	b.n	8002518 <RTC_IRQHandler+0xc>
 800251a:	bf00      	nop
 800251c:	0800b148 	.word	0x0800b148
 8002520:	2000000c 	.word	0x2000000c

08002524 <FLASH_IRQHandler>:
}

__weak void FLASH_IRQHandler(void)
{
 8002524:	b508      	push	{r3, lr}
	dump_printf(msg, "FLASH");
 8002526:	4903      	ldr	r1, [pc, #12]	; (8002534 <FLASH_IRQHandler+0x10>)
 8002528:	4b03      	ldr	r3, [pc, #12]	; (8002538 <FLASH_IRQHandler+0x14>)
 800252a:	6818      	ldr	r0, [r3, #0]
 800252c:	f7ff fb7c 	bl	8001c28 <dump_printf>
	while(1);
 8002530:	e7fe      	b.n	8002530 <FLASH_IRQHandler+0xc>
 8002532:	bf00      	nop
 8002534:	0800b14c 	.word	0x0800b14c
 8002538:	2000000c 	.word	0x2000000c

0800253c <RCC_IRQHandler>:
}

__weak void RCC_IRQHandler(void)
{
 800253c:	b508      	push	{r3, lr}
	dump_printf(msg, "RCC");
 800253e:	4903      	ldr	r1, [pc, #12]	; (800254c <RCC_IRQHandler+0x10>)
 8002540:	4b03      	ldr	r3, [pc, #12]	; (8002550 <RCC_IRQHandler+0x14>)
 8002542:	6818      	ldr	r0, [r3, #0]
 8002544:	f7ff fb70 	bl	8001c28 <dump_printf>
	while(1);
 8002548:	e7fe      	b.n	8002548 <RCC_IRQHandler+0xc>
 800254a:	bf00      	nop
 800254c:	0800b154 	.word	0x0800b154
 8002550:	2000000c 	.word	0x2000000c

08002554 <EXTI0_IRQHandler>:
}

__weak void EXTI0_IRQHandler(void)
{
 8002554:	b508      	push	{r3, lr}
	dump_printf(msg, "EXTI0");
 8002556:	4903      	ldr	r1, [pc, #12]	; (8002564 <EXTI0_IRQHandler+0x10>)
 8002558:	4b03      	ldr	r3, [pc, #12]	; (8002568 <EXTI0_IRQHandler+0x14>)
 800255a:	6818      	ldr	r0, [r3, #0]
 800255c:	f7ff fb64 	bl	8001c28 <dump_printf>
	while(1);
 8002560:	e7fe      	b.n	8002560 <EXTI0_IRQHandler+0xc>
 8002562:	bf00      	nop
 8002564:	0800b158 	.word	0x0800b158
 8002568:	2000000c 	.word	0x2000000c

0800256c <EXTI1_IRQHandler>:
}

__weak void EXTI1_IRQHandler(void)
{
 800256c:	b508      	push	{r3, lr}
	dump_printf(msg, "EXTI1");
 800256e:	4903      	ldr	r1, [pc, #12]	; (800257c <EXTI1_IRQHandler+0x10>)
 8002570:	4b03      	ldr	r3, [pc, #12]	; (8002580 <EXTI1_IRQHandler+0x14>)
 8002572:	6818      	ldr	r0, [r3, #0]
 8002574:	f7ff fb58 	bl	8001c28 <dump_printf>
	while(1);
 8002578:	e7fe      	b.n	8002578 <EXTI1_IRQHandler+0xc>
 800257a:	bf00      	nop
 800257c:	0800b160 	.word	0x0800b160
 8002580:	2000000c 	.word	0x2000000c

08002584 <EXTI2_IRQHandler>:
}

__weak void EXTI2_IRQHandler(void)
{
 8002584:	b508      	push	{r3, lr}
	dump_printf(msg, "EXTI2");
 8002586:	4903      	ldr	r1, [pc, #12]	; (8002594 <EXTI2_IRQHandler+0x10>)
 8002588:	4b03      	ldr	r3, [pc, #12]	; (8002598 <EXTI2_IRQHandler+0x14>)
 800258a:	6818      	ldr	r0, [r3, #0]
 800258c:	f7ff fb4c 	bl	8001c28 <dump_printf>
	while(1);
 8002590:	e7fe      	b.n	8002590 <EXTI2_IRQHandler+0xc>
 8002592:	bf00      	nop
 8002594:	0800b168 	.word	0x0800b168
 8002598:	2000000c 	.word	0x2000000c

0800259c <EXTI3_IRQHandler>:
}

__weak void EXTI3_IRQHandler(void)
{
 800259c:	b508      	push	{r3, lr}
	dump_printf(msg, "EXTI3");
 800259e:	4903      	ldr	r1, [pc, #12]	; (80025ac <EXTI3_IRQHandler+0x10>)
 80025a0:	4b03      	ldr	r3, [pc, #12]	; (80025b0 <EXTI3_IRQHandler+0x14>)
 80025a2:	6818      	ldr	r0, [r3, #0]
 80025a4:	f7ff fb40 	bl	8001c28 <dump_printf>
	while(1);
 80025a8:	e7fe      	b.n	80025a8 <EXTI3_IRQHandler+0xc>
 80025aa:	bf00      	nop
 80025ac:	0800b170 	.word	0x0800b170
 80025b0:	2000000c 	.word	0x2000000c

080025b4 <EXTI4_IRQHandler>:
}

__weak void EXTI4_IRQHandler(void)
{
 80025b4:	b508      	push	{r3, lr}
	dump_printf(msg, "EXTI4");
 80025b6:	4903      	ldr	r1, [pc, #12]	; (80025c4 <EXTI4_IRQHandler+0x10>)
 80025b8:	4b03      	ldr	r3, [pc, #12]	; (80025c8 <EXTI4_IRQHandler+0x14>)
 80025ba:	6818      	ldr	r0, [r3, #0]
 80025bc:	f7ff fb34 	bl	8001c28 <dump_printf>
	while(1);
 80025c0:	e7fe      	b.n	80025c0 <EXTI4_IRQHandler+0xc>
 80025c2:	bf00      	nop
 80025c4:	0800b178 	.word	0x0800b178
 80025c8:	2000000c 	.word	0x2000000c

080025cc <DMA1_Channel2_IRQHandler>:
	dump_printf(msg, "DMA1_Channel1");
	while(1);
}

__weak void DMA1_Channel2_IRQHandler(void)
{
 80025cc:	b508      	push	{r3, lr}
	dump_printf(msg, "DMA1_Channel2");
 80025ce:	4903      	ldr	r1, [pc, #12]	; (80025dc <DMA1_Channel2_IRQHandler+0x10>)
 80025d0:	4b03      	ldr	r3, [pc, #12]	; (80025e0 <DMA1_Channel2_IRQHandler+0x14>)
 80025d2:	6818      	ldr	r0, [r3, #0]
 80025d4:	f7ff fb28 	bl	8001c28 <dump_printf>
	while(1);
 80025d8:	e7fe      	b.n	80025d8 <DMA1_Channel2_IRQHandler+0xc>
 80025da:	bf00      	nop
 80025dc:	0800b180 	.word	0x0800b180
 80025e0:	2000000c 	.word	0x2000000c

080025e4 <DMA1_Channel3_IRQHandler>:
}

__weak void DMA1_Channel3_IRQHandler(void)
{
 80025e4:	b508      	push	{r3, lr}
	dump_printf(msg, "DMA1_Channel3");
 80025e6:	4903      	ldr	r1, [pc, #12]	; (80025f4 <DMA1_Channel3_IRQHandler+0x10>)
 80025e8:	4b03      	ldr	r3, [pc, #12]	; (80025f8 <DMA1_Channel3_IRQHandler+0x14>)
 80025ea:	6818      	ldr	r0, [r3, #0]
 80025ec:	f7ff fb1c 	bl	8001c28 <dump_printf>
	while(1);
 80025f0:	e7fe      	b.n	80025f0 <DMA1_Channel3_IRQHandler+0xc>
 80025f2:	bf00      	nop
 80025f4:	0800b190 	.word	0x0800b190
 80025f8:	2000000c 	.word	0x2000000c

080025fc <DMA1_Channel4_IRQHandler>:
}

__weak void DMA1_Channel4_IRQHandler(void)
{
 80025fc:	b508      	push	{r3, lr}
	dump_printf(msg, "DMA1_Channel4");
 80025fe:	4903      	ldr	r1, [pc, #12]	; (800260c <DMA1_Channel4_IRQHandler+0x10>)
 8002600:	4b03      	ldr	r3, [pc, #12]	; (8002610 <DMA1_Channel4_IRQHandler+0x14>)
 8002602:	6818      	ldr	r0, [r3, #0]
 8002604:	f7ff fb10 	bl	8001c28 <dump_printf>
	while(1);
 8002608:	e7fe      	b.n	8002608 <DMA1_Channel4_IRQHandler+0xc>
 800260a:	bf00      	nop
 800260c:	0800b1a0 	.word	0x0800b1a0
 8002610:	2000000c 	.word	0x2000000c

08002614 <DMA1_Channel5_IRQHandler>:
}

__weak void DMA1_Channel5_IRQHandler(void)
{
 8002614:	b508      	push	{r3, lr}
	dump_printf(msg, "DMA1_Channel5");
 8002616:	4903      	ldr	r1, [pc, #12]	; (8002624 <DMA1_Channel5_IRQHandler+0x10>)
 8002618:	4b03      	ldr	r3, [pc, #12]	; (8002628 <DMA1_Channel5_IRQHandler+0x14>)
 800261a:	6818      	ldr	r0, [r3, #0]
 800261c:	f7ff fb04 	bl	8001c28 <dump_printf>
	while(1);
 8002620:	e7fe      	b.n	8002620 <DMA1_Channel5_IRQHandler+0xc>
 8002622:	bf00      	nop
 8002624:	0800b1b0 	.word	0x0800b1b0
 8002628:	2000000c 	.word	0x2000000c

0800262c <DMA1_Channel6_IRQHandler>:
}

__weak void DMA1_Channel6_IRQHandler(void)
{
 800262c:	b508      	push	{r3, lr}
	dump_printf(msg, "DMA1_Channel6");
 800262e:	4903      	ldr	r1, [pc, #12]	; (800263c <DMA1_Channel6_IRQHandler+0x10>)
 8002630:	4b03      	ldr	r3, [pc, #12]	; (8002640 <DMA1_Channel6_IRQHandler+0x14>)
 8002632:	6818      	ldr	r0, [r3, #0]
 8002634:	f7ff faf8 	bl	8001c28 <dump_printf>
	while(1);
 8002638:	e7fe      	b.n	8002638 <DMA1_Channel6_IRQHandler+0xc>
 800263a:	bf00      	nop
 800263c:	0800b1c0 	.word	0x0800b1c0
 8002640:	2000000c 	.word	0x2000000c

08002644 <DMA1_Channel7_IRQHandler>:
}

__weak void DMA1_Channel7_IRQHandler(void)
{
 8002644:	b508      	push	{r3, lr}
	dump_printf(msg, "DMA1_Channel7");
 8002646:	4903      	ldr	r1, [pc, #12]	; (8002654 <DMA1_Channel7_IRQHandler+0x10>)
 8002648:	4b03      	ldr	r3, [pc, #12]	; (8002658 <DMA1_Channel7_IRQHandler+0x14>)
 800264a:	6818      	ldr	r0, [r3, #0]
 800264c:	f7ff faec 	bl	8001c28 <dump_printf>
	while(1);
 8002650:	e7fe      	b.n	8002650 <DMA1_Channel7_IRQHandler+0xc>
 8002652:	bf00      	nop
 8002654:	0800b1d0 	.word	0x0800b1d0
 8002658:	2000000c 	.word	0x2000000c

0800265c <ADC1_2_IRQHandler>:
}

__weak void ADC1_2_IRQHandler(void)
{
 800265c:	b508      	push	{r3, lr}
	dump_printf(msg, "ADC1_2");
 800265e:	4903      	ldr	r1, [pc, #12]	; (800266c <ADC1_2_IRQHandler+0x10>)
 8002660:	4b03      	ldr	r3, [pc, #12]	; (8002670 <ADC1_2_IRQHandler+0x14>)
 8002662:	6818      	ldr	r0, [r3, #0]
 8002664:	f7ff fae0 	bl	8001c28 <dump_printf>
	while(1);
 8002668:	e7fe      	b.n	8002668 <ADC1_2_IRQHandler+0xc>
 800266a:	bf00      	nop
 800266c:	0800b1e0 	.word	0x0800b1e0
 8002670:	2000000c 	.word	0x2000000c

08002674 <USB_HP_CAN1_TX_IRQHandler>:
}

__weak void USB_HP_CAN1_TX_IRQHandler(void)
{
 8002674:	b508      	push	{r3, lr}
	dump_printf(msg, "USB_HP_CAN1_TX");
 8002676:	4903      	ldr	r1, [pc, #12]	; (8002684 <USB_HP_CAN1_TX_IRQHandler+0x10>)
 8002678:	4b03      	ldr	r3, [pc, #12]	; (8002688 <USB_HP_CAN1_TX_IRQHandler+0x14>)
 800267a:	6818      	ldr	r0, [r3, #0]
 800267c:	f7ff fad4 	bl	8001c28 <dump_printf>
	while(1);
 8002680:	e7fe      	b.n	8002680 <USB_HP_CAN1_TX_IRQHandler+0xc>
 8002682:	bf00      	nop
 8002684:	0800b1e8 	.word	0x0800b1e8
 8002688:	2000000c 	.word	0x2000000c

0800268c <USB_LP_CAN1_RX0_IRQHandler>:
}

__weak void USB_LP_CAN1_RX0_IRQHandler(void)
{
 800268c:	b508      	push	{r3, lr}
	dump_printf(msg, "USB_LP_CAN1_RX0");
 800268e:	4903      	ldr	r1, [pc, #12]	; (800269c <USB_LP_CAN1_RX0_IRQHandler+0x10>)
 8002690:	4b03      	ldr	r3, [pc, #12]	; (80026a0 <USB_LP_CAN1_RX0_IRQHandler+0x14>)
 8002692:	6818      	ldr	r0, [r3, #0]
 8002694:	f7ff fac8 	bl	8001c28 <dump_printf>
	while(1);
 8002698:	e7fe      	b.n	8002698 <USB_LP_CAN1_RX0_IRQHandler+0xc>
 800269a:	bf00      	nop
 800269c:	0800b1f8 	.word	0x0800b1f8
 80026a0:	2000000c 	.word	0x2000000c

080026a4 <CAN1_RX1_IRQHandler>:
}

__weak void CAN1_RX1_IRQHandler(void)
{
 80026a4:	b508      	push	{r3, lr}
	dump_printf(msg, "CAN1_RX1");
 80026a6:	4903      	ldr	r1, [pc, #12]	; (80026b4 <CAN1_RX1_IRQHandler+0x10>)
 80026a8:	4b03      	ldr	r3, [pc, #12]	; (80026b8 <CAN1_RX1_IRQHandler+0x14>)
 80026aa:	6818      	ldr	r0, [r3, #0]
 80026ac:	f7ff fabc 	bl	8001c28 <dump_printf>
	while(1);
 80026b0:	e7fe      	b.n	80026b0 <CAN1_RX1_IRQHandler+0xc>
 80026b2:	bf00      	nop
 80026b4:	0800b208 	.word	0x0800b208
 80026b8:	2000000c 	.word	0x2000000c

080026bc <CAN1_SCE_IRQHandler>:
}

__weak void CAN1_SCE_IRQHandler(void)
{
 80026bc:	b508      	push	{r3, lr}
	dump_printf(msg, "CAN1_SCE");
 80026be:	4903      	ldr	r1, [pc, #12]	; (80026cc <CAN1_SCE_IRQHandler+0x10>)
 80026c0:	4b03      	ldr	r3, [pc, #12]	; (80026d0 <CAN1_SCE_IRQHandler+0x14>)
 80026c2:	6818      	ldr	r0, [r3, #0]
 80026c4:	f7ff fab0 	bl	8001c28 <dump_printf>
	while(1);
 80026c8:	e7fe      	b.n	80026c8 <CAN1_SCE_IRQHandler+0xc>
 80026ca:	bf00      	nop
 80026cc:	0800b214 	.word	0x0800b214
 80026d0:	2000000c 	.word	0x2000000c

080026d4 <EXTI9_5_IRQHandler>:
}

__weak void EXTI9_5_IRQHandler(void)
{
 80026d4:	b508      	push	{r3, lr}
	dump_printf(msg, "EXTI9_5");
 80026d6:	4903      	ldr	r1, [pc, #12]	; (80026e4 <EXTI9_5_IRQHandler+0x10>)
 80026d8:	4b03      	ldr	r3, [pc, #12]	; (80026e8 <EXTI9_5_IRQHandler+0x14>)
 80026da:	6818      	ldr	r0, [r3, #0]
 80026dc:	f7ff faa4 	bl	8001c28 <dump_printf>
	while(1);
 80026e0:	e7fe      	b.n	80026e0 <EXTI9_5_IRQHandler+0xc>
 80026e2:	bf00      	nop
 80026e4:	0800b220 	.word	0x0800b220
 80026e8:	2000000c 	.word	0x2000000c

080026ec <TIM1_BRK_IRQHandler>:
}

__weak void TIM1_BRK_IRQHandler(void)
{
 80026ec:	b508      	push	{r3, lr}
	dump_printf(msg, "TIM1_BRK");
 80026ee:	4903      	ldr	r1, [pc, #12]	; (80026fc <TIM1_BRK_IRQHandler+0x10>)
 80026f0:	4b03      	ldr	r3, [pc, #12]	; (8002700 <TIM1_BRK_IRQHandler+0x14>)
 80026f2:	6818      	ldr	r0, [r3, #0]
 80026f4:	f7ff fa98 	bl	8001c28 <dump_printf>
	while(1);
 80026f8:	e7fe      	b.n	80026f8 <TIM1_BRK_IRQHandler+0xc>
 80026fa:	bf00      	nop
 80026fc:	0800b228 	.word	0x0800b228
 8002700:	2000000c 	.word	0x2000000c

08002704 <TIM1_TRG_COM_IRQHandler>:
	dump_printf(msg, "TIM1_UP");
	while(1);
}

__weak void TIM1_TRG_COM_IRQHandler(void)
{
 8002704:	b508      	push	{r3, lr}
	dump_printf(msg, "TIM1_TRG_COM");
 8002706:	4903      	ldr	r1, [pc, #12]	; (8002714 <TIM1_TRG_COM_IRQHandler+0x10>)
 8002708:	4b03      	ldr	r3, [pc, #12]	; (8002718 <TIM1_TRG_COM_IRQHandler+0x14>)
 800270a:	6818      	ldr	r0, [r3, #0]
 800270c:	f7ff fa8c 	bl	8001c28 <dump_printf>
	while(1);
 8002710:	e7fe      	b.n	8002710 <TIM1_TRG_COM_IRQHandler+0xc>
 8002712:	bf00      	nop
 8002714:	0800b234 	.word	0x0800b234
 8002718:	2000000c 	.word	0x2000000c

0800271c <TIM1_CC_IRQHandler>:
}

__weak void TIM1_CC_IRQHandler(void)
{
 800271c:	b508      	push	{r3, lr}
	dump_printf(msg, "TIM1_CC");
 800271e:	4903      	ldr	r1, [pc, #12]	; (800272c <TIM1_CC_IRQHandler+0x10>)
 8002720:	4b03      	ldr	r3, [pc, #12]	; (8002730 <TIM1_CC_IRQHandler+0x14>)
 8002722:	6818      	ldr	r0, [r3, #0]
 8002724:	f7ff fa80 	bl	8001c28 <dump_printf>
	while(1);
 8002728:	e7fe      	b.n	8002728 <TIM1_CC_IRQHandler+0xc>
 800272a:	bf00      	nop
 800272c:	0800b244 	.word	0x0800b244
 8002730:	2000000c 	.word	0x2000000c

08002734 <I2C1_EV_IRQHandler>:
	dump_printf(msg, "TIM4");
	while(1);
}

__weak void I2C1_EV_IRQHandler(void)
{
 8002734:	b508      	push	{r3, lr}
	dump_printf(msg, "I2C1_EV");
 8002736:	4903      	ldr	r1, [pc, #12]	; (8002744 <I2C1_EV_IRQHandler+0x10>)
 8002738:	4b03      	ldr	r3, [pc, #12]	; (8002748 <I2C1_EV_IRQHandler+0x14>)
 800273a:	6818      	ldr	r0, [r3, #0]
 800273c:	f7ff fa74 	bl	8001c28 <dump_printf>
	while(1);
 8002740:	e7fe      	b.n	8002740 <I2C1_EV_IRQHandler+0xc>
 8002742:	bf00      	nop
 8002744:	0800b24c 	.word	0x0800b24c
 8002748:	2000000c 	.word	0x2000000c

0800274c <I2C1_ER_IRQHandler>:
}

__weak void I2C1_ER_IRQHandler(void)
{
 800274c:	b508      	push	{r3, lr}
	dump_printf(msg, "I2C1_ER");
 800274e:	4903      	ldr	r1, [pc, #12]	; (800275c <I2C1_ER_IRQHandler+0x10>)
 8002750:	4b03      	ldr	r3, [pc, #12]	; (8002760 <I2C1_ER_IRQHandler+0x14>)
 8002752:	6818      	ldr	r0, [r3, #0]
 8002754:	f7ff fa68 	bl	8001c28 <dump_printf>
	while(1);
 8002758:	e7fe      	b.n	8002758 <I2C1_ER_IRQHandler+0xc>
 800275a:	bf00      	nop
 800275c:	0800b254 	.word	0x0800b254
 8002760:	2000000c 	.word	0x2000000c

08002764 <I2C2_EV_IRQHandler>:
}

__weak void I2C2_EV_IRQHandler(void)
{
 8002764:	b508      	push	{r3, lr}
	dump_printf(msg, "I2C2_EV");
 8002766:	4903      	ldr	r1, [pc, #12]	; (8002774 <I2C2_EV_IRQHandler+0x10>)
 8002768:	4b03      	ldr	r3, [pc, #12]	; (8002778 <I2C2_EV_IRQHandler+0x14>)
 800276a:	6818      	ldr	r0, [r3, #0]
 800276c:	f7ff fa5c 	bl	8001c28 <dump_printf>
	while(1);
 8002770:	e7fe      	b.n	8002770 <I2C2_EV_IRQHandler+0xc>
 8002772:	bf00      	nop
 8002774:	0800b25c 	.word	0x0800b25c
 8002778:	2000000c 	.word	0x2000000c

0800277c <I2C2_ER_IRQHandler>:
}

__weak void I2C2_ER_IRQHandler(void)
{
 800277c:	b508      	push	{r3, lr}
	dump_printf(msg, "I2C2_ER");
 800277e:	4903      	ldr	r1, [pc, #12]	; (800278c <I2C2_ER_IRQHandler+0x10>)
 8002780:	4b03      	ldr	r3, [pc, #12]	; (8002790 <I2C2_ER_IRQHandler+0x14>)
 8002782:	6818      	ldr	r0, [r3, #0]
 8002784:	f7ff fa50 	bl	8001c28 <dump_printf>
	while(1);
 8002788:	e7fe      	b.n	8002788 <I2C2_ER_IRQHandler+0xc>
 800278a:	bf00      	nop
 800278c:	0800b264 	.word	0x0800b264
 8002790:	2000000c 	.word	0x2000000c

08002794 <SPI1_IRQHandler>:
}

__weak void SPI1_IRQHandler(void)
{
 8002794:	b508      	push	{r3, lr}
	dump_printf(msg, "SPI1");
 8002796:	4903      	ldr	r1, [pc, #12]	; (80027a4 <SPI1_IRQHandler+0x10>)
 8002798:	4b03      	ldr	r3, [pc, #12]	; (80027a8 <SPI1_IRQHandler+0x14>)
 800279a:	6818      	ldr	r0, [r3, #0]
 800279c:	f7ff fa44 	bl	8001c28 <dump_printf>
	while(1);
 80027a0:	e7fe      	b.n	80027a0 <SPI1_IRQHandler+0xc>
 80027a2:	bf00      	nop
 80027a4:	0800b26c 	.word	0x0800b26c
 80027a8:	2000000c 	.word	0x2000000c

080027ac <SPI2_IRQHandler>:
}

__weak void SPI2_IRQHandler(void)
{
 80027ac:	b508      	push	{r3, lr}
	dump_printf(msg, "SPI2");
 80027ae:	4903      	ldr	r1, [pc, #12]	; (80027bc <SPI2_IRQHandler+0x10>)
 80027b0:	4b03      	ldr	r3, [pc, #12]	; (80027c0 <SPI2_IRQHandler+0x14>)
 80027b2:	6818      	ldr	r0, [r3, #0]
 80027b4:	f7ff fa38 	bl	8001c28 <dump_printf>
	while(1);
 80027b8:	e7fe      	b.n	80027b8 <SPI2_IRQHandler+0xc>
 80027ba:	bf00      	nop
 80027bc:	0800aee0 	.word	0x0800aee0
 80027c0:	2000000c 	.word	0x2000000c

080027c4 <EXTI15_10_IRQHandler>:
	dump_printf(msg, "USART3");
	while(1);
}

__weak void EXTI15_10_IRQHandler(void)
{
 80027c4:	b508      	push	{r3, lr}
	dump_printf(msg, "EXTI15_10");
 80027c6:	4903      	ldr	r1, [pc, #12]	; (80027d4 <EXTI15_10_IRQHandler+0x10>)
 80027c8:	4b03      	ldr	r3, [pc, #12]	; (80027d8 <EXTI15_10_IRQHandler+0x14>)
 80027ca:	6818      	ldr	r0, [r3, #0]
 80027cc:	f7ff fa2c 	bl	8001c28 <dump_printf>
	while(1);
 80027d0:	e7fe      	b.n	80027d0 <EXTI15_10_IRQHandler+0xc>
 80027d2:	bf00      	nop
 80027d4:	0800b274 	.word	0x0800b274
 80027d8:	2000000c 	.word	0x2000000c

080027dc <RTC_Alarm_IRQHandler>:
}

__weak void RTC_Alarm_IRQHandler(void)
{
 80027dc:	b508      	push	{r3, lr}
	dump_printf(msg, "RTC_Alarm");
 80027de:	4903      	ldr	r1, [pc, #12]	; (80027ec <RTC_Alarm_IRQHandler+0x10>)
 80027e0:	4b03      	ldr	r3, [pc, #12]	; (80027f0 <RTC_Alarm_IRQHandler+0x14>)
 80027e2:	6818      	ldr	r0, [r3, #0]
 80027e4:	f7ff fa20 	bl	8001c28 <dump_printf>
	while(1);
 80027e8:	e7fe      	b.n	80027e8 <RTC_Alarm_IRQHandler+0xc>
 80027ea:	bf00      	nop
 80027ec:	0800b280 	.word	0x0800b280
 80027f0:	2000000c 	.word	0x2000000c

080027f4 <USBWakeUp_IRQHandler>:
}

__weak void USBWakeUp_IRQHandler(void)
{
 80027f4:	b508      	push	{r3, lr}
	dump_printf(msg, "USBWakeUp");
 80027f6:	4903      	ldr	r1, [pc, #12]	; (8002804 <USBWakeUp_IRQHandler+0x10>)
 80027f8:	4b03      	ldr	r3, [pc, #12]	; (8002808 <USBWakeUp_IRQHandler+0x14>)
 80027fa:	6818      	ldr	r0, [r3, #0]
 80027fc:	f7ff fa14 	bl	8001c28 <dump_printf>
}
 8002800:	bd08      	pop	{r3, pc}
 8002802:	bf00      	nop
 8002804:	0800b28c 	.word	0x0800b28c
 8002808:	2000000c 	.word	0x2000000c

0800280c <SystemInit>:
  */
void SystemInit (void)
{
  /* Reset the RCC clock configuration to the default reset state(for debug purpose) */
  /* Set HSION bit */
  RCC->CR |= (uint32_t)0x00000001;
 800280c:	4b0f      	ldr	r3, [pc, #60]	; (800284c <SystemInit+0x40>)
 800280e:	681a      	ldr	r2, [r3, #0]
 8002810:	f042 0201 	orr.w	r2, r2, #1
 8002814:	601a      	str	r2, [r3, #0]

  /* Reset SW, HPRE, PPRE1, PPRE2, ADCPRE and MCO bits */
#if !defined(STM32F105xC) && !defined(STM32F107xC)
  RCC->CFGR &= (uint32_t)0xF8FF0000;
 8002816:	6859      	ldr	r1, [r3, #4]
 8002818:	4a0d      	ldr	r2, [pc, #52]	; (8002850 <SystemInit+0x44>)
 800281a:	400a      	ands	r2, r1
 800281c:	605a      	str	r2, [r3, #4]
#else
  RCC->CFGR &= (uint32_t)0xF0FF0000;
#endif /* STM32F105xC */   
  
  /* Reset HSEON, CSSON and PLLON bits */
  RCC->CR &= (uint32_t)0xFEF6FFFF;
 800281e:	681a      	ldr	r2, [r3, #0]
 8002820:	f022 7284 	bic.w	r2, r2, #17301504	; 0x1080000
 8002824:	f422 3280 	bic.w	r2, r2, #65536	; 0x10000
 8002828:	601a      	str	r2, [r3, #0]

  /* Reset HSEBYP bit */
  RCC->CR &= (uint32_t)0xFFFBFFFF;
 800282a:	681a      	ldr	r2, [r3, #0]
 800282c:	f422 2280 	bic.w	r2, r2, #262144	; 0x40000
 8002830:	601a      	str	r2, [r3, #0]

  /* Reset PLLSRC, PLLXTPRE, PLLMUL and USBPRE/OTGFSPRE bits */
  RCC->CFGR &= (uint32_t)0xFF80FFFF;
 8002832:	685a      	ldr	r2, [r3, #4]
 8002834:	f422 02fe 	bic.w	r2, r2, #8323072	; 0x7f0000
 8002838:	605a      	str	r2, [r3, #4]

  /* Reset CFGR2 register */
  RCC->CFGR2 = 0x00000000;      
#else
  /* Disable all interrupts and clear pending bits  */
  RCC->CIR = 0x009F0000;
 800283a:	f44f 021f 	mov.w	r2, #10420224	; 0x9f0000
 800283e:	609a      	str	r2, [r3, #8]
#endif 

#ifdef VECT_TAB_SRAM
  SCB->VTOR = SRAM_BASE | VECT_TAB_OFFSET; /* Vector Table Relocation in Internal SRAM. */
#else
  SCB->VTOR = FLASH_BASE | VECT_TAB_OFFSET; /* Vector Table Relocation in Internal FLASH. */
 8002840:	4b04      	ldr	r3, [pc, #16]	; (8002854 <SystemInit+0x48>)
 8002842:	f04f 6200 	mov.w	r2, #134217728	; 0x8000000
 8002846:	609a      	str	r2, [r3, #8]
#endif 
}
 8002848:	4770      	bx	lr
 800284a:	bf00      	nop
 800284c:	40021000 	.word	0x40021000
 8002850:	f8ff0000 	.word	0xf8ff0000
 8002854:	e000ed00 	.word	0xe000ed00

08002858 <SystemCoreClockUpdate>:
#if defined(STM32F100xB) || defined(STM32F100xE)
  uint32_t prediv1factor = 0;
#endif /* STM32F100xB or STM32F100xE */
    
  /* Get SYSCLK source -------------------------------------------------------*/
  tmp = RCC->CFGR & RCC_CFGR_SWS;
 8002858:	4b1f      	ldr	r3, [pc, #124]	; (80028d8 <SystemCoreClockUpdate+0x80>)
 800285a:	685b      	ldr	r3, [r3, #4]
 800285c:	f003 030c 	and.w	r3, r3, #12
  
  switch (tmp)
 8002860:	2b04      	cmp	r3, #4
 8002862:	d014      	beq.n	800288e <SystemCoreClockUpdate+0x36>
 8002864:	2b08      	cmp	r3, #8
 8002866:	d016      	beq.n	8002896 <SystemCoreClockUpdate+0x3e>
 8002868:	b11b      	cbz	r3, 8002872 <SystemCoreClockUpdate+0x1a>
      }
#endif /* STM32F105xC */ 
      break;

    default:
      SystemCoreClock = HSI_VALUE;
 800286a:	4b1c      	ldr	r3, [pc, #112]	; (80028dc <SystemCoreClockUpdate+0x84>)
 800286c:	4a1c      	ldr	r2, [pc, #112]	; (80028e0 <SystemCoreClockUpdate+0x88>)
 800286e:	601a      	str	r2, [r3, #0]
      break;
 8002870:	e002      	b.n	8002878 <SystemCoreClockUpdate+0x20>
      SystemCoreClock = HSI_VALUE;
 8002872:	4b1a      	ldr	r3, [pc, #104]	; (80028dc <SystemCoreClockUpdate+0x84>)
 8002874:	4a1a      	ldr	r2, [pc, #104]	; (80028e0 <SystemCoreClockUpdate+0x88>)
 8002876:	601a      	str	r2, [r3, #0]
  }
  
  /* Compute HCLK clock frequency ----------------*/
  /* Get HCLK prescaler */
  tmp = AHBPrescTable[((RCC->CFGR & RCC_CFGR_HPRE) >> 4)];
 8002878:	4b17      	ldr	r3, [pc, #92]	; (80028d8 <SystemCoreClockUpdate+0x80>)
 800287a:	685b      	ldr	r3, [r3, #4]
 800287c:	f3c3 1303 	ubfx	r3, r3, #4, #4
 8002880:	4a18      	ldr	r2, [pc, #96]	; (80028e4 <SystemCoreClockUpdate+0x8c>)
 8002882:	5cd1      	ldrb	r1, [r2, r3]
  /* HCLK clock frequency */
  SystemCoreClock >>= tmp;  
 8002884:	4a15      	ldr	r2, [pc, #84]	; (80028dc <SystemCoreClockUpdate+0x84>)
 8002886:	6813      	ldr	r3, [r2, #0]
 8002888:	40cb      	lsrs	r3, r1
 800288a:	6013      	str	r3, [r2, #0]
}
 800288c:	4770      	bx	lr
      SystemCoreClock = HSE_VALUE;
 800288e:	4b13      	ldr	r3, [pc, #76]	; (80028dc <SystemCoreClockUpdate+0x84>)
 8002890:	4a13      	ldr	r2, [pc, #76]	; (80028e0 <SystemCoreClockUpdate+0x88>)
 8002892:	601a      	str	r2, [r3, #0]
      break;
 8002894:	e7f0      	b.n	8002878 <SystemCoreClockUpdate+0x20>
      pllmull = RCC->CFGR & RCC_CFGR_PLLMULL;
 8002896:	4a10      	ldr	r2, [pc, #64]	; (80028d8 <SystemCoreClockUpdate+0x80>)
 8002898:	6853      	ldr	r3, [r2, #4]
      pllsource = RCC->CFGR & RCC_CFGR_PLLSRC;
 800289a:	6852      	ldr	r2, [r2, #4]
      pllmull = ( pllmull >> 18) + 2;
 800289c:	f3c3 4383 	ubfx	r3, r3, #18, #4
 80028a0:	3302      	adds	r3, #2
      if (pllsource == 0x00)
 80028a2:	f412 3f80 	tst.w	r2, #65536	; 0x10000
 80028a6:	d105      	bne.n	80028b4 <SystemCoreClockUpdate+0x5c>
        SystemCoreClock = (HSI_VALUE >> 1) * pllmull;
 80028a8:	4a0f      	ldr	r2, [pc, #60]	; (80028e8 <SystemCoreClockUpdate+0x90>)
 80028aa:	fb02 f303 	mul.w	r3, r2, r3
 80028ae:	4a0b      	ldr	r2, [pc, #44]	; (80028dc <SystemCoreClockUpdate+0x84>)
 80028b0:	6013      	str	r3, [r2, #0]
 80028b2:	e7e1      	b.n	8002878 <SystemCoreClockUpdate+0x20>
        if ((RCC->CFGR & RCC_CFGR_PLLXTPRE) != (uint32_t)RESET)
 80028b4:	4a08      	ldr	r2, [pc, #32]	; (80028d8 <SystemCoreClockUpdate+0x80>)
 80028b6:	6852      	ldr	r2, [r2, #4]
 80028b8:	f412 3f00 	tst.w	r2, #131072	; 0x20000
 80028bc:	d005      	beq.n	80028ca <SystemCoreClockUpdate+0x72>
          SystemCoreClock = (HSE_VALUE >> 1) * pllmull;
 80028be:	4a0a      	ldr	r2, [pc, #40]	; (80028e8 <SystemCoreClockUpdate+0x90>)
 80028c0:	fb02 f303 	mul.w	r3, r2, r3
 80028c4:	4a05      	ldr	r2, [pc, #20]	; (80028dc <SystemCoreClockUpdate+0x84>)
 80028c6:	6013      	str	r3, [r2, #0]
 80028c8:	e7d6      	b.n	8002878 <SystemCoreClockUpdate+0x20>
          SystemCoreClock = HSE_VALUE * pllmull;
 80028ca:	4a05      	ldr	r2, [pc, #20]	; (80028e0 <SystemCoreClockUpdate+0x88>)
 80028cc:	fb02 f303 	mul.w	r3, r2, r3
 80028d0:	4a02      	ldr	r2, [pc, #8]	; (80028dc <SystemCoreClockUpdate+0x84>)
 80028d2:	6013      	str	r3, [r2, #0]
 80028d4:	e7d0      	b.n	8002878 <SystemCoreClockUpdate+0x20>
 80028d6:	bf00      	nop
 80028d8:	40021000 	.word	0x40021000
 80028dc:	20000010 	.word	0x20000010
 80028e0:	007a1200 	.word	0x007a1200
 80028e4:	0800b2bc 	.word	0x0800b2bc
 80028e8:	003d0900 	.word	0x003d0900

080028ec <Systick_init>:
//Tableau de pointeurs sur fonctions qui doivent tre appeles priodiquement (1ms) par l'IT systick.
static callback_fun_t callback_functions[MAX_CALLBACK_FUNCTION_NB];
static bool_e initialized = FALSE;

void Systick_init(void)
{
 80028ec:	b508      	push	{r3, lr}
	uint8_t i;
	for(i = 0; i<MAX_CALLBACK_FUNCTION_NB; i++)
 80028ee:	2300      	movs	r3, #0
 80028f0:	e005      	b.n	80028fe <Systick_init+0x12>
		callback_functions[i] = NULL;
 80028f2:	4a09      	ldr	r2, [pc, #36]	; (8002918 <Systick_init+0x2c>)
 80028f4:	2100      	movs	r1, #0
 80028f6:	f842 1023 	str.w	r1, [r2, r3, lsl #2]
	for(i = 0; i<MAX_CALLBACK_FUNCTION_NB; i++)
 80028fa:	3301      	adds	r3, #1
 80028fc:	b2db      	uxtb	r3, r3
 80028fe:	2b0f      	cmp	r3, #15
 8002900:	d9f7      	bls.n	80028f2 <Systick_init+0x6>
	HAL_NVIC_SetPriority(SysTick_IRQn , 0,  0);
 8002902:	2200      	movs	r2, #0
 8002904:	4611      	mov	r1, r2
 8002906:	f04f 30ff 	mov.w	r0, #4294967295	; 0xffffffff
 800290a:	f000 ff09 	bl	8003720 <HAL_NVIC_SetPriority>
	initialized = TRUE;
 800290e:	4b03      	ldr	r3, [pc, #12]	; (800291c <Systick_init+0x30>)
 8002910:	2201      	movs	r2, #1
 8002912:	601a      	str	r2, [r3, #0]
}
 8002914:	bd08      	pop	{r3, pc}
 8002916:	bf00      	nop
 8002918:	20000d38 	.word	0x20000d38
 800291c:	20000d78 	.word	0x20000d78

08002920 <SysTick_Handler>:

//Routine d'interruption appele automatiquement  chaque ms.
void SysTick_Handler(void)
{
 8002920:	b510      	push	{r4, lr}
	//On se doit de faire appel aux deux fonctions de la HAL...
	HAL_IncTick();
 8002922:	f000 fc63 	bl	80031ec <HAL_IncTick>
	HAL_SYSTICK_IRQHandler();
 8002926:	f000 ff54 	bl	80037d2 <HAL_SYSTICK_IRQHandler>

	if(!initialized)
 800292a:	4b0a      	ldr	r3, [pc, #40]	; (8002954 <SysTick_Handler+0x34>)
 800292c:	681b      	ldr	r3, [r3, #0]
 800292e:	b10b      	cbz	r3, 8002934 <SysTick_Handler+0x14>
{
 8002930:	2400      	movs	r4, #0
 8002932:	e005      	b.n	8002940 <SysTick_Handler+0x20>
		Systick_init();
 8002934:	f7ff ffda 	bl	80028ec <Systick_init>
 8002938:	e7fa      	b.n	8002930 <SysTick_Handler+0x10>

	uint8_t i;
	for(i = 0; i<MAX_CALLBACK_FUNCTION_NB; i++)
	{
		if(callback_functions[i])
			(*callback_functions[i])();		//Appels des fonctions.
 800293a:	4798      	blx	r3
	for(i = 0; i<MAX_CALLBACK_FUNCTION_NB; i++)
 800293c:	3401      	adds	r4, #1
 800293e:	b2e4      	uxtb	r4, r4
 8002940:	2c0f      	cmp	r4, #15
 8002942:	d805      	bhi.n	8002950 <SysTick_Handler+0x30>
		if(callback_functions[i])
 8002944:	4b04      	ldr	r3, [pc, #16]	; (8002958 <SysTick_Handler+0x38>)
 8002946:	f853 3024 	ldr.w	r3, [r3, r4, lsl #2]
 800294a:	2b00      	cmp	r3, #0
 800294c:	d1f5      	bne.n	800293a <SysTick_Handler+0x1a>
 800294e:	e7f5      	b.n	800293c <SysTick_Handler+0x1c>
	}
}
 8002950:	bd10      	pop	{r4, pc}
 8002952:	bf00      	nop
 8002954:	20000d78 	.word	0x20000d78
 8002958:	20000d38 	.word	0x20000d38

0800295c <ILI9341_SendCommand>:
/**
 * @brief  Sends chosen Command to the SPI bus
 * @param  None
 * @retval None
 */
void ILI9341_SendCommand(uint8_t data) {
 800295c:	b538      	push	{r3, r4, r5, lr}
 800295e:	4605      	mov	r5, r0
	ILI9341_WRX_RESET();
 8002960:	4c0b      	ldr	r4, [pc, #44]	; (8002990 <ILI9341_SendCommand+0x34>)
 8002962:	2200      	movs	r2, #0
 8002964:	f44f 7180 	mov.w	r1, #256	; 0x100
 8002968:	4620      	mov	r0, r4
 800296a:	f001 f9bd 	bl	8003ce8 <HAL_GPIO_WritePin>
	ILI9341_CS_RESET();
 800296e:	2200      	movs	r2, #0
 8002970:	f44f 5180 	mov.w	r1, #4096	; 0x1000
 8002974:	4620      	mov	r0, r4
 8002976:	f001 f9b7 	bl	8003ce8 <HAL_GPIO_WritePin>
	SPI_WriteNoRegister(ILI9341_SPI,data);
 800297a:	4629      	mov	r1, r5
 800297c:	4805      	ldr	r0, [pc, #20]	; (8002994 <ILI9341_SendCommand+0x38>)
 800297e:	f7fe ffc3 	bl	8001908 <SPI_WriteNoRegister>
	ILI9341_CS_SET();
 8002982:	2201      	movs	r2, #1
 8002984:	f44f 5180 	mov.w	r1, #4096	; 0x1000
 8002988:	4620      	mov	r0, r4
 800298a:	f001 f9ad 	bl	8003ce8 <HAL_GPIO_WritePin>
}
 800298e:	bd38      	pop	{r3, r4, r5, pc}
 8002990:	40010800 	.word	0x40010800
 8002994:	40013000 	.word	0x40013000

08002998 <ILI9341_SendData>:
/**
 * @brief  Sends chosen Data to the SPI bus
 * @param  None
 * @retval None
 */
void ILI9341_SendData(uint8_t data) {
 8002998:	b538      	push	{r3, r4, r5, lr}
 800299a:	4605      	mov	r5, r0
	//TODO Isnt that redundant
	ILI9341_WRX_SET();
 800299c:	4c0b      	ldr	r4, [pc, #44]	; (80029cc <ILI9341_SendData+0x34>)
 800299e:	2201      	movs	r2, #1
 80029a0:	f44f 7180 	mov.w	r1, #256	; 0x100
 80029a4:	4620      	mov	r0, r4
 80029a6:	f001 f99f 	bl	8003ce8 <HAL_GPIO_WritePin>
	ILI9341_CS_RESET();
 80029aa:	2200      	movs	r2, #0
 80029ac:	f44f 5180 	mov.w	r1, #4096	; 0x1000
 80029b0:	4620      	mov	r0, r4
 80029b2:	f001 f999 	bl	8003ce8 <HAL_GPIO_WritePin>
	SPI_WriteNoRegister(ILI9341_SPI, data);
 80029b6:	4629      	mov	r1, r5
 80029b8:	4805      	ldr	r0, [pc, #20]	; (80029d0 <ILI9341_SendData+0x38>)
 80029ba:	f7fe ffa5 	bl	8001908 <SPI_WriteNoRegister>
	ILI9341_CS_SET();
 80029be:	2201      	movs	r2, #1
 80029c0:	f44f 5180 	mov.w	r1, #4096	; 0x1000
 80029c4:	4620      	mov	r0, r4
 80029c6:	f001 f98f 	bl	8003ce8 <HAL_GPIO_WritePin>
}
 80029ca:	bd38      	pop	{r3, r4, r5, pc}
 80029cc:	40010800 	.word	0x40010800
 80029d0:	40013000 	.word	0x40013000

080029d4 <ILI9341_InitLCD>:
void ILI9341_InitLCD(void) {
 80029d4:	b510      	push	{r4, lr}
	ILI9341_RST_RESET();
 80029d6:	4c9a      	ldr	r4, [pc, #616]	; (8002c40 <ILI9341_InitLCD+0x26c>)
 80029d8:	2200      	movs	r2, #0
 80029da:	f44f 7100 	mov.w	r1, #512	; 0x200
 80029de:	4620      	mov	r0, r4
 80029e0:	f001 f982 	bl	8003ce8 <HAL_GPIO_WritePin>
	HAL_Delay(20);
 80029e4:	2014      	movs	r0, #20
 80029e6:	f000 fc13 	bl	8003210 <HAL_Delay>
	ILI9341_RST_SET();
 80029ea:	2201      	movs	r2, #1
 80029ec:	f44f 7100 	mov.w	r1, #512	; 0x200
 80029f0:	4620      	mov	r0, r4
 80029f2:	f001 f979 	bl	8003ce8 <HAL_GPIO_WritePin>
	HAL_Delay(20);
 80029f6:	2014      	movs	r0, #20
 80029f8:	f000 fc0a 	bl	8003210 <HAL_Delay>
	ILI9341_SendCommand(ILI9341_RESET);
 80029fc:	2001      	movs	r0, #1
 80029fe:	f7ff ffad 	bl	800295c <ILI9341_SendCommand>
	HAL_Delay(50);
 8002a02:	2032      	movs	r0, #50	; 0x32
 8002a04:	f000 fc04 	bl	8003210 <HAL_Delay>
	ILI9341_SendCommand(ILI9341_POWERA);
 8002a08:	20cb      	movs	r0, #203	; 0xcb
 8002a0a:	f7ff ffa7 	bl	800295c <ILI9341_SendCommand>
	ILI9341_SendData(0x39);
 8002a0e:	2039      	movs	r0, #57	; 0x39
 8002a10:	f7ff ffc2 	bl	8002998 <ILI9341_SendData>
	ILI9341_SendData(0x2C);
 8002a14:	202c      	movs	r0, #44	; 0x2c
 8002a16:	f7ff ffbf 	bl	8002998 <ILI9341_SendData>
	ILI9341_SendData(0x00);
 8002a1a:	2000      	movs	r0, #0
 8002a1c:	f7ff ffbc 	bl	8002998 <ILI9341_SendData>
	ILI9341_SendData(0x34);
 8002a20:	2034      	movs	r0, #52	; 0x34
 8002a22:	f7ff ffb9 	bl	8002998 <ILI9341_SendData>
	ILI9341_SendData(0x02);
 8002a26:	2002      	movs	r0, #2
 8002a28:	f7ff ffb6 	bl	8002998 <ILI9341_SendData>
	ILI9341_SendCommand(ILI9341_POWERB);
 8002a2c:	20cf      	movs	r0, #207	; 0xcf
 8002a2e:	f7ff ff95 	bl	800295c <ILI9341_SendCommand>
	ILI9341_SendData(0x00);
 8002a32:	2000      	movs	r0, #0
 8002a34:	f7ff ffb0 	bl	8002998 <ILI9341_SendData>
	ILI9341_SendData(0xC1);
 8002a38:	20c1      	movs	r0, #193	; 0xc1
 8002a3a:	f7ff ffad 	bl	8002998 <ILI9341_SendData>
	ILI9341_SendData(0x30);
 8002a3e:	2030      	movs	r0, #48	; 0x30
 8002a40:	f7ff ffaa 	bl	8002998 <ILI9341_SendData>
	ILI9341_SendCommand(ILI9341_DTCA);
 8002a44:	20e8      	movs	r0, #232	; 0xe8
 8002a46:	f7ff ff89 	bl	800295c <ILI9341_SendCommand>
	ILI9341_SendData(0x85);
 8002a4a:	2085      	movs	r0, #133	; 0x85
 8002a4c:	f7ff ffa4 	bl	8002998 <ILI9341_SendData>
	ILI9341_SendData(0x00);
 8002a50:	2000      	movs	r0, #0
 8002a52:	f7ff ffa1 	bl	8002998 <ILI9341_SendData>
	ILI9341_SendData(0x78);
 8002a56:	2078      	movs	r0, #120	; 0x78
 8002a58:	f7ff ff9e 	bl	8002998 <ILI9341_SendData>
	ILI9341_SendCommand(ILI9341_DTCB);
 8002a5c:	20ea      	movs	r0, #234	; 0xea
 8002a5e:	f7ff ff7d 	bl	800295c <ILI9341_SendCommand>
	ILI9341_SendData(0x00);
 8002a62:	2000      	movs	r0, #0
 8002a64:	f7ff ff98 	bl	8002998 <ILI9341_SendData>
	ILI9341_SendData(0x00);
 8002a68:	2000      	movs	r0, #0
 8002a6a:	f7ff ff95 	bl	8002998 <ILI9341_SendData>
	ILI9341_SendCommand(ILI9341_POWER_SEQ);
 8002a6e:	20ed      	movs	r0, #237	; 0xed
 8002a70:	f7ff ff74 	bl	800295c <ILI9341_SendCommand>
	ILI9341_SendData(0x64);
 8002a74:	2064      	movs	r0, #100	; 0x64
 8002a76:	f7ff ff8f 	bl	8002998 <ILI9341_SendData>
	ILI9341_SendData(0x03);
 8002a7a:	2003      	movs	r0, #3
 8002a7c:	f7ff ff8c 	bl	8002998 <ILI9341_SendData>
	ILI9341_SendData(0x12);
 8002a80:	2012      	movs	r0, #18
 8002a82:	f7ff ff89 	bl	8002998 <ILI9341_SendData>
	ILI9341_SendData(0x81);
 8002a86:	2081      	movs	r0, #129	; 0x81
 8002a88:	f7ff ff86 	bl	8002998 <ILI9341_SendData>
	ILI9341_SendCommand(ILI9341_PRC);
 8002a8c:	20f7      	movs	r0, #247	; 0xf7
 8002a8e:	f7ff ff65 	bl	800295c <ILI9341_SendCommand>
	ILI9341_SendData(0x20);
 8002a92:	2020      	movs	r0, #32
 8002a94:	f7ff ff80 	bl	8002998 <ILI9341_SendData>
	ILI9341_SendCommand(ILI9341_POWER1);
 8002a98:	20c0      	movs	r0, #192	; 0xc0
 8002a9a:	f7ff ff5f 	bl	800295c <ILI9341_SendCommand>
	ILI9341_SendData(0x23);
 8002a9e:	2023      	movs	r0, #35	; 0x23
 8002aa0:	f7ff ff7a 	bl	8002998 <ILI9341_SendData>
	ILI9341_SendCommand(ILI9341_POWER2);
 8002aa4:	20c1      	movs	r0, #193	; 0xc1
 8002aa6:	f7ff ff59 	bl	800295c <ILI9341_SendCommand>
	ILI9341_SendData(0x10);
 8002aaa:	2010      	movs	r0, #16
 8002aac:	f7ff ff74 	bl	8002998 <ILI9341_SendData>
	ILI9341_SendCommand(ILI9341_VCOM1);
 8002ab0:	20c5      	movs	r0, #197	; 0xc5
 8002ab2:	f7ff ff53 	bl	800295c <ILI9341_SendCommand>
	ILI9341_SendData(0x3E);
 8002ab6:	203e      	movs	r0, #62	; 0x3e
 8002ab8:	f7ff ff6e 	bl	8002998 <ILI9341_SendData>
	ILI9341_SendData(0x28);
 8002abc:	2028      	movs	r0, #40	; 0x28
 8002abe:	f7ff ff6b 	bl	8002998 <ILI9341_SendData>
	ILI9341_SendCommand(ILI9341_VCOM2);
 8002ac2:	20c7      	movs	r0, #199	; 0xc7
 8002ac4:	f7ff ff4a 	bl	800295c <ILI9341_SendCommand>
	ILI9341_SendData(0x86);
 8002ac8:	2086      	movs	r0, #134	; 0x86
 8002aca:	f7ff ff65 	bl	8002998 <ILI9341_SendData>
	ILI9341_SendCommand(ILI9341_MAC);
 8002ace:	2036      	movs	r0, #54	; 0x36
 8002ad0:	f7ff ff44 	bl	800295c <ILI9341_SendCommand>
	ILI9341_SendData(0x48);
 8002ad4:	2048      	movs	r0, #72	; 0x48
 8002ad6:	f7ff ff5f 	bl	8002998 <ILI9341_SendData>
	ILI9341_SendCommand(ILI9341_PIXEL_FORMAT);
 8002ada:	203a      	movs	r0, #58	; 0x3a
 8002adc:	f7ff ff3e 	bl	800295c <ILI9341_SendCommand>
	ILI9341_SendData(0x55);
 8002ae0:	2055      	movs	r0, #85	; 0x55
 8002ae2:	f7ff ff59 	bl	8002998 <ILI9341_SendData>
	ILI9341_SendCommand(ILI9341_FRC);
 8002ae6:	20b1      	movs	r0, #177	; 0xb1
 8002ae8:	f7ff ff38 	bl	800295c <ILI9341_SendCommand>
	ILI9341_SendData(0x00);
 8002aec:	2000      	movs	r0, #0
 8002aee:	f7ff ff53 	bl	8002998 <ILI9341_SendData>
	ILI9341_SendData(0x18);
 8002af2:	2018      	movs	r0, #24
 8002af4:	f7ff ff50 	bl	8002998 <ILI9341_SendData>
	ILI9341_SendCommand(ILI9341_DFC);
 8002af8:	20b6      	movs	r0, #182	; 0xb6
 8002afa:	f7ff ff2f 	bl	800295c <ILI9341_SendCommand>
	ILI9341_SendData(0x08);
 8002afe:	2008      	movs	r0, #8
 8002b00:	f7ff ff4a 	bl	8002998 <ILI9341_SendData>
	ILI9341_SendData(0x82);
 8002b04:	2082      	movs	r0, #130	; 0x82
 8002b06:	f7ff ff47 	bl	8002998 <ILI9341_SendData>
	ILI9341_SendData(0x27);
 8002b0a:	2027      	movs	r0, #39	; 0x27
 8002b0c:	f7ff ff44 	bl	8002998 <ILI9341_SendData>
	ILI9341_SendCommand(ILI9341_3GAMMA_EN);
 8002b10:	20f2      	movs	r0, #242	; 0xf2
 8002b12:	f7ff ff23 	bl	800295c <ILI9341_SendCommand>
	ILI9341_SendData(0x00);
 8002b16:	2000      	movs	r0, #0
 8002b18:	f7ff ff3e 	bl	8002998 <ILI9341_SendData>
	ILI9341_SendCommand(ILI9341_COLUMN_ADDR);
 8002b1c:	202a      	movs	r0, #42	; 0x2a
 8002b1e:	f7ff ff1d 	bl	800295c <ILI9341_SendCommand>
	ILI9341_SendData(0x00);
 8002b22:	2000      	movs	r0, #0
 8002b24:	f7ff ff38 	bl	8002998 <ILI9341_SendData>
	ILI9341_SendData(0x00);
 8002b28:	2000      	movs	r0, #0
 8002b2a:	f7ff ff35 	bl	8002998 <ILI9341_SendData>
	ILI9341_SendData(0x00);
 8002b2e:	2000      	movs	r0, #0
 8002b30:	f7ff ff32 	bl	8002998 <ILI9341_SendData>
	ILI9341_SendData(0xEF);
 8002b34:	20ef      	movs	r0, #239	; 0xef
 8002b36:	f7ff ff2f 	bl	8002998 <ILI9341_SendData>
	ILI9341_SendCommand(ILI9341_PAGE_ADDR);
 8002b3a:	202b      	movs	r0, #43	; 0x2b
 8002b3c:	f7ff ff0e 	bl	800295c <ILI9341_SendCommand>
	ILI9341_SendData(0x00);
 8002b40:	2000      	movs	r0, #0
 8002b42:	f7ff ff29 	bl	8002998 <ILI9341_SendData>
	ILI9341_SendData(0x00);
 8002b46:	2000      	movs	r0, #0
 8002b48:	f7ff ff26 	bl	8002998 <ILI9341_SendData>
	ILI9341_SendData(0x01);
 8002b4c:	2001      	movs	r0, #1
 8002b4e:	f7ff ff23 	bl	8002998 <ILI9341_SendData>
	ILI9341_SendData(0x3F);
 8002b52:	203f      	movs	r0, #63	; 0x3f
 8002b54:	f7ff ff20 	bl	8002998 <ILI9341_SendData>
	ILI9341_SendCommand(ILI9341_GAMMA);
 8002b58:	2026      	movs	r0, #38	; 0x26
 8002b5a:	f7ff feff 	bl	800295c <ILI9341_SendCommand>
	ILI9341_SendData(0x01);
 8002b5e:	2001      	movs	r0, #1
 8002b60:	f7ff ff1a 	bl	8002998 <ILI9341_SendData>
	ILI9341_SendCommand(ILI9341_PGAMMA);
 8002b64:	20e0      	movs	r0, #224	; 0xe0
 8002b66:	f7ff fef9 	bl	800295c <ILI9341_SendCommand>
	ILI9341_SendData(0x0F);
 8002b6a:	200f      	movs	r0, #15
 8002b6c:	f7ff ff14 	bl	8002998 <ILI9341_SendData>
	ILI9341_SendData(0x31);
 8002b70:	2031      	movs	r0, #49	; 0x31
 8002b72:	f7ff ff11 	bl	8002998 <ILI9341_SendData>
	ILI9341_SendData(0x2B);
 8002b76:	202b      	movs	r0, #43	; 0x2b
 8002b78:	f7ff ff0e 	bl	8002998 <ILI9341_SendData>
	ILI9341_SendData(0x0C);
 8002b7c:	200c      	movs	r0, #12
 8002b7e:	f7ff ff0b 	bl	8002998 <ILI9341_SendData>
	ILI9341_SendData(0x0E);
 8002b82:	200e      	movs	r0, #14
 8002b84:	f7ff ff08 	bl	8002998 <ILI9341_SendData>
	ILI9341_SendData(0x08);
 8002b88:	2008      	movs	r0, #8
 8002b8a:	f7ff ff05 	bl	8002998 <ILI9341_SendData>
	ILI9341_SendData(0x4E);
 8002b8e:	204e      	movs	r0, #78	; 0x4e
 8002b90:	f7ff ff02 	bl	8002998 <ILI9341_SendData>
	ILI9341_SendData(0xF1);
 8002b94:	20f1      	movs	r0, #241	; 0xf1
 8002b96:	f7ff feff 	bl	8002998 <ILI9341_SendData>
	ILI9341_SendData(0x37);
 8002b9a:	2037      	movs	r0, #55	; 0x37
 8002b9c:	f7ff fefc 	bl	8002998 <ILI9341_SendData>
	ILI9341_SendData(0x07);
 8002ba0:	2007      	movs	r0, #7
 8002ba2:	f7ff fef9 	bl	8002998 <ILI9341_SendData>
	ILI9341_SendData(0x10);
 8002ba6:	2010      	movs	r0, #16
 8002ba8:	f7ff fef6 	bl	8002998 <ILI9341_SendData>
	ILI9341_SendData(0x03);
 8002bac:	2003      	movs	r0, #3
 8002bae:	f7ff fef3 	bl	8002998 <ILI9341_SendData>
	ILI9341_SendData(0x0E);
 8002bb2:	200e      	movs	r0, #14
 8002bb4:	f7ff fef0 	bl	8002998 <ILI9341_SendData>
	ILI9341_SendData(0x09);
 8002bb8:	2009      	movs	r0, #9
 8002bba:	f7ff feed 	bl	8002998 <ILI9341_SendData>
	ILI9341_SendData(0x00);
 8002bbe:	2000      	movs	r0, #0
 8002bc0:	f7ff feea 	bl	8002998 <ILI9341_SendData>
	ILI9341_SendCommand(ILI9341_NGAMMA);
 8002bc4:	20e1      	movs	r0, #225	; 0xe1
 8002bc6:	f7ff fec9 	bl	800295c <ILI9341_SendCommand>
	ILI9341_SendData(0x00);
 8002bca:	2000      	movs	r0, #0
 8002bcc:	f7ff fee4 	bl	8002998 <ILI9341_SendData>
	ILI9341_SendData(0x0E);
 8002bd0:	200e      	movs	r0, #14
 8002bd2:	f7ff fee1 	bl	8002998 <ILI9341_SendData>
	ILI9341_SendData(0x14);
 8002bd6:	2014      	movs	r0, #20
 8002bd8:	f7ff fede 	bl	8002998 <ILI9341_SendData>
	ILI9341_SendData(0x03);
 8002bdc:	2003      	movs	r0, #3
 8002bde:	f7ff fedb 	bl	8002998 <ILI9341_SendData>
	ILI9341_SendData(0x11);
 8002be2:	2011      	movs	r0, #17
 8002be4:	f7ff fed8 	bl	8002998 <ILI9341_SendData>
	ILI9341_SendData(0x07);
 8002be8:	2007      	movs	r0, #7
 8002bea:	f7ff fed5 	bl	8002998 <ILI9341_SendData>
	ILI9341_SendData(0x31);
 8002bee:	2031      	movs	r0, #49	; 0x31
 8002bf0:	f7ff fed2 	bl	8002998 <ILI9341_SendData>
	ILI9341_SendData(0xC1);
 8002bf4:	20c1      	movs	r0, #193	; 0xc1
 8002bf6:	f7ff fecf 	bl	8002998 <ILI9341_SendData>
	ILI9341_SendData(0x48);
 8002bfa:	2048      	movs	r0, #72	; 0x48
 8002bfc:	f7ff fecc 	bl	8002998 <ILI9341_SendData>
	ILI9341_SendData(0x08);
 8002c00:	2008      	movs	r0, #8
 8002c02:	f7ff fec9 	bl	8002998 <ILI9341_SendData>
	ILI9341_SendData(0x0F);
 8002c06:	200f      	movs	r0, #15
 8002c08:	f7ff fec6 	bl	8002998 <ILI9341_SendData>
	ILI9341_SendData(0x0C);
 8002c0c:	200c      	movs	r0, #12
 8002c0e:	f7ff fec3 	bl	8002998 <ILI9341_SendData>
	ILI9341_SendData(0x31);
 8002c12:	2031      	movs	r0, #49	; 0x31
 8002c14:	f7ff fec0 	bl	8002998 <ILI9341_SendData>
	ILI9341_SendData(0x36);
 8002c18:	2036      	movs	r0, #54	; 0x36
 8002c1a:	f7ff febd 	bl	8002998 <ILI9341_SendData>
	ILI9341_SendData(0x0F);
 8002c1e:	200f      	movs	r0, #15
 8002c20:	f7ff feba 	bl	8002998 <ILI9341_SendData>
	ILI9341_SendCommand(ILI9341_SLEEP_OUT);
 8002c24:	2011      	movs	r0, #17
 8002c26:	f7ff fe99 	bl	800295c <ILI9341_SendCommand>
	HAL_Delay(10);
 8002c2a:	200a      	movs	r0, #10
 8002c2c:	f000 faf0 	bl	8003210 <HAL_Delay>
	ILI9341_SendCommand(ILI9341_DISPLAY_ON);
 8002c30:	2029      	movs	r0, #41	; 0x29
 8002c32:	f7ff fe93 	bl	800295c <ILI9341_SendCommand>
	ILI9341_SendCommand(ILI9341_GRAM);
 8002c36:	202c      	movs	r0, #44	; 0x2c
 8002c38:	f7ff fe90 	bl	800295c <ILI9341_SendCommand>
}
 8002c3c:	bd10      	pop	{r4, pc}
 8002c3e:	bf00      	nop
 8002c40:	40010800 	.word	0x40010800

08002c44 <ILI9341_SetCursorPosition>:
 * @param  y1: Y coordinate of top left corner of area
 * @param  x2: X coordinate of bottom right of area
 * @param  y2: Y coordinate of bottom right of area
 * @retval None
 */
void ILI9341_SetCursorPosition(uint16_t x1, uint16_t y1, uint16_t x2, uint16_t y2) {
 8002c44:	b5f8      	push	{r3, r4, r5, r6, r7, lr}
 8002c46:	4607      	mov	r7, r0
 8002c48:	460d      	mov	r5, r1
 8002c4a:	4616      	mov	r6, r2
 8002c4c:	461c      	mov	r4, r3
	ILI9341_SendCommand(ILI9341_COLUMN_ADDR);
 8002c4e:	202a      	movs	r0, #42	; 0x2a
 8002c50:	f7ff fe84 	bl	800295c <ILI9341_SendCommand>
	ILI9341_SendData(x1 >> 8);
 8002c54:	0a38      	lsrs	r0, r7, #8
 8002c56:	f7ff fe9f 	bl	8002998 <ILI9341_SendData>
	ILI9341_SendData(x1 & 0xFF);
 8002c5a:	b2f8      	uxtb	r0, r7
 8002c5c:	f7ff fe9c 	bl	8002998 <ILI9341_SendData>
	ILI9341_SendData(x2 >> 8);
 8002c60:	0a30      	lsrs	r0, r6, #8
 8002c62:	f7ff fe99 	bl	8002998 <ILI9341_SendData>
	ILI9341_SendData(x2 & 0xFF);
 8002c66:	b2f0      	uxtb	r0, r6
 8002c68:	f7ff fe96 	bl	8002998 <ILI9341_SendData>

	ILI9341_SendCommand(ILI9341_PAGE_ADDR);
 8002c6c:	202b      	movs	r0, #43	; 0x2b
 8002c6e:	f7ff fe75 	bl	800295c <ILI9341_SendCommand>
	ILI9341_SendData(y1 >> 8);
 8002c72:	0a28      	lsrs	r0, r5, #8
 8002c74:	f7ff fe90 	bl	8002998 <ILI9341_SendData>
	ILI9341_SendData(y1 & 0xFF);
 8002c78:	b2e8      	uxtb	r0, r5
 8002c7a:	f7ff fe8d 	bl	8002998 <ILI9341_SendData>
	ILI9341_SendData(y2 >> 8);
 8002c7e:	0a20      	lsrs	r0, r4, #8
 8002c80:	f7ff fe8a 	bl	8002998 <ILI9341_SendData>
	ILI9341_SendData(y2 & 0xFF);
 8002c84:	b2e0      	uxtb	r0, r4
 8002c86:	f7ff fe87 	bl	8002998 <ILI9341_SendData>
}
 8002c8a:	bdf8      	pop	{r3, r4, r5, r6, r7, pc}

08002c8c <ILI9341_DrawPixel>:
void ILI9341_DrawPixel(uint16_t x, uint16_t y, uint16_t color) {
 8002c8c:	b510      	push	{r4, lr}
 8002c8e:	460b      	mov	r3, r1
 8002c90:	4614      	mov	r4, r2
	ILI9341_SetCursorPosition(x, y, x, y);
 8002c92:	4602      	mov	r2, r0
 8002c94:	f7ff ffd6 	bl	8002c44 <ILI9341_SetCursorPosition>
	ILI9341_SendCommand(ILI9341_GRAM);
 8002c98:	202c      	movs	r0, #44	; 0x2c
 8002c9a:	f7ff fe5f 	bl	800295c <ILI9341_SendCommand>
	ILI9341_SendData(color >> 8);
 8002c9e:	0a20      	lsrs	r0, r4, #8
 8002ca0:	f7ff fe7a 	bl	8002998 <ILI9341_SendData>
	ILI9341_SendData(color & 0xFF);
 8002ca4:	b2e0      	uxtb	r0, r4
 8002ca6:	f7ff fe77 	bl	8002998 <ILI9341_SendData>
}
 8002caa:	bd10      	pop	{r4, pc}

08002cac <ILI9341_INT_Fill>:
 * @param  x1: X coordinate of bottom right point
 * @param  y1: Y coordinate of bottom right point
 * @param  color: Color to be used in fill
 * @retval None
 */
void ILI9341_INT_Fill(uint16_t x0, uint16_t y0, uint16_t x1, uint16_t y1, uint16_t color) {
 8002cac:	b5f0      	push	{r4, r5, r6, r7, lr}
 8002cae:	b083      	sub	sp, #12
 8002cb0:	4607      	mov	r7, r0
 8002cb2:	460e      	mov	r6, r1
 8002cb4:	4614      	mov	r4, r2
 8002cb6:	461d      	mov	r5, r3
 8002cb8:	f8bd c020 	ldrh.w	ip, [sp, #32]
	uint32_t pixels_count;
	uint8_t datas[2];
	datas[1] = HIGHINT(color);
 8002cbc:	ea4f 2e1c 	mov.w	lr, ip, lsr #8
 8002cc0:	f88d e005 	strb.w	lr, [sp, #5]
	datas[0] = LOWINT(color);
 8002cc4:	f88d c004 	strb.w	ip, [sp, #4]

	/* Set cursor position */
	ILI9341_SetCursorPosition(x0, y0, x1, y1);
 8002cc8:	f7ff ffbc 	bl	8002c44 <ILI9341_SetCursorPosition>

	/* Set command for GRAM data */
	ILI9341_SendCommand(ILI9341_GRAM);
 8002ccc:	202c      	movs	r0, #44	; 0x2c
 8002cce:	f7ff fe45 	bl	800295c <ILI9341_SendCommand>
	
	/* Calculate pixels count */
	pixels_count = (x1 - x0 + 1) * (y1 - y0 + 1);
 8002cd2:	1be4      	subs	r4, r4, r7
 8002cd4:	1bad      	subs	r5, r5, r6
 8002cd6:	3501      	adds	r5, #1
 8002cd8:	fb04 5505 	mla	r5, r4, r5, r5

	/* Send everything */
	ILI9341_CS_RESET();
 8002cdc:	4c13      	ldr	r4, [pc, #76]	; (8002d2c <ILI9341_INT_Fill+0x80>)
 8002cde:	2200      	movs	r2, #0
 8002ce0:	f44f 5180 	mov.w	r1, #4096	; 0x1000
 8002ce4:	4620      	mov	r0, r4
 8002ce6:	f000 ffff 	bl	8003ce8 <HAL_GPIO_WritePin>
	ILI9341_WRX_SET();
 8002cea:	2201      	movs	r2, #1
 8002cec:	f44f 7180 	mov.w	r1, #256	; 0x100
 8002cf0:	4620      	mov	r0, r4
 8002cf2:	f000 fff9 	bl	8003ce8 <HAL_GPIO_WritePin>
	
	/* Go to 16-bit SPI mode */
	TM_SPI_SetDataSize(ILI9341_SPI, TM_SPI_DataSize_16b);
 8002cf6:	2101      	movs	r1, #1
 8002cf8:	480d      	ldr	r0, [pc, #52]	; (8002d30 <ILI9341_INT_Fill+0x84>)
 8002cfa:	f7fe fe5b 	bl	80019b4 <TM_SPI_SetDataSize>
	
	/* Send first 65535 bytes, SPI MUST BE IN 16-bit MODE */
	//SPI_DMA_SendHalfWord(ILI9341_SPI, color, (pixels_count > 0xFFFF) ? 0xFFFF : pixels_count);
	uint32_t i;
	for(i=0;i<pixels_count;i++)
 8002cfe:	2400      	movs	r4, #0
 8002d00:	e005      	b.n	8002d0e <ILI9341_INT_Fill+0x62>
		SPI_WriteMultiNoRegister(ILI9341_SPI, datas, 1);
 8002d02:	2201      	movs	r2, #1
 8002d04:	a901      	add	r1, sp, #4
 8002d06:	480a      	ldr	r0, [pc, #40]	; (8002d30 <ILI9341_INT_Fill+0x84>)
 8002d08:	f7fe fe2c 	bl	8001964 <SPI_WriteMultiNoRegister>
	for(i=0;i<pixels_count;i++)
 8002d0c:	3401      	adds	r4, #1
 8002d0e:	42ac      	cmp	r4, r5
 8002d10:	d3f7      	bcc.n	8002d02 <ILI9341_INT_Fill+0x56>
		//SPI_DMA_SendHalfWord(ILI9341_SPI, color, pixels_count - 0xFFFF);
		/* Wait till done */
		//while (SPI_DMA_Working(ILI9341_SPI));
	//}
	
	ILI9341_CS_SET();
 8002d12:	2201      	movs	r2, #1
 8002d14:	f44f 5180 	mov.w	r1, #4096	; 0x1000
 8002d18:	4804      	ldr	r0, [pc, #16]	; (8002d2c <ILI9341_INT_Fill+0x80>)
 8002d1a:	f000 ffe5 	bl	8003ce8 <HAL_GPIO_WritePin>

	/* Go back to 8-bit SPI mode */
	TM_SPI_SetDataSize(ILI9341_SPI, TM_SPI_DataSize_8b);
 8002d1e:	2100      	movs	r1, #0
 8002d20:	4803      	ldr	r0, [pc, #12]	; (8002d30 <ILI9341_INT_Fill+0x84>)
 8002d22:	f7fe fe47 	bl	80019b4 <TM_SPI_SetDataSize>
}
 8002d26:	b003      	add	sp, #12
 8002d28:	bdf0      	pop	{r4, r5, r6, r7, pc}
 8002d2a:	bf00      	nop
 8002d2c:	40010800 	.word	0x40010800
 8002d30:	40013000 	.word	0x40013000

08002d34 <ILI9341_Fill>:
void ILI9341_Fill(uint16_t color) {
 8002d34:	b500      	push	{lr}
 8002d36:	b083      	sub	sp, #12
	ILI9341_INT_Fill(0, 0, ILI9341_Opts.width - 1, ILI9341_Opts.height, color);
 8002d38:	4b06      	ldr	r3, [pc, #24]	; (8002d54 <ILI9341_Fill+0x20>)
 8002d3a:	881a      	ldrh	r2, [r3, #0]
 8002d3c:	3a01      	subs	r2, #1
 8002d3e:	9000      	str	r0, [sp, #0]
 8002d40:	885b      	ldrh	r3, [r3, #2]
 8002d42:	b292      	uxth	r2, r2
 8002d44:	2100      	movs	r1, #0
 8002d46:	4608      	mov	r0, r1
 8002d48:	f7ff ffb0 	bl	8002cac <ILI9341_INT_Fill>
}
 8002d4c:	b003      	add	sp, #12
 8002d4e:	f85d fb04 	ldr.w	pc, [sp], #4
 8002d52:	bf00      	nop
 8002d54:	20000d7c 	.word	0x20000d7c

08002d58 <ILI9341_Rotate>:
/**
 * @brief  Rotates LCD to specific orientation
 * @param  orientation: LCD orientation. This parameter can be a value of @ref ILI9341_Orientation_t enumeration
 * @retval None
 */
void ILI9341_Rotate(ILI9341_Orientation_t orientation) {
 8002d58:	b510      	push	{r4, lr}
 8002d5a:	4604      	mov	r4, r0
	ILI9341_SendCommand(ILI9341_MAC);
 8002d5c:	2036      	movs	r0, #54	; 0x36
 8002d5e:	f7ff fdfd 	bl	800295c <ILI9341_SendCommand>
	if (orientation == ILI9341_Orientation_Portrait_1) {
 8002d62:	b184      	cbz	r4, 8002d86 <ILI9341_Rotate+0x2e>
		ILI9341_SendData(0x58);
	} else if (orientation == ILI9341_Orientation_Portrait_2) {
 8002d64:	2c01      	cmp	r4, #1
 8002d66:	d012      	beq.n	8002d8e <ILI9341_Rotate+0x36>
		ILI9341_SendData(0x88);
	} else if (orientation == ILI9341_Orientation_Landscape_1) {
 8002d68:	2c02      	cmp	r4, #2
 8002d6a:	d014      	beq.n	8002d96 <ILI9341_Rotate+0x3e>
		ILI9341_SendData(0x28);
	} else if (orientation == ILI9341_Orientation_Landscape_2) {
 8002d6c:	2c03      	cmp	r4, #3
 8002d6e:	d016      	beq.n	8002d9e <ILI9341_Rotate+0x46>
		ILI9341_SendData(0xE8);
	}
	ILI9341_Opts.orientation = orientation;
 8002d70:	4b10      	ldr	r3, [pc, #64]	; (8002db4 <ILI9341_Rotate+0x5c>)
 8002d72:	711c      	strb	r4, [r3, #4]
	if (orientation == ILI9341_Orientation_Portrait_1 || orientation == ILI9341_Orientation_Portrait_2) {
 8002d74:	2c01      	cmp	r4, #1
 8002d76:	d916      	bls.n	8002da6 <ILI9341_Rotate+0x4e>
		ILI9341_Opts.width = ILI9341_WIDTH;
		ILI9341_Opts.height = ILI9341_HEIGHT;
	} else {
		ILI9341_Opts.width = ILI9341_HEIGHT;
 8002d78:	4b0e      	ldr	r3, [pc, #56]	; (8002db4 <ILI9341_Rotate+0x5c>)
 8002d7a:	f44f 72a0 	mov.w	r2, #320	; 0x140
 8002d7e:	801a      	strh	r2, [r3, #0]
		ILI9341_Opts.height = ILI9341_WIDTH;
 8002d80:	22f0      	movs	r2, #240	; 0xf0
 8002d82:	805a      	strh	r2, [r3, #2]
	}
}
 8002d84:	bd10      	pop	{r4, pc}
		ILI9341_SendData(0x58);
 8002d86:	2058      	movs	r0, #88	; 0x58
 8002d88:	f7ff fe06 	bl	8002998 <ILI9341_SendData>
 8002d8c:	e7f0      	b.n	8002d70 <ILI9341_Rotate+0x18>
		ILI9341_SendData(0x88);
 8002d8e:	2088      	movs	r0, #136	; 0x88
 8002d90:	f7ff fe02 	bl	8002998 <ILI9341_SendData>
 8002d94:	e7ec      	b.n	8002d70 <ILI9341_Rotate+0x18>
		ILI9341_SendData(0x28);
 8002d96:	2028      	movs	r0, #40	; 0x28
 8002d98:	f7ff fdfe 	bl	8002998 <ILI9341_SendData>
 8002d9c:	e7e8      	b.n	8002d70 <ILI9341_Rotate+0x18>
		ILI9341_SendData(0xE8);
 8002d9e:	20e8      	movs	r0, #232	; 0xe8
 8002da0:	f7ff fdfa 	bl	8002998 <ILI9341_SendData>
 8002da4:	e7e4      	b.n	8002d70 <ILI9341_Rotate+0x18>
		ILI9341_Opts.width = ILI9341_WIDTH;
 8002da6:	22f0      	movs	r2, #240	; 0xf0
 8002da8:	801a      	strh	r2, [r3, #0]
		ILI9341_Opts.height = ILI9341_HEIGHT;
 8002daa:	f44f 72a0 	mov.w	r2, #320	; 0x140
 8002dae:	805a      	strh	r2, [r3, #2]
 8002db0:	e7e8      	b.n	8002d84 <ILI9341_Rotate+0x2c>
 8002db2:	bf00      	nop
 8002db4:	20000d7c 	.word	0x20000d7c

08002db8 <ILI9341_Init>:
{
 8002db8:	b530      	push	{r4, r5, lr}
 8002dba:	b083      	sub	sp, #12
	BSP_GPIO_PinCfg(ILI9341_WRX_PORT,ILI9341_WRX_PIN, GPIO_MODE_OUTPUT_PP,GPIO_NOPULL,GPIO_SPEED_FREQ_MEDIUM);
 8002dbc:	4d19      	ldr	r5, [pc, #100]	; (8002e24 <ILI9341_Init+0x6c>)
 8002dbe:	2401      	movs	r4, #1
 8002dc0:	9400      	str	r4, [sp, #0]
 8002dc2:	2300      	movs	r3, #0
 8002dc4:	4622      	mov	r2, r4
 8002dc6:	f44f 7180 	mov.w	r1, #256	; 0x100
 8002dca:	4628      	mov	r0, r5
 8002dcc:	f7fe fcde 	bl	800178c <BSP_GPIO_PinCfg>
	BSP_GPIO_PinCfg(ILI9341_CS_PORT,ILI9341_CS_PIN, GPIO_MODE_OUTPUT_PP,GPIO_NOPULL,GPIO_SPEED_FREQ_MEDIUM);
 8002dd0:	9400      	str	r4, [sp, #0]
 8002dd2:	2300      	movs	r3, #0
 8002dd4:	4622      	mov	r2, r4
 8002dd6:	f44f 5180 	mov.w	r1, #4096	; 0x1000
 8002dda:	4628      	mov	r0, r5
 8002ddc:	f7fe fcd6 	bl	800178c <BSP_GPIO_PinCfg>
	BSP_GPIO_PinCfg(ILI9341_RST_PORT,ILI9341_RST_PIN, GPIO_MODE_OUTPUT_PP,GPIO_PULLUP,GPIO_SPEED_FREQ_LOW);
 8002de0:	2302      	movs	r3, #2
 8002de2:	9300      	str	r3, [sp, #0]
 8002de4:	4623      	mov	r3, r4
 8002de6:	4622      	mov	r2, r4
 8002de8:	f44f 7100 	mov.w	r1, #512	; 0x200
 8002dec:	4628      	mov	r0, r5
 8002dee:	f7fe fccd 	bl	800178c <BSP_GPIO_PinCfg>
	ILI9341_CS_SET();
 8002df2:	4622      	mov	r2, r4
 8002df4:	f44f 5180 	mov.w	r1, #4096	; 0x1000
 8002df8:	4628      	mov	r0, r5
 8002dfa:	f000 ff75 	bl	8003ce8 <HAL_GPIO_WritePin>
	SPI_Init(ILI9341_SPI);
 8002dfe:	480a      	ldr	r0, [pc, #40]	; (8002e28 <ILI9341_Init+0x70>)
 8002e00:	f7fe fce4 	bl	80017cc <SPI_Init>
	ILI9341_InitLCD();
 8002e04:	f7ff fde6 	bl	80029d4 <ILI9341_InitLCD>
	ILI9341_x = ILI9341_y = 0;
 8002e08:	2000      	movs	r0, #0
 8002e0a:	4b08      	ldr	r3, [pc, #32]	; (8002e2c <ILI9341_Init+0x74>)
 8002e0c:	8018      	strh	r0, [r3, #0]
 8002e0e:	4b08      	ldr	r3, [pc, #32]	; (8002e30 <ILI9341_Init+0x78>)
 8002e10:	8018      	strh	r0, [r3, #0]
	ILI9341_Rotate(ILI9341_Orientation_Portrait_1);
 8002e12:	f7ff ffa1 	bl	8002d58 <ILI9341_Rotate>
	ILI9341_Fill(ILI9341_COLOR_WHITE);
 8002e16:	f64f 70ff 	movw	r0, #65535	; 0xffff
 8002e1a:	f7ff ff8b 	bl	8002d34 <ILI9341_Fill>
}
 8002e1e:	b003      	add	sp, #12
 8002e20:	bd30      	pop	{r4, r5, pc}
 8002e22:	bf00      	nop
 8002e24:	40010800 	.word	0x40010800
 8002e28:	40013000 	.word	0x40013000
 8002e2c:	20000d84 	.word	0x20000d84
 8002e30:	20000d82 	.word	0x20000d82

08002e34 <ILI9341_Putc>:
 * @param  *font: Pointer to @ref FontDef_t used font
 * @param  foreground: Color for char
 * @param  background: Color for char background
 * @retval None
 */
void ILI9341_Putc(uint16_t x, uint16_t y, char c, FontDef_t *font, uint16_t foreground, uint16_t background) {
 8002e34:	e92d 43f0 	stmdb	sp!, {r4, r5, r6, r7, r8, r9, lr}
 8002e38:	b083      	sub	sp, #12
 8002e3a:	4691      	mov	r9, r2
 8002e3c:	461d      	mov	r5, r3
 8002e3e:	f8bd 8028 	ldrh.w	r8, [sp, #40]	; 0x28
	uint32_t i, b, j;
	/* Set coordinates */
	ILI9341_x = x;
 8002e42:	4b2d      	ldr	r3, [pc, #180]	; (8002ef8 <ILI9341_Putc+0xc4>)
 8002e44:	8018      	strh	r0, [r3, #0]
	ILI9341_y = y;
 8002e46:	4b2d      	ldr	r3, [pc, #180]	; (8002efc <ILI9341_Putc+0xc8>)
 8002e48:	8019      	strh	r1, [r3, #0]
	
	if ((ILI9341_x + font->FontWidth) > ILI9341_Opts.width) {
 8002e4a:	782b      	ldrb	r3, [r5, #0]
 8002e4c:	4418      	add	r0, r3
 8002e4e:	4b2c      	ldr	r3, [pc, #176]	; (8002f00 <ILI9341_Putc+0xcc>)
 8002e50:	881b      	ldrh	r3, [r3, #0]
 8002e52:	4298      	cmp	r0, r3
 8002e54:	dd06      	ble.n	8002e64 <ILI9341_Putc+0x30>
		/* If at the end of a line of display, go to new line and set x to 0 position */
		ILI9341_y += font->FontHeight;
 8002e56:	786b      	ldrb	r3, [r5, #1]
 8002e58:	440b      	add	r3, r1
 8002e5a:	4a28      	ldr	r2, [pc, #160]	; (8002efc <ILI9341_Putc+0xc8>)
 8002e5c:	8013      	strh	r3, [r2, #0]
		ILI9341_x = 0;
 8002e5e:	4b26      	ldr	r3, [pc, #152]	; (8002ef8 <ILI9341_Putc+0xc4>)
 8002e60:	2200      	movs	r2, #0
 8002e62:	801a      	strh	r2, [r3, #0]
	}
	
	/* Draw rectangle for background */
	ILI9341_INT_Fill(ILI9341_x, ILI9341_y, ILI9341_x + font->FontWidth, ILI9341_y + font->FontHeight, background);
 8002e64:	4b24      	ldr	r3, [pc, #144]	; (8002ef8 <ILI9341_Putc+0xc4>)
 8002e66:	8818      	ldrh	r0, [r3, #0]
 8002e68:	4b24      	ldr	r3, [pc, #144]	; (8002efc <ILI9341_Putc+0xc8>)
 8002e6a:	8819      	ldrh	r1, [r3, #0]
 8002e6c:	782a      	ldrb	r2, [r5, #0]
 8002e6e:	786b      	ldrb	r3, [r5, #1]
 8002e70:	440b      	add	r3, r1
 8002e72:	4402      	add	r2, r0
 8002e74:	f8bd 402c 	ldrh.w	r4, [sp, #44]	; 0x2c
 8002e78:	9400      	str	r4, [sp, #0]
 8002e7a:	b29b      	uxth	r3, r3
 8002e7c:	b292      	uxth	r2, r2
 8002e7e:	f7ff ff15 	bl	8002cac <ILI9341_INT_Fill>
	

	/* Draw font data */
	for (i = 0; i < font->FontHeight; i++) {
 8002e82:	2700      	movs	r7, #0
 8002e84:	e025      	b.n	8002ed2 <ILI9341_Putc+0x9e>


		if(font->datasize == 1)
		{
			uint8_t * data;
			data = (uint8_t *)font->data;
 8002e86:	6869      	ldr	r1, [r5, #4]
			b = (uint32_t)(data[(c - 32) * font->FontHeight + i]) << 8;
 8002e88:	f1a9 0220 	sub.w	r2, r9, #32
 8002e8c:	fb03 7302 	mla	r3, r3, r2, r7
 8002e90:	5cce      	ldrb	r6, [r1, r3]
 8002e92:	0236      	lsls	r6, r6, #8
 8002e94:	e026      	b.n	8002ee4 <ILI9341_Putc+0xb0>
		}
		else if(font->datasize == 2)
		{
			uint16_t * data;
			data = (uint16_t *)font->data;
 8002e96:	6869      	ldr	r1, [r5, #4]
			b = data[(c - 32) * font->FontHeight + i];
 8002e98:	f1a9 0220 	sub.w	r2, r9, #32
 8002e9c:	fb03 7302 	mla	r3, r3, r2, r7
 8002ea0:	f831 6013 	ldrh.w	r6, [r1, r3, lsl #1]
 8002ea4:	e01e      	b.n	8002ee4 <ILI9341_Putc+0xb0>
		}
		else
			b = 0;	//should never happen
		for (j = 0; j < font->FontWidth; j++) {
 8002ea6:	3401      	adds	r4, #1
 8002ea8:	7829      	ldrb	r1, [r5, #0]
 8002eaa:	42a1      	cmp	r1, r4
 8002eac:	d910      	bls.n	8002ed0 <ILI9341_Putc+0x9c>
			if ((b << j) & 0x8000) {
 8002eae:	fa06 f104 	lsl.w	r1, r6, r4
 8002eb2:	f411 4f00 	tst.w	r1, #32768	; 0x8000
 8002eb6:	d0f6      	beq.n	8002ea6 <ILI9341_Putc+0x72>
				ILI9341_DrawPixel(ILI9341_x + j, (ILI9341_y + i), foreground);
 8002eb8:	4b10      	ldr	r3, [pc, #64]	; (8002efc <ILI9341_Putc+0xc8>)
 8002eba:	8819      	ldrh	r1, [r3, #0]
 8002ebc:	4439      	add	r1, r7
 8002ebe:	4b0e      	ldr	r3, [pc, #56]	; (8002ef8 <ILI9341_Putc+0xc4>)
 8002ec0:	8818      	ldrh	r0, [r3, #0]
 8002ec2:	4420      	add	r0, r4
 8002ec4:	4642      	mov	r2, r8
 8002ec6:	b289      	uxth	r1, r1
 8002ec8:	b280      	uxth	r0, r0
 8002eca:	f7ff fedf 	bl	8002c8c <ILI9341_DrawPixel>
 8002ece:	e7ea      	b.n	8002ea6 <ILI9341_Putc+0x72>
	for (i = 0; i < font->FontHeight; i++) {
 8002ed0:	3701      	adds	r7, #1
 8002ed2:	786b      	ldrb	r3, [r5, #1]
 8002ed4:	42bb      	cmp	r3, r7
 8002ed6:	d907      	bls.n	8002ee8 <ILI9341_Putc+0xb4>
		if(font->datasize == 1)
 8002ed8:	7a2a      	ldrb	r2, [r5, #8]
 8002eda:	2a01      	cmp	r2, #1
 8002edc:	d0d3      	beq.n	8002e86 <ILI9341_Putc+0x52>
		else if(font->datasize == 2)
 8002ede:	2a02      	cmp	r2, #2
 8002ee0:	d0d9      	beq.n	8002e96 <ILI9341_Putc+0x62>
			b = 0;	//should never happen
 8002ee2:	2600      	movs	r6, #0
		for (j = 0; j < font->FontWidth; j++) {
 8002ee4:	2400      	movs	r4, #0
 8002ee6:	e7df      	b.n	8002ea8 <ILI9341_Putc+0x74>
			}
		}
	}
	
	/* Set new pointer */
	ILI9341_x += font->FontWidth;
 8002ee8:	782b      	ldrb	r3, [r5, #0]
 8002eea:	4a03      	ldr	r2, [pc, #12]	; (8002ef8 <ILI9341_Putc+0xc4>)
 8002eec:	8811      	ldrh	r1, [r2, #0]
 8002eee:	440b      	add	r3, r1
 8002ef0:	8013      	strh	r3, [r2, #0]
}
 8002ef2:	b003      	add	sp, #12
 8002ef4:	e8bd 83f0 	ldmia.w	sp!, {r4, r5, r6, r7, r8, r9, pc}
 8002ef8:	20000d82 	.word	0x20000d82
 8002efc:	20000d84 	.word	0x20000d84
 8002f00:	20000d7c 	.word	0x20000d7c

08002f04 <ILI9341_Puts>:
void ILI9341_Puts(uint16_t x, uint16_t y, char *str, FontDef_t *font, uint16_t foreground, uint16_t background) {
 8002f04:	e92d 41f0 	stmdb	sp!, {r4, r5, r6, r7, r8, lr}
 8002f08:	b082      	sub	sp, #8
 8002f0a:	4606      	mov	r6, r0
 8002f0c:	461d      	mov	r5, r3
 8002f0e:	f8bd 8020 	ldrh.w	r8, [sp, #32]
 8002f12:	f8bd 7024 	ldrh.w	r7, [sp, #36]	; 0x24
	ILI9341_x = x;
 8002f16:	4b20      	ldr	r3, [pc, #128]	; (8002f98 <ILI9341_Puts+0x94>)
 8002f18:	8018      	strh	r0, [r3, #0]
	ILI9341_y = y;
 8002f1a:	4b20      	ldr	r3, [pc, #128]	; (8002f9c <ILI9341_Puts+0x98>)
 8002f1c:	8019      	strh	r1, [r3, #0]
	while (*str) {
 8002f1e:	e021      	b.n	8002f64 <ILI9341_Puts+0x60>
			ILI9341_y += font->FontHeight + 1;
 8002f20:	786b      	ldrb	r3, [r5, #1]
 8002f22:	491e      	ldr	r1, [pc, #120]	; (8002f9c <ILI9341_Puts+0x98>)
 8002f24:	8808      	ldrh	r0, [r1, #0]
 8002f26:	4403      	add	r3, r0
 8002f28:	3301      	adds	r3, #1
 8002f2a:	800b      	strh	r3, [r1, #0]
			if (*(str + 1) == '\r') {
 8002f2c:	7853      	ldrb	r3, [r2, #1]
 8002f2e:	2b0d      	cmp	r3, #13
 8002f30:	d003      	beq.n	8002f3a <ILI9341_Puts+0x36>
				ILI9341_x = startX;
 8002f32:	4b19      	ldr	r3, [pc, #100]	; (8002f98 <ILI9341_Puts+0x94>)
 8002f34:	801e      	strh	r6, [r3, #0]
			str++;
 8002f36:	3201      	adds	r2, #1
			continue;
 8002f38:	e014      	b.n	8002f64 <ILI9341_Puts+0x60>
				ILI9341_x = 0;
 8002f3a:	4b17      	ldr	r3, [pc, #92]	; (8002f98 <ILI9341_Puts+0x94>)
 8002f3c:	2100      	movs	r1, #0
 8002f3e:	8019      	strh	r1, [r3, #0]
				str++;
 8002f40:	3201      	adds	r2, #1
 8002f42:	e7f8      	b.n	8002f36 <ILI9341_Puts+0x32>
			str++;
 8002f44:	3201      	adds	r2, #1
			continue;
 8002f46:	e00d      	b.n	8002f64 <ILI9341_Puts+0x60>
		ILI9341_Putc(ILI9341_x, ILI9341_y, *str++, font, foreground, background);
 8002f48:	4614      	mov	r4, r2
 8002f4a:	f814 2b01 	ldrb.w	r2, [r4], #1
 8002f4e:	9701      	str	r7, [sp, #4]
 8002f50:	f8cd 8000 	str.w	r8, [sp]
 8002f54:	462b      	mov	r3, r5
 8002f56:	4911      	ldr	r1, [pc, #68]	; (8002f9c <ILI9341_Puts+0x98>)
 8002f58:	8809      	ldrh	r1, [r1, #0]
 8002f5a:	480f      	ldr	r0, [pc, #60]	; (8002f98 <ILI9341_Puts+0x94>)
 8002f5c:	8800      	ldrh	r0, [r0, #0]
 8002f5e:	f7ff ff69 	bl	8002e34 <ILI9341_Putc>
 8002f62:	4622      	mov	r2, r4
	while (*str) {
 8002f64:	7811      	ldrb	r1, [r2, #0]
 8002f66:	b1a1      	cbz	r1, 8002f92 <ILI9341_Puts+0x8e>
		if (*str == '\n') {
 8002f68:	290a      	cmp	r1, #10
 8002f6a:	d0d9      	beq.n	8002f20 <ILI9341_Puts+0x1c>
		} else if (*str == '\r') {
 8002f6c:	290d      	cmp	r1, #13
 8002f6e:	d0e9      	beq.n	8002f44 <ILI9341_Puts+0x40>
		if(ILI9341_x > ILI9341_Opts.width - font->FontWidth)
 8002f70:	4b09      	ldr	r3, [pc, #36]	; (8002f98 <ILI9341_Puts+0x94>)
 8002f72:	881b      	ldrh	r3, [r3, #0]
 8002f74:	490a      	ldr	r1, [pc, #40]	; (8002fa0 <ILI9341_Puts+0x9c>)
 8002f76:	8809      	ldrh	r1, [r1, #0]
 8002f78:	7828      	ldrb	r0, [r5, #0]
 8002f7a:	1a09      	subs	r1, r1, r0
 8002f7c:	428b      	cmp	r3, r1
 8002f7e:	dde3      	ble.n	8002f48 <ILI9341_Puts+0x44>
			ILI9341_y += font->FontHeight + 1;
 8002f80:	786b      	ldrb	r3, [r5, #1]
 8002f82:	4906      	ldr	r1, [pc, #24]	; (8002f9c <ILI9341_Puts+0x98>)
 8002f84:	8808      	ldrh	r0, [r1, #0]
 8002f86:	4403      	add	r3, r0
 8002f88:	3301      	adds	r3, #1
 8002f8a:	800b      	strh	r3, [r1, #0]
			ILI9341_x = startX;
 8002f8c:	4b02      	ldr	r3, [pc, #8]	; (8002f98 <ILI9341_Puts+0x94>)
 8002f8e:	801e      	strh	r6, [r3, #0]
 8002f90:	e7da      	b.n	8002f48 <ILI9341_Puts+0x44>
}
 8002f92:	b002      	add	sp, #8
 8002f94:	e8bd 81f0 	ldmia.w	sp!, {r4, r5, r6, r7, r8, pc}
 8002f98:	20000d82 	.word	0x20000d82
 8002f9c:	20000d84 	.word	0x20000d84
 8002fa0:	20000d7c 	.word	0x20000d7c

08002fa4 <ILI9341_DrawLine>:
 * @param  y1: Y coordinate of ending point
 * @param  color: Line color
 * @retval None
 */
void ILI9341_DrawLine(uint16_t x0, uint16_t y0, uint16_t x1, uint16_t y1, uint16_t color)
{
 8002fa4:	e92d 4ff0 	stmdb	sp!, {r4, r5, r6, r7, r8, r9, sl, fp, lr}
 8002fa8:	b085      	sub	sp, #20
 8002faa:	4604      	mov	r4, r0
 8002fac:	460d      	mov	r5, r1
 8002fae:	4616      	mov	r6, r2
 8002fb0:	461f      	mov	r7, r3
 8002fb2:	f8bd 8038 	ldrh.w	r8, [sp, #56]	; 0x38
    int   dx_x2 = 0, dy_x2 = 0;
    int   di = 0;


    dx = x1-x0;
    dy = y1-y0;
 8002fb6:	1a5b      	subs	r3, r3, r1

    if (dx == 0) {        /* vertical line */
 8002fb8:	1a12      	subs	r2, r2, r0
 8002fba:	d015      	beq.n	8002fe8 <ILI9341_DrawLine+0x44>
        if (y1 > y0) ILI9341_INT_Fill(x0, y0, x0, y1, color);
        else ILI9341_INT_Fill(x0, y1, x0, y0, color);
        return;
    }

    if (dx > 0) {
 8002fbc:	2a00      	cmp	r2, #0
 8002fbe:	dd24      	ble.n	800300a <ILI9341_DrawLine+0x66>
        dx_sym = 1;
 8002fc0:	f04f 0901 	mov.w	r9, #1
    } else {
        dx_sym = -1;
    }
    if (dy == 0) {        /* horizontal line */
 8002fc4:	b323      	cbz	r3, 8003010 <ILI9341_DrawLine+0x6c>
        if (x1 > x0) ILI9341_INT_Fill(x0, y0, x1, y0, color);
        else  ILI9341_INT_Fill(x1, y0, x0, y0, color);
        return;
    }

    if (dy > 0) {
 8002fc6:	2b00      	cmp	r3, #0
 8002fc8:	dd36      	ble.n	8003038 <ILI9341_DrawLine+0x94>
        dy_sym = 1;
 8002fca:	f04f 0a01 	mov.w	sl, #1
    } else {
        dy_sym = -1;
    }

    dx = dx_sym*dx;
 8002fce:	fb02 f209 	mul.w	r2, r2, r9
    dy = dy_sym*dy;
 8002fd2:	fb03 f30a 	mul.w	r3, r3, sl

    dx_x2 = dx*2;
 8002fd6:	0051      	lsls	r1, r2, #1
 8002fd8:	9103      	str	r1, [sp, #12]
    dy_x2 = dy*2;
 8002fda:	ea4f 0b43 	mov.w	fp, r3, lsl #1

    if (dx >= dy) {
 8002fde:	429a      	cmp	r2, r3
 8002fe0:	db48      	blt.n	8003074 <ILI9341_DrawLine+0xd0>
        di = dy_x2 - dx;
 8002fe2:	ebab 0702 	sub.w	r7, fp, r2
        while (x0 != x1) {
 8002fe6:	e030      	b.n	800304a <ILI9341_DrawLine+0xa6>
        if (y1 > y0) ILI9341_INT_Fill(x0, y0, x0, y1, color);
 8002fe8:	428f      	cmp	r7, r1
 8002fea:	d906      	bls.n	8002ffa <ILI9341_DrawLine+0x56>
 8002fec:	f8cd 8000 	str.w	r8, [sp]
 8002ff0:	463b      	mov	r3, r7
 8002ff2:	4602      	mov	r2, r0
 8002ff4:	f7ff fe5a 	bl	8002cac <ILI9341_INT_Fill>
 8002ff8:	e039      	b.n	800306e <ILI9341_DrawLine+0xca>
        else ILI9341_INT_Fill(x0, y1, x0, y0, color);
 8002ffa:	f8cd 8000 	str.w	r8, [sp]
 8002ffe:	460b      	mov	r3, r1
 8003000:	4602      	mov	r2, r0
 8003002:	4639      	mov	r1, r7
 8003004:	f7ff fe52 	bl	8002cac <ILI9341_INT_Fill>
        return;
 8003008:	e031      	b.n	800306e <ILI9341_DrawLine+0xca>
        dx_sym = -1;
 800300a:	f04f 39ff 	mov.w	r9, #4294967295	; 0xffffffff
 800300e:	e7d9      	b.n	8002fc4 <ILI9341_DrawLine+0x20>
        if (x1 > x0) ILI9341_INT_Fill(x0, y0, x1, y0, color);
 8003010:	42a6      	cmp	r6, r4
 8003012:	d908      	bls.n	8003026 <ILI9341_DrawLine+0x82>
 8003014:	f8cd 8000 	str.w	r8, [sp]
 8003018:	462b      	mov	r3, r5
 800301a:	4632      	mov	r2, r6
 800301c:	4629      	mov	r1, r5
 800301e:	4620      	mov	r0, r4
 8003020:	f7ff fe44 	bl	8002cac <ILI9341_INT_Fill>
 8003024:	e023      	b.n	800306e <ILI9341_DrawLine+0xca>
        else  ILI9341_INT_Fill(x1, y0, x0, y0, color);
 8003026:	f8cd 8000 	str.w	r8, [sp]
 800302a:	462b      	mov	r3, r5
 800302c:	4622      	mov	r2, r4
 800302e:	4629      	mov	r1, r5
 8003030:	4630      	mov	r0, r6
 8003032:	f7ff fe3b 	bl	8002cac <ILI9341_INT_Fill>
        return;
 8003036:	e01a      	b.n	800306e <ILI9341_DrawLine+0xca>
        dy_sym = -1;
 8003038:	f04f 3aff 	mov.w	sl, #4294967295	; 0xffffffff
 800303c:	e7c7      	b.n	8002fce <ILI9341_DrawLine+0x2a>
        	ILI9341_DrawPixel(x0, y0, color);
            x0 += dx_sym;
            if (di<0) {
                di += dy_x2;
            } else {
                di += dy_x2 - dx_x2;
 800303e:	9b03      	ldr	r3, [sp, #12]
 8003040:	ebab 0303 	sub.w	r3, fp, r3
 8003044:	441f      	add	r7, r3
                y0 += dy_sym;
 8003046:	4455      	add	r5, sl
 8003048:	b2ad      	uxth	r5, r5
        while (x0 != x1) {
 800304a:	42b4      	cmp	r4, r6
 800304c:	d00a      	beq.n	8003064 <ILI9341_DrawLine+0xc0>
        	ILI9341_DrawPixel(x0, y0, color);
 800304e:	4642      	mov	r2, r8
 8003050:	4629      	mov	r1, r5
 8003052:	4620      	mov	r0, r4
 8003054:	f7ff fe1a 	bl	8002c8c <ILI9341_DrawPixel>
            x0 += dx_sym;
 8003058:	444c      	add	r4, r9
 800305a:	b2a4      	uxth	r4, r4
            if (di<0) {
 800305c:	2f00      	cmp	r7, #0
 800305e:	daee      	bge.n	800303e <ILI9341_DrawLine+0x9a>
                di += dy_x2;
 8003060:	445f      	add	r7, fp
 8003062:	e7f2      	b.n	800304a <ILI9341_DrawLine+0xa6>
            }
        }
        ILI9341_DrawPixel(x0, y0, color);
 8003064:	4642      	mov	r2, r8
 8003066:	4629      	mov	r1, r5
 8003068:	4620      	mov	r0, r4
 800306a:	f7ff fe0f 	bl	8002c8c <ILI9341_DrawPixel>
            }
        }
        ILI9341_DrawPixel(x0, y0, color);
    }
    return;
}
 800306e:	b005      	add	sp, #20
 8003070:	e8bd 8ff0 	ldmia.w	sp!, {r4, r5, r6, r7, r8, r9, sl, fp, pc}
        di = dx_x2 - dy;
 8003074:	9a03      	ldr	r2, [sp, #12]
 8003076:	1ad6      	subs	r6, r2, r3
        while (y0 != y1) {
 8003078:	e005      	b.n	8003086 <ILI9341_DrawLine+0xe2>
                di += dx_x2 - dy_x2;
 800307a:	9b03      	ldr	r3, [sp, #12]
 800307c:	eba3 030b 	sub.w	r3, r3, fp
 8003080:	441e      	add	r6, r3
                x0 += dx_sym;
 8003082:	444c      	add	r4, r9
 8003084:	b2a4      	uxth	r4, r4
        while (y0 != y1) {
 8003086:	42bd      	cmp	r5, r7
 8003088:	d00b      	beq.n	80030a2 <ILI9341_DrawLine+0xfe>
        	ILI9341_DrawPixel(x0, y0, color);
 800308a:	4642      	mov	r2, r8
 800308c:	4629      	mov	r1, r5
 800308e:	4620      	mov	r0, r4
 8003090:	f7ff fdfc 	bl	8002c8c <ILI9341_DrawPixel>
            y0 += dy_sym;
 8003094:	4455      	add	r5, sl
 8003096:	b2ad      	uxth	r5, r5
            if (di < 0) {
 8003098:	2e00      	cmp	r6, #0
 800309a:	daee      	bge.n	800307a <ILI9341_DrawLine+0xd6>
                di += dx_x2;
 800309c:	9b03      	ldr	r3, [sp, #12]
 800309e:	441e      	add	r6, r3
 80030a0:	e7f1      	b.n	8003086 <ILI9341_DrawLine+0xe2>
        ILI9341_DrawPixel(x0, y0, color);
 80030a2:	4642      	mov	r2, r8
 80030a4:	4629      	mov	r1, r5
 80030a6:	4620      	mov	r0, r4
 80030a8:	f7ff fdf0 	bl	8002c8c <ILI9341_DrawPixel>
 80030ac:	e7df      	b.n	800306e <ILI9341_DrawLine+0xca>

080030ae <ILI9341_DrawRectangle>:
 * @param  x1: X coordinate of bottom right point
 * @param  y1: Y coordinate of bottom right point
 * @param  color: Rectangle color
 * @retval None
 */
void ILI9341_DrawRectangle(uint16_t x0, uint16_t y0, uint16_t x1, uint16_t y1, uint16_t color) {
 80030ae:	e92d 41f0 	stmdb	sp!, {r4, r5, r6, r7, r8, lr}
 80030b2:	b082      	sub	sp, #8
 80030b4:	4605      	mov	r5, r0
 80030b6:	460f      	mov	r7, r1
 80030b8:	4616      	mov	r6, r2
 80030ba:	461c      	mov	r4, r3
 80030bc:	f8bd 8020 	ldrh.w	r8, [sp, #32]
	ILI9341_DrawLine(x0, y0, x1, y0, color); //Top
 80030c0:	f8cd 8000 	str.w	r8, [sp]
 80030c4:	460b      	mov	r3, r1
 80030c6:	f7ff ff6d 	bl	8002fa4 <ILI9341_DrawLine>
	ILI9341_DrawLine(x0, y0, x0, y1, color);	//Left
 80030ca:	f8cd 8000 	str.w	r8, [sp]
 80030ce:	4623      	mov	r3, r4
 80030d0:	462a      	mov	r2, r5
 80030d2:	4639      	mov	r1, r7
 80030d4:	4628      	mov	r0, r5
 80030d6:	f7ff ff65 	bl	8002fa4 <ILI9341_DrawLine>
	ILI9341_DrawLine(x1, y0, x1, y1, color);	//Right
 80030da:	f8cd 8000 	str.w	r8, [sp]
 80030de:	4623      	mov	r3, r4
 80030e0:	4632      	mov	r2, r6
 80030e2:	4639      	mov	r1, r7
 80030e4:	4630      	mov	r0, r6
 80030e6:	f7ff ff5d 	bl	8002fa4 <ILI9341_DrawLine>
	ILI9341_DrawLine(x0, y1, x1, y1, color);	//Bottom
 80030ea:	f8cd 8000 	str.w	r8, [sp]
 80030ee:	4623      	mov	r3, r4
 80030f0:	4632      	mov	r2, r6
 80030f2:	4621      	mov	r1, r4
 80030f4:	4628      	mov	r0, r5
 80030f6:	f7ff ff55 	bl	8002fa4 <ILI9341_DrawLine>
}
 80030fa:	b002      	add	sp, #8
 80030fc:	e8bd 81f0 	ldmia.w	sp!, {r4, r5, r6, r7, r8, pc}

08003100 <ILI9341_DrawFilledRectangle>:
 * @param  x1: X coordinate of bottom right point
 * @param  y1: Y coordinate of bottom right point
 * @param  color: Rectangle color
 * @retval None
 */
void ILI9341_DrawFilledRectangle(uint16_t x0, uint16_t y0, uint16_t x1, uint16_t y1, uint16_t color) {
 8003100:	b500      	push	{lr}
 8003102:	b083      	sub	sp, #12
 8003104:	4684      	mov	ip, r0
 8003106:	468e      	mov	lr, r1
 8003108:	4610      	mov	r0, r2
 800310a:	4619      	mov	r1, r3
	uint16_t tmp;
	
	/* Check correction */
	if (x0 > x1) {
 800310c:	4594      	cmp	ip, r2
 800310e:	d801      	bhi.n	8003114 <ILI9341_DrawFilledRectangle+0x14>
 8003110:	4660      	mov	r0, ip
 8003112:	4694      	mov	ip, r2
		tmp = x0;
		x0 = x1;
		x1 = tmp;
	}
	if (y0 > y1) {
 8003114:	458e      	cmp	lr, r1
 8003116:	d802      	bhi.n	800311e <ILI9341_DrawFilledRectangle+0x1e>
 8003118:	460b      	mov	r3, r1
 800311a:	4671      	mov	r1, lr
 800311c:	469e      	mov	lr, r3
		y0 = y1;
		y1 = tmp;
	}
	
	/* Fill rectangle */
	ILI9341_INT_Fill(x0, y0, x1, y1, color);
 800311e:	f8bd 3010 	ldrh.w	r3, [sp, #16]
 8003122:	9300      	str	r3, [sp, #0]
 8003124:	4673      	mov	r3, lr
 8003126:	4662      	mov	r2, ip
 8003128:	f7ff fdc0 	bl	8002cac <ILI9341_INT_Fill>
	
	/* CS HIGH back */
	ILI9341_CS_SET();
 800312c:	2201      	movs	r2, #1
 800312e:	f44f 5180 	mov.w	r1, #4096	; 0x1000
 8003132:	4803      	ldr	r0, [pc, #12]	; (8003140 <ILI9341_DrawFilledRectangle+0x40>)
 8003134:	f000 fdd8 	bl	8003ce8 <HAL_GPIO_WritePin>
}
 8003138:	b003      	add	sp, #12
 800313a:	f85d fb04 	ldr.w	pc, [sp], #4
 800313e:	bf00      	nop
 8003140:	40010800 	.word	0x40010800

08003144 <ILI9341_printf>:
 * @param  background: Color for string background
 * @param  format : Formated string like printf
 * @retval None
 */
void ILI9341_printf(int16_t x, int16_t y, FontDef_t *font, int16_t foreground, int16_t background, const char *format, ...)
{
 8003144:	b5f0      	push	{r4, r5, r6, r7, lr}
 8003146:	b0c5      	sub	sp, #276	; 0x114
 8003148:	4605      	mov	r5, r0
 800314a:	460e      	mov	r6, r1
 800314c:	4617      	mov	r7, r2
 800314e:	461c      	mov	r4, r3
	char buffer[256];

	va_list args_list;
	va_start(args_list, format);
 8003150:	ab4c      	add	r3, sp, #304	; 0x130
 8003152:	9303      	str	r3, [sp, #12]
	vsnprintf(buffer, 256, format, args_list);
 8003154:	9a4b      	ldr	r2, [sp, #300]	; 0x12c
 8003156:	f44f 7180 	mov.w	r1, #256	; 0x100
 800315a:	a804      	add	r0, sp, #16
 800315c:	f004 f9e6 	bl	800752c <vsnprintf>
	va_end(args_list);

	ILI9341_Puts(x, y, buffer, font, foreground, background);
 8003160:	f8bd 3128 	ldrh.w	r3, [sp, #296]	; 0x128
 8003164:	9301      	str	r3, [sp, #4]
 8003166:	b2a4      	uxth	r4, r4
 8003168:	9400      	str	r4, [sp, #0]
 800316a:	463b      	mov	r3, r7
 800316c:	aa04      	add	r2, sp, #16
 800316e:	b2b1      	uxth	r1, r6
 8003170:	b2a8      	uxth	r0, r5
 8003172:	f7ff fec7 	bl	8002f04 <ILI9341_Puts>
}
 8003176:	b045      	add	sp, #276	; 0x114
 8003178:	bdf0      	pop	{r4, r5, r6, r7, pc}
	...

0800317c <HAL_InitTick>:
  *       implementation  in user file.
  * @param TickPriority Tick interrupt priority.
  * @retval HAL status
  */
__weak HAL_StatusTypeDef HAL_InitTick(uint32_t TickPriority)
{
 800317c:	b510      	push	{r4, lr}
 800317e:	4604      	mov	r4, r0
  /* Configure the SysTick to have interrupt in 1ms time basis*/
  if (HAL_SYSTICK_Config(SystemCoreClock / (1000U / uwTickFreq)) > 0U)
 8003180:	4b0e      	ldr	r3, [pc, #56]	; (80031bc <HAL_InitTick+0x40>)
 8003182:	781a      	ldrb	r2, [r3, #0]
 8003184:	f44f 737a 	mov.w	r3, #1000	; 0x3e8
 8003188:	fbb3 f3f2 	udiv	r3, r3, r2
 800318c:	4a0c      	ldr	r2, [pc, #48]	; (80031c0 <HAL_InitTick+0x44>)
 800318e:	6810      	ldr	r0, [r2, #0]
 8003190:	fbb0 f0f3 	udiv	r0, r0, r3
 8003194:	f000 fb08 	bl	80037a8 <HAL_SYSTICK_Config>
 8003198:	b968      	cbnz	r0, 80031b6 <HAL_InitTick+0x3a>
  {
    return HAL_ERROR;
  }

  /* Configure the SysTick IRQ priority */
  if (TickPriority < (1UL << __NVIC_PRIO_BITS))
 800319a:	2c0f      	cmp	r4, #15
 800319c:	d901      	bls.n	80031a2 <HAL_InitTick+0x26>
    HAL_NVIC_SetPriority(SysTick_IRQn, TickPriority, 0U);
    uwTickPrio = TickPriority;
  }
  else
  {
    return HAL_ERROR;
 800319e:	2001      	movs	r0, #1
 80031a0:	e00a      	b.n	80031b8 <HAL_InitTick+0x3c>
    HAL_NVIC_SetPriority(SysTick_IRQn, TickPriority, 0U);
 80031a2:	2200      	movs	r2, #0
 80031a4:	4621      	mov	r1, r4
 80031a6:	f04f 30ff 	mov.w	r0, #4294967295	; 0xffffffff
 80031aa:	f000 fab9 	bl	8003720 <HAL_NVIC_SetPriority>
    uwTickPrio = TickPriority;
 80031ae:	4b05      	ldr	r3, [pc, #20]	; (80031c4 <HAL_InitTick+0x48>)
 80031b0:	601c      	str	r4, [r3, #0]
  }

  /* Return function status */
  return HAL_OK;
 80031b2:	2000      	movs	r0, #0
 80031b4:	e000      	b.n	80031b8 <HAL_InitTick+0x3c>
    return HAL_ERROR;
 80031b6:	2001      	movs	r0, #1
}
 80031b8:	bd10      	pop	{r4, pc}
 80031ba:	bf00      	nop
 80031bc:	2000002c 	.word	0x2000002c
 80031c0:	20000010 	.word	0x20000010
 80031c4:	20000030 	.word	0x20000030

080031c8 <HAL_Init>:
{
 80031c8:	b508      	push	{r3, lr}
  __HAL_FLASH_PREFETCH_BUFFER_ENABLE();
 80031ca:	4a07      	ldr	r2, [pc, #28]	; (80031e8 <HAL_Init+0x20>)
 80031cc:	6813      	ldr	r3, [r2, #0]
 80031ce:	f043 0310 	orr.w	r3, r3, #16
 80031d2:	6013      	str	r3, [r2, #0]
  HAL_NVIC_SetPriorityGrouping(NVIC_PRIORITYGROUP_4);
 80031d4:	2003      	movs	r0, #3
 80031d6:	f000 fa91 	bl	80036fc <HAL_NVIC_SetPriorityGrouping>
  HAL_InitTick(TICK_INT_PRIORITY);
 80031da:	200f      	movs	r0, #15
 80031dc:	f7ff ffce 	bl	800317c <HAL_InitTick>
  HAL_MspInit();
 80031e0:	f7fe fc53 	bl	8001a8a <HAL_MspInit>
}
 80031e4:	2000      	movs	r0, #0
 80031e6:	bd08      	pop	{r3, pc}
 80031e8:	40022000 	.word	0x40022000

080031ec <HAL_IncTick>:
  *      implementations in user file.
  * @retval None
  */
__weak void HAL_IncTick(void)
{
  uwTick += uwTickFreq;
 80031ec:	4a03      	ldr	r2, [pc, #12]	; (80031fc <HAL_IncTick+0x10>)
 80031ee:	6811      	ldr	r1, [r2, #0]
 80031f0:	4b03      	ldr	r3, [pc, #12]	; (8003200 <HAL_IncTick+0x14>)
 80031f2:	781b      	ldrb	r3, [r3, #0]
 80031f4:	440b      	add	r3, r1
 80031f6:	6013      	str	r3, [r2, #0]
}
 80031f8:	4770      	bx	lr
 80031fa:	bf00      	nop
 80031fc:	20000d88 	.word	0x20000d88
 8003200:	2000002c 	.word	0x2000002c

08003204 <HAL_GetTick>:
  *       implementations in user file.
  * @retval tick value
  */
__weak uint32_t HAL_GetTick(void)
{
  return uwTick;
 8003204:	4b01      	ldr	r3, [pc, #4]	; (800320c <HAL_GetTick+0x8>)
 8003206:	6818      	ldr	r0, [r3, #0]
}
 8003208:	4770      	bx	lr
 800320a:	bf00      	nop
 800320c:	20000d88 	.word	0x20000d88

08003210 <HAL_Delay>:
  *       implementations in user file.
  * @param Delay specifies the delay time length, in milliseconds.
  * @retval None
  */
__weak void HAL_Delay(uint32_t Delay)
{
 8003210:	b538      	push	{r3, r4, r5, lr}
 8003212:	4604      	mov	r4, r0
  uint32_t tickstart = HAL_GetTick();
 8003214:	f7ff fff6 	bl	8003204 <HAL_GetTick>
 8003218:	4605      	mov	r5, r0
  uint32_t wait = Delay;

  /* Add a freq to guarantee minimum wait */
  if (wait < HAL_MAX_DELAY)
 800321a:	f1b4 3fff 	cmp.w	r4, #4294967295	; 0xffffffff
 800321e:	d002      	beq.n	8003226 <HAL_Delay+0x16>
  {
    wait += (uint32_t)(uwTickFreq);
 8003220:	4b04      	ldr	r3, [pc, #16]	; (8003234 <HAL_Delay+0x24>)
 8003222:	781b      	ldrb	r3, [r3, #0]
 8003224:	441c      	add	r4, r3
  }

  while ((HAL_GetTick() - tickstart) < wait)
 8003226:	f7ff ffed 	bl	8003204 <HAL_GetTick>
 800322a:	1b40      	subs	r0, r0, r5
 800322c:	42a0      	cmp	r0, r4
 800322e:	d3fa      	bcc.n	8003226 <HAL_Delay+0x16>
  {
  }
}
 8003230:	bd38      	pop	{r3, r4, r5, pc}
 8003232:	bf00      	nop
 8003234:	2000002c 	.word	0x2000002c

08003238 <HAL_ADC_MspInit>:
  /* Prevent unused argument(s) compilation warning */
  UNUSED(hadc);
  /* NOTE : This function should not be modified. When the callback is needed,
            function HAL_ADC_MspInit must be implemented in the user file.
   */ 
}
 8003238:	4770      	bx	lr

0800323a <HAL_ADC_ConvCpltCallback>:
  /* Prevent unused argument(s) compilation warning */
  UNUSED(hadc);
  /* NOTE : This function should not be modified. When the callback is needed,
            function HAL_ADC_ConvCpltCallback must be implemented in the user file.
   */
}
 800323a:	4770      	bx	lr

0800323c <ADC_DMAConvCplt>:
  * @brief  DMA transfer complete callback. 
  * @param  hdma: pointer to DMA handle.
  * @retval None
  */
void ADC_DMAConvCplt(DMA_HandleTypeDef *hdma)
{
 800323c:	b508      	push	{r3, lr}
  /* Retrieve ADC handle corresponding to current DMA handle */
  ADC_HandleTypeDef* hadc = ( ADC_HandleTypeDef* )((DMA_HandleTypeDef* )hdma)->Parent;
 800323e:	6a43      	ldr	r3, [r0, #36]	; 0x24
 
  /* Update state machine on conversion status if not in error state */
  if (HAL_IS_BIT_CLR(hadc->State, HAL_ADC_STATE_ERROR_INTERNAL | HAL_ADC_STATE_ERROR_DMA))
 8003240:	6a9a      	ldr	r2, [r3, #40]	; 0x28
 8003242:	f012 0f50 	tst.w	r2, #80	; 0x50
 8003246:	d11e      	bne.n	8003286 <ADC_DMAConvCplt+0x4a>
  {
    /* Update ADC state machine */
    SET_BIT(hadc->State, HAL_ADC_STATE_REG_EOC);
 8003248:	6a9a      	ldr	r2, [r3, #40]	; 0x28
 800324a:	f442 7200 	orr.w	r2, r2, #512	; 0x200
 800324e:	629a      	str	r2, [r3, #40]	; 0x28
    /* Determine whether any further conversion upcoming on group regular     */
    /* by external trigger, continuous mode or scan sequence on going.        */
    /* Note: On STM32F1 devices, in case of sequencer enabled                 */
    /*       (several ranks selected), end of conversion flag is raised       */
    /*       at the end of the sequence.                                      */
    if(ADC_IS_SOFTWARE_START_REGULAR(hadc)        && 
 8003250:	681a      	ldr	r2, [r3, #0]
 8003252:	6892      	ldr	r2, [r2, #8]
 8003254:	f402 2260 	and.w	r2, r2, #917504	; 0xe0000
 8003258:	f5b2 2f60 	cmp.w	r2, #917504	; 0xe0000
 800325c:	d003      	beq.n	8003266 <ADC_DMAConvCplt+0x2a>
        SET_BIT(hadc->State, HAL_ADC_STATE_READY);
      }
    }
    
    /* Conversion complete callback */
    HAL_ADC_ConvCpltCallback(hadc); 
 800325e:	4618      	mov	r0, r3
 8003260:	f7ff ffeb 	bl	800323a <HAL_ADC_ConvCpltCallback>
  else
  {
    /* Call DMA error callback */
    hadc->DMA_Handle->XferErrorCallback(hdma);
  }
}
 8003264:	bd08      	pop	{r3, pc}
       (hadc->Init.ContinuousConvMode == DISABLE)   )
 8003266:	68da      	ldr	r2, [r3, #12]
    if(ADC_IS_SOFTWARE_START_REGULAR(hadc)        && 
 8003268:	2a00      	cmp	r2, #0
 800326a:	d1f8      	bne.n	800325e <ADC_DMAConvCplt+0x22>
      CLEAR_BIT(hadc->State, HAL_ADC_STATE_REG_BUSY);   
 800326c:	6a9a      	ldr	r2, [r3, #40]	; 0x28
 800326e:	f422 7280 	bic.w	r2, r2, #256	; 0x100
 8003272:	629a      	str	r2, [r3, #40]	; 0x28
      if (HAL_IS_BIT_CLR(hadc->State, HAL_ADC_STATE_INJ_BUSY))
 8003274:	6a9a      	ldr	r2, [r3, #40]	; 0x28
 8003276:	f412 5f80 	tst.w	r2, #4096	; 0x1000
 800327a:	d1f0      	bne.n	800325e <ADC_DMAConvCplt+0x22>
        SET_BIT(hadc->State, HAL_ADC_STATE_READY);
 800327c:	6a9a      	ldr	r2, [r3, #40]	; 0x28
 800327e:	f042 0201 	orr.w	r2, r2, #1
 8003282:	629a      	str	r2, [r3, #40]	; 0x28
 8003284:	e7eb      	b.n	800325e <ADC_DMAConvCplt+0x22>
    hadc->DMA_Handle->XferErrorCallback(hdma);
 8003286:	6a1b      	ldr	r3, [r3, #32]
 8003288:	6b1b      	ldr	r3, [r3, #48]	; 0x30
 800328a:	4798      	blx	r3
}
 800328c:	e7ea      	b.n	8003264 <ADC_DMAConvCplt+0x28>

0800328e <HAL_ADC_ConvHalfCpltCallback>:
}
 800328e:	4770      	bx	lr

08003290 <ADC_DMAHalfConvCplt>:
  * @brief  DMA half transfer complete callback. 
  * @param  hdma: pointer to DMA handle.
  * @retval None
  */
void ADC_DMAHalfConvCplt(DMA_HandleTypeDef *hdma)   
{
 8003290:	b508      	push	{r3, lr}
  /* Retrieve ADC handle corresponding to current DMA handle */
  ADC_HandleTypeDef* hadc = ( ADC_HandleTypeDef* )((DMA_HandleTypeDef* )hdma)->Parent;
  
  /* Half conversion callback */
  HAL_ADC_ConvHalfCpltCallback(hadc); 
 8003292:	6a40      	ldr	r0, [r0, #36]	; 0x24
 8003294:	f7ff fffb 	bl	800328e <HAL_ADC_ConvHalfCpltCallback>
}
 8003298:	bd08      	pop	{r3, pc}

0800329a <HAL_ADC_ErrorCallback>:
}
 800329a:	4770      	bx	lr

0800329c <ADC_DMAError>:
  * @brief  DMA error callback 
  * @param  hdma: pointer to DMA handle.
  * @retval None
  */
void ADC_DMAError(DMA_HandleTypeDef *hdma)   
{
 800329c:	b508      	push	{r3, lr}
  /* Retrieve ADC handle corresponding to current DMA handle */
  ADC_HandleTypeDef* hadc = ( ADC_HandleTypeDef* )((DMA_HandleTypeDef* )hdma)->Parent;
 800329e:	6a40      	ldr	r0, [r0, #36]	; 0x24
  
  /* Set ADC state */
  SET_BIT(hadc->State, HAL_ADC_STATE_ERROR_DMA);
 80032a0:	6a83      	ldr	r3, [r0, #40]	; 0x28
 80032a2:	f043 0340 	orr.w	r3, r3, #64	; 0x40
 80032a6:	6283      	str	r3, [r0, #40]	; 0x28
  
  /* Set ADC error code to DMA error */
  SET_BIT(hadc->ErrorCode, HAL_ADC_ERROR_DMA);
 80032a8:	6ac3      	ldr	r3, [r0, #44]	; 0x2c
 80032aa:	f043 0304 	orr.w	r3, r3, #4
 80032ae:	62c3      	str	r3, [r0, #44]	; 0x2c
  
  /* Error callback */
  HAL_ADC_ErrorCallback(hadc); 
 80032b0:	f7ff fff3 	bl	800329a <HAL_ADC_ErrorCallback>
}
 80032b4:	bd08      	pop	{r3, pc}
	...

080032b8 <HAL_ADC_ConfigChannel>:
{ 
 80032b8:	b430      	push	{r4, r5}
 80032ba:	b082      	sub	sp, #8
  __IO uint32_t wait_loop_index = 0U;
 80032bc:	2200      	movs	r2, #0
 80032be:	9201      	str	r2, [sp, #4]
  __HAL_LOCK(hadc);
 80032c0:	f890 2024 	ldrb.w	r2, [r0, #36]	; 0x24
 80032c4:	2a01      	cmp	r2, #1
 80032c6:	f000 808f 	beq.w	80033e8 <HAL_ADC_ConfigChannel+0x130>
 80032ca:	4603      	mov	r3, r0
 80032cc:	2201      	movs	r2, #1
 80032ce:	f880 2024 	strb.w	r2, [r0, #36]	; 0x24
  if (sConfig->Rank < 7U)
 80032d2:	684a      	ldr	r2, [r1, #4]
 80032d4:	2a06      	cmp	r2, #6
 80032d6:	d82d      	bhi.n	8003334 <HAL_ADC_ConfigChannel+0x7c>
    MODIFY_REG(hadc->Instance->SQR3                        ,
 80032d8:	6804      	ldr	r4, [r0, #0]
 80032da:	6b60      	ldr	r0, [r4, #52]	; 0x34
 80032dc:	eb02 0282 	add.w	r2, r2, r2, lsl #2
 80032e0:	3a05      	subs	r2, #5
 80032e2:	f04f 0c1f 	mov.w	ip, #31
 80032e6:	fa0c fc02 	lsl.w	ip, ip, r2
 80032ea:	ea20 000c 	bic.w	r0, r0, ip
 80032ee:	680d      	ldr	r5, [r1, #0]
 80032f0:	fa05 f202 	lsl.w	r2, r5, r2
 80032f4:	4302      	orrs	r2, r0
 80032f6:	6362      	str	r2, [r4, #52]	; 0x34
  if (sConfig->Channel >= ADC_CHANNEL_10)
 80032f8:	680a      	ldr	r2, [r1, #0]
 80032fa:	2a09      	cmp	r2, #9
 80032fc:	d938      	bls.n	8003370 <HAL_ADC_ConfigChannel+0xb8>
    MODIFY_REG(hadc->Instance->SMPR1                             ,
 80032fe:	681c      	ldr	r4, [r3, #0]
 8003300:	68e0      	ldr	r0, [r4, #12]
 8003302:	eb02 0242 	add.w	r2, r2, r2, lsl #1
 8003306:	3a1e      	subs	r2, #30
 8003308:	f04f 0c07 	mov.w	ip, #7
 800330c:	fa0c fc02 	lsl.w	ip, ip, r2
 8003310:	ea20 000c 	bic.w	r0, r0, ip
 8003314:	688d      	ldr	r5, [r1, #8]
 8003316:	fa05 f202 	lsl.w	r2, r5, r2
 800331a:	4302      	orrs	r2, r0
 800331c:	60e2      	str	r2, [r4, #12]
  if ((sConfig->Channel == ADC_CHANNEL_TEMPSENSOR) ||
 800331e:	680a      	ldr	r2, [r1, #0]
 8003320:	3a10      	subs	r2, #16
 8003322:	2a01      	cmp	r2, #1
 8003324:	d934      	bls.n	8003390 <HAL_ADC_ConfigChannel+0xd8>
  HAL_StatusTypeDef tmp_hal_status = HAL_OK;
 8003326:	2000      	movs	r0, #0
  __HAL_UNLOCK(hadc);
 8003328:	2200      	movs	r2, #0
 800332a:	f883 2024 	strb.w	r2, [r3, #36]	; 0x24
}
 800332e:	b002      	add	sp, #8
 8003330:	bc30      	pop	{r4, r5}
 8003332:	4770      	bx	lr
  else if (sConfig->Rank < 13U)
 8003334:	2a0c      	cmp	r2, #12
 8003336:	d80d      	bhi.n	8003354 <HAL_ADC_ConfigChannel+0x9c>
    MODIFY_REG(hadc->Instance->SQR2                        ,
 8003338:	6805      	ldr	r5, [r0, #0]
 800333a:	6b28      	ldr	r0, [r5, #48]	; 0x30
 800333c:	eb02 0282 	add.w	r2, r2, r2, lsl #2
 8003340:	3a23      	subs	r2, #35	; 0x23
 8003342:	241f      	movs	r4, #31
 8003344:	4094      	lsls	r4, r2
 8003346:	ea20 0004 	bic.w	r0, r0, r4
 800334a:	680c      	ldr	r4, [r1, #0]
 800334c:	4094      	lsls	r4, r2
 800334e:	4320      	orrs	r0, r4
 8003350:	6328      	str	r0, [r5, #48]	; 0x30
 8003352:	e7d1      	b.n	80032f8 <HAL_ADC_ConfigChannel+0x40>
    MODIFY_REG(hadc->Instance->SQR1                        ,
 8003354:	6805      	ldr	r5, [r0, #0]
 8003356:	6ae8      	ldr	r0, [r5, #44]	; 0x2c
 8003358:	eb02 0282 	add.w	r2, r2, r2, lsl #2
 800335c:	3a41      	subs	r2, #65	; 0x41
 800335e:	241f      	movs	r4, #31
 8003360:	4094      	lsls	r4, r2
 8003362:	ea20 0004 	bic.w	r0, r0, r4
 8003366:	680c      	ldr	r4, [r1, #0]
 8003368:	4094      	lsls	r4, r2
 800336a:	4320      	orrs	r0, r4
 800336c:	62e8      	str	r0, [r5, #44]	; 0x2c
 800336e:	e7c3      	b.n	80032f8 <HAL_ADC_ConfigChannel+0x40>
    MODIFY_REG(hadc->Instance->SMPR2                             ,
 8003370:	681c      	ldr	r4, [r3, #0]
 8003372:	6920      	ldr	r0, [r4, #16]
 8003374:	eb02 0242 	add.w	r2, r2, r2, lsl #1
 8003378:	f04f 0c07 	mov.w	ip, #7
 800337c:	fa0c fc02 	lsl.w	ip, ip, r2
 8003380:	ea20 000c 	bic.w	r0, r0, ip
 8003384:	688d      	ldr	r5, [r1, #8]
 8003386:	fa05 f202 	lsl.w	r2, r5, r2
 800338a:	4302      	orrs	r2, r0
 800338c:	6122      	str	r2, [r4, #16]
 800338e:	e7c6      	b.n	800331e <HAL_ADC_ConfigChannel+0x66>
    if (hadc->Instance == ADC1)
 8003390:	681a      	ldr	r2, [r3, #0]
 8003392:	4816      	ldr	r0, [pc, #88]	; (80033ec <HAL_ADC_ConfigChannel+0x134>)
 8003394:	4282      	cmp	r2, r0
 8003396:	d005      	beq.n	80033a4 <HAL_ADC_ConfigChannel+0xec>
      SET_BIT(hadc->State, HAL_ADC_STATE_ERROR_CONFIG);
 8003398:	6a9a      	ldr	r2, [r3, #40]	; 0x28
 800339a:	f042 0220 	orr.w	r2, r2, #32
 800339e:	629a      	str	r2, [r3, #40]	; 0x28
      tmp_hal_status = HAL_ERROR;
 80033a0:	2001      	movs	r0, #1
 80033a2:	e7c1      	b.n	8003328 <HAL_ADC_ConfigChannel+0x70>
      if (READ_BIT(hadc->Instance->CR2, ADC_CR2_TSVREFE) == RESET)
 80033a4:	6890      	ldr	r0, [r2, #8]
 80033a6:	f410 0f00 	tst.w	r0, #8388608	; 0x800000
 80033aa:	d11b      	bne.n	80033e4 <HAL_ADC_ConfigChannel+0x12c>
        SET_BIT(hadc->Instance->CR2, ADC_CR2_TSVREFE);
 80033ac:	6890      	ldr	r0, [r2, #8]
 80033ae:	f440 0000 	orr.w	r0, r0, #8388608	; 0x800000
 80033b2:	6090      	str	r0, [r2, #8]
        if ((sConfig->Channel == ADC_CHANNEL_TEMPSENSOR))
 80033b4:	680a      	ldr	r2, [r1, #0]
 80033b6:	2a10      	cmp	r2, #16
 80033b8:	d001      	beq.n	80033be <HAL_ADC_ConfigChannel+0x106>
  HAL_StatusTypeDef tmp_hal_status = HAL_OK;
 80033ba:	2000      	movs	r0, #0
 80033bc:	e7b4      	b.n	8003328 <HAL_ADC_ConfigChannel+0x70>
          wait_loop_index = (ADC_TEMPSENSOR_DELAY_US * (SystemCoreClock / 1000000U));
 80033be:	4a0c      	ldr	r2, [pc, #48]	; (80033f0 <HAL_ADC_ConfigChannel+0x138>)
 80033c0:	6812      	ldr	r2, [r2, #0]
 80033c2:	490c      	ldr	r1, [pc, #48]	; (80033f4 <HAL_ADC_ConfigChannel+0x13c>)
 80033c4:	fba1 1202 	umull	r1, r2, r1, r2
 80033c8:	0c92      	lsrs	r2, r2, #18
 80033ca:	eb02 0282 	add.w	r2, r2, r2, lsl #2
 80033ce:	0052      	lsls	r2, r2, #1
 80033d0:	9201      	str	r2, [sp, #4]
          while(wait_loop_index != 0U)
 80033d2:	e002      	b.n	80033da <HAL_ADC_ConfigChannel+0x122>
            wait_loop_index--;
 80033d4:	9a01      	ldr	r2, [sp, #4]
 80033d6:	3a01      	subs	r2, #1
 80033d8:	9201      	str	r2, [sp, #4]
          while(wait_loop_index != 0U)
 80033da:	9a01      	ldr	r2, [sp, #4]
 80033dc:	2a00      	cmp	r2, #0
 80033de:	d1f9      	bne.n	80033d4 <HAL_ADC_ConfigChannel+0x11c>
  HAL_StatusTypeDef tmp_hal_status = HAL_OK;
 80033e0:	2000      	movs	r0, #0
 80033e2:	e7a1      	b.n	8003328 <HAL_ADC_ConfigChannel+0x70>
 80033e4:	2000      	movs	r0, #0
 80033e6:	e79f      	b.n	8003328 <HAL_ADC_ConfigChannel+0x70>
  __HAL_LOCK(hadc);
 80033e8:	2002      	movs	r0, #2
 80033ea:	e7a0      	b.n	800332e <HAL_ADC_ConfigChannel+0x76>
 80033ec:	40012400 	.word	0x40012400
 80033f0:	20000010 	.word	0x20000010
 80033f4:	431bde83 	.word	0x431bde83

080033f8 <ADC_Enable>:
{
 80033f8:	b530      	push	{r4, r5, lr}
 80033fa:	b083      	sub	sp, #12
  __IO uint32_t wait_loop_index = 0U;
 80033fc:	2300      	movs	r3, #0
 80033fe:	9301      	str	r3, [sp, #4]
  if (ADC_IS_ENABLE(hadc) == RESET)
 8003400:	6803      	ldr	r3, [r0, #0]
 8003402:	689a      	ldr	r2, [r3, #8]
 8003404:	f012 0f01 	tst.w	r2, #1
 8003408:	d12e      	bne.n	8003468 <ADC_Enable+0x70>
 800340a:	4604      	mov	r4, r0
    __HAL_ADC_ENABLE(hadc);
 800340c:	689a      	ldr	r2, [r3, #8]
 800340e:	f042 0201 	orr.w	r2, r2, #1
 8003412:	609a      	str	r2, [r3, #8]
    wait_loop_index = (ADC_STAB_DELAY_US * (SystemCoreClock / 1000000U));
 8003414:	4b16      	ldr	r3, [pc, #88]	; (8003470 <ADC_Enable+0x78>)
 8003416:	681b      	ldr	r3, [r3, #0]
 8003418:	4a16      	ldr	r2, [pc, #88]	; (8003474 <ADC_Enable+0x7c>)
 800341a:	fba2 2303 	umull	r2, r3, r2, r3
 800341e:	0c9b      	lsrs	r3, r3, #18
 8003420:	9301      	str	r3, [sp, #4]
    while(wait_loop_index != 0U)
 8003422:	e002      	b.n	800342a <ADC_Enable+0x32>
      wait_loop_index--;
 8003424:	9b01      	ldr	r3, [sp, #4]
 8003426:	3b01      	subs	r3, #1
 8003428:	9301      	str	r3, [sp, #4]
    while(wait_loop_index != 0U)
 800342a:	9b01      	ldr	r3, [sp, #4]
 800342c:	2b00      	cmp	r3, #0
 800342e:	d1f9      	bne.n	8003424 <ADC_Enable+0x2c>
    tickstart = HAL_GetTick();
 8003430:	f7ff fee8 	bl	8003204 <HAL_GetTick>
 8003434:	4605      	mov	r5, r0
    while(ADC_IS_ENABLE(hadc) == RESET)
 8003436:	6823      	ldr	r3, [r4, #0]
 8003438:	689b      	ldr	r3, [r3, #8]
 800343a:	f013 0f01 	tst.w	r3, #1
 800343e:	d111      	bne.n	8003464 <ADC_Enable+0x6c>
      if((HAL_GetTick() - tickstart) > ADC_ENABLE_TIMEOUT)
 8003440:	f7ff fee0 	bl	8003204 <HAL_GetTick>
 8003444:	1b43      	subs	r3, r0, r5
 8003446:	2b02      	cmp	r3, #2
 8003448:	d9f5      	bls.n	8003436 <ADC_Enable+0x3e>
        SET_BIT(hadc->State, HAL_ADC_STATE_ERROR_INTERNAL);
 800344a:	6aa3      	ldr	r3, [r4, #40]	; 0x28
 800344c:	f043 0310 	orr.w	r3, r3, #16
 8003450:	62a3      	str	r3, [r4, #40]	; 0x28
        SET_BIT(hadc->ErrorCode, HAL_ADC_ERROR_INTERNAL);
 8003452:	6ae3      	ldr	r3, [r4, #44]	; 0x2c
 8003454:	f043 0301 	orr.w	r3, r3, #1
 8003458:	62e3      	str	r3, [r4, #44]	; 0x2c
        __HAL_UNLOCK(hadc);
 800345a:	2300      	movs	r3, #0
 800345c:	f884 3024 	strb.w	r3, [r4, #36]	; 0x24
        return HAL_ERROR;
 8003460:	2001      	movs	r0, #1
 8003462:	e002      	b.n	800346a <ADC_Enable+0x72>
  return HAL_OK;
 8003464:	2000      	movs	r0, #0
 8003466:	e000      	b.n	800346a <ADC_Enable+0x72>
 8003468:	2000      	movs	r0, #0
}
 800346a:	b003      	add	sp, #12
 800346c:	bd30      	pop	{r4, r5, pc}
 800346e:	bf00      	nop
 8003470:	20000010 	.word	0x20000010
 8003474:	431bde83 	.word	0x431bde83

08003478 <HAL_ADC_Start_DMA>:
{
 8003478:	b5f8      	push	{r3, r4, r5, r6, r7, lr}
 800347a:	4604      	mov	r4, r0
 800347c:	460d      	mov	r5, r1
 800347e:	4616      	mov	r6, r2
  if(ADC_MULTIMODE_IS_ENABLE(hadc) == RESET)
 8003480:	6801      	ldr	r1, [r0, #0]
 8003482:	4844      	ldr	r0, [pc, #272]	; (8003594 <HAL_ADC_Start_DMA+0x11c>)
 8003484:	4281      	cmp	r1, r0
 8003486:	d059      	beq.n	800353c <HAL_ADC_Start_DMA+0xc4>
 8003488:	4b43      	ldr	r3, [pc, #268]	; (8003598 <HAL_ADC_Start_DMA+0x120>)
 800348a:	4299      	cmp	r1, r3
 800348c:	d056      	beq.n	800353c <HAL_ADC_Start_DMA+0xc4>
    __HAL_LOCK(hadc);
 800348e:	f894 3024 	ldrb.w	r3, [r4, #36]	; 0x24
 8003492:	2b01      	cmp	r3, #1
 8003494:	d07c      	beq.n	8003590 <HAL_ADC_Start_DMA+0x118>
 8003496:	2301      	movs	r3, #1
 8003498:	f884 3024 	strb.w	r3, [r4, #36]	; 0x24
    tmp_hal_status = ADC_Enable(hadc);
 800349c:	4620      	mov	r0, r4
 800349e:	f7ff ffab 	bl	80033f8 <ADC_Enable>
    if (tmp_hal_status == HAL_OK)
 80034a2:	4607      	mov	r7, r0
 80034a4:	2800      	cmp	r0, #0
 80034a6:	d16e      	bne.n	8003586 <HAL_ADC_Start_DMA+0x10e>
      ADC_STATE_CLR_SET(hadc->State,
 80034a8:	6aa1      	ldr	r1, [r4, #40]	; 0x28
 80034aa:	f421 6170 	bic.w	r1, r1, #3840	; 0xf00
 80034ae:	f021 0101 	bic.w	r1, r1, #1
 80034b2:	f441 7180 	orr.w	r1, r1, #256	; 0x100
 80034b6:	62a1      	str	r1, [r4, #40]	; 0x28
    if (ADC_NONMULTIMODE_OR_MULTIMODEMASTER(hadc))
 80034b8:	6822      	ldr	r2, [r4, #0]
 80034ba:	4b37      	ldr	r3, [pc, #220]	; (8003598 <HAL_ADC_Start_DMA+0x120>)
 80034bc:	429a      	cmp	r2, r3
 80034be:	d044      	beq.n	800354a <HAL_ADC_Start_DMA+0xd2>
      CLEAR_BIT(hadc->State, HAL_ADC_STATE_MULTIMODE_SLAVE);
 80034c0:	6aa3      	ldr	r3, [r4, #40]	; 0x28
 80034c2:	f423 1380 	bic.w	r3, r3, #1048576	; 0x100000
 80034c6:	62a3      	str	r3, [r4, #40]	; 0x28
      if (READ_BIT(hadc->Instance->CR1, ADC_CR1_JAUTO) != RESET)
 80034c8:	6853      	ldr	r3, [r2, #4]
 80034ca:	f413 6f80 	tst.w	r3, #1024	; 0x400
 80034ce:	d005      	beq.n	80034dc <HAL_ADC_Start_DMA+0x64>
        ADC_STATE_CLR_SET(hadc->State, HAL_ADC_STATE_INJ_EOC, HAL_ADC_STATE_INJ_BUSY);  
 80034d0:	6aa3      	ldr	r3, [r4, #40]	; 0x28
 80034d2:	f423 5340 	bic.w	r3, r3, #12288	; 0x3000
 80034d6:	f443 5380 	orr.w	r3, r3, #4096	; 0x1000
 80034da:	62a3      	str	r3, [r4, #40]	; 0x28
      if (HAL_IS_BIT_SET(hadc->State, HAL_ADC_STATE_INJ_BUSY))
 80034dc:	6aa3      	ldr	r3, [r4, #40]	; 0x28
 80034de:	f413 5f80 	tst.w	r3, #4096	; 0x1000
 80034e2:	d048      	beq.n	8003576 <HAL_ADC_Start_DMA+0xfe>
        CLEAR_BIT(hadc->ErrorCode, (HAL_ADC_ERROR_OVR | HAL_ADC_ERROR_DMA));         
 80034e4:	6ae3      	ldr	r3, [r4, #44]	; 0x2c
 80034e6:	f023 0306 	bic.w	r3, r3, #6
 80034ea:	62e3      	str	r3, [r4, #44]	; 0x2c
      __HAL_UNLOCK(hadc);
 80034ec:	2300      	movs	r3, #0
 80034ee:	f884 3024 	strb.w	r3, [r4, #36]	; 0x24
      hadc->DMA_Handle->XferCpltCallback = ADC_DMAConvCplt;
 80034f2:	6a23      	ldr	r3, [r4, #32]
 80034f4:	4a29      	ldr	r2, [pc, #164]	; (800359c <HAL_ADC_Start_DMA+0x124>)
 80034f6:	629a      	str	r2, [r3, #40]	; 0x28
      hadc->DMA_Handle->XferHalfCpltCallback = ADC_DMAHalfConvCplt;
 80034f8:	6a23      	ldr	r3, [r4, #32]
 80034fa:	4a29      	ldr	r2, [pc, #164]	; (80035a0 <HAL_ADC_Start_DMA+0x128>)
 80034fc:	62da      	str	r2, [r3, #44]	; 0x2c
      hadc->DMA_Handle->XferErrorCallback = ADC_DMAError;
 80034fe:	6a23      	ldr	r3, [r4, #32]
 8003500:	4a28      	ldr	r2, [pc, #160]	; (80035a4 <HAL_ADC_Start_DMA+0x12c>)
 8003502:	631a      	str	r2, [r3, #48]	; 0x30
      __HAL_ADC_CLEAR_FLAG(hadc, ADC_FLAG_EOC);
 8003504:	6823      	ldr	r3, [r4, #0]
 8003506:	f06f 0202 	mvn.w	r2, #2
 800350a:	601a      	str	r2, [r3, #0]
      SET_BIT(hadc->Instance->CR2, ADC_CR2_DMA);
 800350c:	6822      	ldr	r2, [r4, #0]
 800350e:	6893      	ldr	r3, [r2, #8]
 8003510:	f443 7380 	orr.w	r3, r3, #256	; 0x100
 8003514:	6093      	str	r3, [r2, #8]
      HAL_DMA_Start_IT(hadc->DMA_Handle, (uint32_t)&hadc->Instance->DR, (uint32_t)pData, Length);
 8003516:	6821      	ldr	r1, [r4, #0]
 8003518:	4633      	mov	r3, r6
 800351a:	462a      	mov	r2, r5
 800351c:	314c      	adds	r1, #76	; 0x4c
 800351e:	6a20      	ldr	r0, [r4, #32]
 8003520:	f000 f9a8 	bl	8003874 <HAL_DMA_Start_IT>
      if (ADC_IS_SOFTWARE_START_REGULAR(hadc))
 8003524:	6823      	ldr	r3, [r4, #0]
 8003526:	689a      	ldr	r2, [r3, #8]
 8003528:	f402 2260 	and.w	r2, r2, #917504	; 0xe0000
 800352c:	f5b2 2f60 	cmp.w	r2, #917504	; 0xe0000
 8003530:	d024      	beq.n	800357c <HAL_ADC_Start_DMA+0x104>
        SET_BIT(hadc->Instance->CR2, ADC_CR2_EXTTRIG);
 8003532:	689a      	ldr	r2, [r3, #8]
 8003534:	f442 1280 	orr.w	r2, r2, #1048576	; 0x100000
 8003538:	609a      	str	r2, [r3, #8]
 800353a:	e027      	b.n	800358c <HAL_ADC_Start_DMA+0x114>
  if(ADC_MULTIMODE_IS_ENABLE(hadc) == RESET)
 800353c:	4b15      	ldr	r3, [pc, #84]	; (8003594 <HAL_ADC_Start_DMA+0x11c>)
 800353e:	685b      	ldr	r3, [r3, #4]
 8003540:	f413 2f70 	tst.w	r3, #983040	; 0xf0000
 8003544:	d0a3      	beq.n	800348e <HAL_ADC_Start_DMA+0x16>
    tmp_hal_status = HAL_ERROR;
 8003546:	2701      	movs	r7, #1
 8003548:	e020      	b.n	800358c <HAL_ADC_Start_DMA+0x114>
    if (ADC_NONMULTIMODE_OR_MULTIMODEMASTER(hadc))
 800354a:	f5a3 6380 	sub.w	r3, r3, #1024	; 0x400
 800354e:	685b      	ldr	r3, [r3, #4]
 8003550:	f413 2f70 	tst.w	r3, #983040	; 0xf0000
 8003554:	d0b4      	beq.n	80034c0 <HAL_ADC_Start_DMA+0x48>
      SET_BIT(hadc->State, HAL_ADC_STATE_MULTIMODE_SLAVE);
 8003556:	6aa3      	ldr	r3, [r4, #40]	; 0x28
 8003558:	f443 1380 	orr.w	r3, r3, #1048576	; 0x100000
 800355c:	62a3      	str	r3, [r4, #40]	; 0x28
      if (ADC_MULTIMODE_AUTO_INJECTED(hadc))
 800355e:	4b0d      	ldr	r3, [pc, #52]	; (8003594 <HAL_ADC_Start_DMA+0x11c>)
 8003560:	685b      	ldr	r3, [r3, #4]
 8003562:	f413 6f80 	tst.w	r3, #1024	; 0x400
 8003566:	d0b9      	beq.n	80034dc <HAL_ADC_Start_DMA+0x64>
        ADC_STATE_CLR_SET(hadc->State, HAL_ADC_STATE_INJ_EOC, HAL_ADC_STATE_INJ_BUSY);
 8003568:	6aa3      	ldr	r3, [r4, #40]	; 0x28
 800356a:	f423 5340 	bic.w	r3, r3, #12288	; 0x3000
 800356e:	f443 5380 	orr.w	r3, r3, #4096	; 0x1000
 8003572:	62a3      	str	r3, [r4, #40]	; 0x28
 8003574:	e7b2      	b.n	80034dc <HAL_ADC_Start_DMA+0x64>
        ADC_CLEAR_ERRORCODE(hadc);
 8003576:	2300      	movs	r3, #0
 8003578:	62e3      	str	r3, [r4, #44]	; 0x2c
 800357a:	e7b7      	b.n	80034ec <HAL_ADC_Start_DMA+0x74>
        SET_BIT(hadc->Instance->CR2, (ADC_CR2_SWSTART | ADC_CR2_EXTTRIG));
 800357c:	689a      	ldr	r2, [r3, #8]
 800357e:	f442 02a0 	orr.w	r2, r2, #5242880	; 0x500000
 8003582:	609a      	str	r2, [r3, #8]
 8003584:	e002      	b.n	800358c <HAL_ADC_Start_DMA+0x114>
      __HAL_UNLOCK(hadc);
 8003586:	2300      	movs	r3, #0
 8003588:	f884 3024 	strb.w	r3, [r4, #36]	; 0x24
}
 800358c:	4638      	mov	r0, r7
 800358e:	bdf8      	pop	{r3, r4, r5, r6, r7, pc}
    __HAL_LOCK(hadc);
 8003590:	2702      	movs	r7, #2
 8003592:	e7fb      	b.n	800358c <HAL_ADC_Start_DMA+0x114>
 8003594:	40012400 	.word	0x40012400
 8003598:	40012800 	.word	0x40012800
 800359c:	0800323d 	.word	0x0800323d
 80035a0:	08003291 	.word	0x08003291
 80035a4:	0800329d 	.word	0x0800329d

080035a8 <ADC_ConversionStop_Disable>:
{
 80035a8:	b538      	push	{r3, r4, r5, lr}
  if (ADC_IS_ENABLE(hadc) != RESET)
 80035aa:	6803      	ldr	r3, [r0, #0]
 80035ac:	689a      	ldr	r2, [r3, #8]
 80035ae:	f012 0f01 	tst.w	r2, #1
 80035b2:	d101      	bne.n	80035b8 <ADC_ConversionStop_Disable+0x10>
  return HAL_OK;
 80035b4:	2000      	movs	r0, #0
}
 80035b6:	bd38      	pop	{r3, r4, r5, pc}
 80035b8:	4604      	mov	r4, r0
    __HAL_ADC_DISABLE(hadc);
 80035ba:	689a      	ldr	r2, [r3, #8]
 80035bc:	f022 0201 	bic.w	r2, r2, #1
 80035c0:	609a      	str	r2, [r3, #8]
    tickstart = HAL_GetTick();
 80035c2:	f7ff fe1f 	bl	8003204 <HAL_GetTick>
 80035c6:	4605      	mov	r5, r0
    while(ADC_IS_ENABLE(hadc) != RESET)
 80035c8:	6823      	ldr	r3, [r4, #0]
 80035ca:	689b      	ldr	r3, [r3, #8]
 80035cc:	f013 0f01 	tst.w	r3, #1
 80035d0:	d00e      	beq.n	80035f0 <ADC_ConversionStop_Disable+0x48>
      if((HAL_GetTick() - tickstart) > ADC_DISABLE_TIMEOUT)
 80035d2:	f7ff fe17 	bl	8003204 <HAL_GetTick>
 80035d6:	1b43      	subs	r3, r0, r5
 80035d8:	2b02      	cmp	r3, #2
 80035da:	d9f5      	bls.n	80035c8 <ADC_ConversionStop_Disable+0x20>
        SET_BIT(hadc->State, HAL_ADC_STATE_ERROR_INTERNAL);
 80035dc:	6aa3      	ldr	r3, [r4, #40]	; 0x28
 80035de:	f043 0310 	orr.w	r3, r3, #16
 80035e2:	62a3      	str	r3, [r4, #40]	; 0x28
        SET_BIT(hadc->ErrorCode, HAL_ADC_ERROR_INTERNAL);
 80035e4:	6ae3      	ldr	r3, [r4, #44]	; 0x2c
 80035e6:	f043 0301 	orr.w	r3, r3, #1
 80035ea:	62e3      	str	r3, [r4, #44]	; 0x2c
        return HAL_ERROR;
 80035ec:	2001      	movs	r0, #1
 80035ee:	e7e2      	b.n	80035b6 <ADC_ConversionStop_Disable+0xe>
  return HAL_OK;
 80035f0:	2000      	movs	r0, #0
 80035f2:	e7e0      	b.n	80035b6 <ADC_ConversionStop_Disable+0xe>

080035f4 <HAL_ADC_Init>:
  if(hadc == NULL)
 80035f4:	2800      	cmp	r0, #0
 80035f6:	d07b      	beq.n	80036f0 <HAL_ADC_Init+0xfc>
{
 80035f8:	b570      	push	{r4, r5, r6, lr}
 80035fa:	4604      	mov	r4, r0
  if (hadc->State == HAL_ADC_STATE_RESET)
 80035fc:	6a83      	ldr	r3, [r0, #40]	; 0x28
 80035fe:	2b00      	cmp	r3, #0
 8003600:	d04d      	beq.n	800369e <HAL_ADC_Init+0xaa>
  tmp_hal_status = ADC_ConversionStop_Disable(hadc);
 8003602:	4620      	mov	r0, r4
 8003604:	f7ff ffd0 	bl	80035a8 <ADC_ConversionStop_Disable>
  if (HAL_IS_BIT_CLR(hadc->State, HAL_ADC_STATE_ERROR_INTERNAL) &&
 8003608:	6aa3      	ldr	r3, [r4, #40]	; 0x28
 800360a:	f013 0310 	ands.w	r3, r3, #16
 800360e:	d169      	bne.n	80036e4 <HAL_ADC_Init+0xf0>
 8003610:	2800      	cmp	r0, #0
 8003612:	d167      	bne.n	80036e4 <HAL_ADC_Init+0xf0>
    ADC_STATE_CLR_SET(hadc->State,
 8003614:	6aa2      	ldr	r2, [r4, #40]	; 0x28
 8003616:	f422 5288 	bic.w	r2, r2, #4352	; 0x1100
 800361a:	f022 0202 	bic.w	r2, r2, #2
 800361e:	f042 0202 	orr.w	r2, r2, #2
 8003622:	62a2      	str	r2, [r4, #40]	; 0x28
    tmp_cr2 |= (hadc->Init.DataAlign                               |
 8003624:	6862      	ldr	r2, [r4, #4]
                ADC_CFGR_EXTSEL(hadc, hadc->Init.ExternalTrigConv) |
 8003626:	69e1      	ldr	r1, [r4, #28]
    tmp_cr2 |= (hadc->Init.DataAlign                               |
 8003628:	430a      	orrs	r2, r1
                ADC_CR2_CONTINUOUS(hadc->Init.ContinuousConvMode)   );
 800362a:	68e1      	ldr	r1, [r4, #12]
                ADC_CFGR_EXTSEL(hadc, hadc->Init.ExternalTrigConv) |
 800362c:	ea42 0241 	orr.w	r2, r2, r1, lsl #1
    tmp_cr1 |= (ADC_CR1_SCAN_SET(hadc->Init.ScanConvMode));
 8003630:	68a5      	ldr	r5, [r4, #8]
 8003632:	f5b5 7f80 	cmp.w	r5, #256	; 0x100
 8003636:	d002      	beq.n	800363e <HAL_ADC_Init+0x4a>
 8003638:	2d01      	cmp	r5, #1
 800363a:	d036      	beq.n	80036aa <HAL_ADC_Init+0xb6>
 800363c:	461d      	mov	r5, r3
    if (hadc->Init.DiscontinuousConvMode == ENABLE)
 800363e:	6966      	ldr	r6, [r4, #20]
 8003640:	2e01      	cmp	r6, #1
 8003642:	d035      	beq.n	80036b0 <HAL_ADC_Init+0xbc>
      MODIFY_REG(hadc->Instance->CR1,
 8003644:	6826      	ldr	r6, [r4, #0]
 8003646:	6871      	ldr	r1, [r6, #4]
 8003648:	f421 4169 	bic.w	r1, r1, #59648	; 0xe900
 800364c:	4329      	orrs	r1, r5
 800364e:	6071      	str	r1, [r6, #4]
      MODIFY_REG(hadc->Instance->CR2,
 8003650:	6825      	ldr	r5, [r4, #0]
 8003652:	68ae      	ldr	r6, [r5, #8]
 8003654:	4927      	ldr	r1, [pc, #156]	; (80036f4 <HAL_ADC_Init+0x100>)
 8003656:	4031      	ands	r1, r6
 8003658:	4311      	orrs	r1, r2
 800365a:	60a9      	str	r1, [r5, #8]
    if (ADC_CR1_SCAN_SET(hadc->Init.ScanConvMode) == ADC_SCAN_ENABLE)
 800365c:	68a1      	ldr	r1, [r4, #8]
 800365e:	f5b1 7f80 	cmp.w	r1, #256	; 0x100
 8003662:	d001      	beq.n	8003668 <HAL_ADC_Init+0x74>
 8003664:	2901      	cmp	r1, #1
 8003666:	d102      	bne.n	800366e <HAL_ADC_Init+0x7a>
      tmp_sqr1 = ADC_SQR1_L_SHIFT(hadc->Init.NbrOfConversion);
 8003668:	6923      	ldr	r3, [r4, #16]
 800366a:	3b01      	subs	r3, #1
 800366c:	051b      	lsls	r3, r3, #20
    MODIFY_REG(hadc->Instance->SQR1,
 800366e:	6825      	ldr	r5, [r4, #0]
 8003670:	6ae9      	ldr	r1, [r5, #44]	; 0x2c
 8003672:	f421 0170 	bic.w	r1, r1, #15728640	; 0xf00000
 8003676:	430b      	orrs	r3, r1
 8003678:	62eb      	str	r3, [r5, #44]	; 0x2c
    if (READ_BIT(hadc->Instance->CR2, ~(ADC_CR2_ADON | ADC_CR2_DMA |
 800367a:	6823      	ldr	r3, [r4, #0]
 800367c:	6899      	ldr	r1, [r3, #8]
 800367e:	4b1e      	ldr	r3, [pc, #120]	; (80036f8 <HAL_ADC_Init+0x104>)
 8003680:	400b      	ands	r3, r1
 8003682:	429a      	cmp	r2, r3
 8003684:	d025      	beq.n	80036d2 <HAL_ADC_Init+0xde>
      ADC_STATE_CLR_SET(hadc->State,
 8003686:	6aa3      	ldr	r3, [r4, #40]	; 0x28
 8003688:	f023 0312 	bic.w	r3, r3, #18
 800368c:	f043 0310 	orr.w	r3, r3, #16
 8003690:	62a3      	str	r3, [r4, #40]	; 0x28
      SET_BIT(hadc->ErrorCode, HAL_ADC_ERROR_INTERNAL);
 8003692:	6ae3      	ldr	r3, [r4, #44]	; 0x2c
 8003694:	f043 0301 	orr.w	r3, r3, #1
 8003698:	62e3      	str	r3, [r4, #44]	; 0x2c
      tmp_hal_status = HAL_ERROR;
 800369a:	2001      	movs	r0, #1
 800369c:	e027      	b.n	80036ee <HAL_ADC_Init+0xfa>
    ADC_CLEAR_ERRORCODE(hadc);
 800369e:	62c3      	str	r3, [r0, #44]	; 0x2c
    hadc->Lock = HAL_UNLOCKED;
 80036a0:	f880 3024 	strb.w	r3, [r0, #36]	; 0x24
    HAL_ADC_MspInit(hadc);
 80036a4:	f7ff fdc8 	bl	8003238 <HAL_ADC_MspInit>
 80036a8:	e7ab      	b.n	8003602 <HAL_ADC_Init+0xe>
    tmp_cr1 |= (ADC_CR1_SCAN_SET(hadc->Init.ScanConvMode));
 80036aa:	f44f 7580 	mov.w	r5, #256	; 0x100
 80036ae:	e7c6      	b.n	800363e <HAL_ADC_Init+0x4a>
      if (hadc->Init.ContinuousConvMode == DISABLE)
 80036b0:	b931      	cbnz	r1, 80036c0 <HAL_ADC_Init+0xcc>
        SET_BIT(tmp_cr1, ADC_CR1_DISCEN                                            |
 80036b2:	69a1      	ldr	r1, [r4, #24]
 80036b4:	3901      	subs	r1, #1
 80036b6:	ea45 3141 	orr.w	r1, r5, r1, lsl #13
 80036ba:	f441 6500 	orr.w	r5, r1, #2048	; 0x800
 80036be:	e7c1      	b.n	8003644 <HAL_ADC_Init+0x50>
        SET_BIT(hadc->State, HAL_ADC_STATE_ERROR_CONFIG);
 80036c0:	6aa1      	ldr	r1, [r4, #40]	; 0x28
 80036c2:	f041 0120 	orr.w	r1, r1, #32
 80036c6:	62a1      	str	r1, [r4, #40]	; 0x28
        SET_BIT(hadc->ErrorCode, HAL_ADC_ERROR_INTERNAL);
 80036c8:	6ae1      	ldr	r1, [r4, #44]	; 0x2c
 80036ca:	f041 0101 	orr.w	r1, r1, #1
 80036ce:	62e1      	str	r1, [r4, #44]	; 0x2c
 80036d0:	e7b8      	b.n	8003644 <HAL_ADC_Init+0x50>
      ADC_CLEAR_ERRORCODE(hadc);
 80036d2:	2300      	movs	r3, #0
 80036d4:	62e3      	str	r3, [r4, #44]	; 0x2c
      ADC_STATE_CLR_SET(hadc->State,
 80036d6:	6aa3      	ldr	r3, [r4, #40]	; 0x28
 80036d8:	f023 0303 	bic.w	r3, r3, #3
 80036dc:	f043 0301 	orr.w	r3, r3, #1
 80036e0:	62a3      	str	r3, [r4, #40]	; 0x28
 80036e2:	e004      	b.n	80036ee <HAL_ADC_Init+0xfa>
    SET_BIT(hadc->State, HAL_ADC_STATE_ERROR_INTERNAL);
 80036e4:	6aa3      	ldr	r3, [r4, #40]	; 0x28
 80036e6:	f043 0310 	orr.w	r3, r3, #16
 80036ea:	62a3      	str	r3, [r4, #40]	; 0x28
    tmp_hal_status = HAL_ERROR;
 80036ec:	2001      	movs	r0, #1
}
 80036ee:	bd70      	pop	{r4, r5, r6, pc}
    return HAL_ERROR;
 80036f0:	2001      	movs	r0, #1
}
 80036f2:	4770      	bx	lr
 80036f4:	ffe1f7fd 	.word	0xffe1f7fd
 80036f8:	ff1f0efe 	.word	0xff1f0efe

080036fc <HAL_NVIC_SetPriorityGrouping>:
  reg_value  =  SCB->AIRCR;                                                   /* read old register configuration    */
 80036fc:	4a07      	ldr	r2, [pc, #28]	; (800371c <HAL_NVIC_SetPriorityGrouping+0x20>)
 80036fe:	68d3      	ldr	r3, [r2, #12]
  reg_value &= ~((uint32_t)(SCB_AIRCR_VECTKEY_Msk | SCB_AIRCR_PRIGROUP_Msk)); /* clear bits to change               */
 8003700:	f423 63e0 	bic.w	r3, r3, #1792	; 0x700
 8003704:	041b      	lsls	r3, r3, #16
 8003706:	0c1b      	lsrs	r3, r3, #16
                (PriorityGroupTmp << 8U)                      );              /* Insert write key and priorty group */
 8003708:	0200      	lsls	r0, r0, #8
 800370a:	f400 60e0 	and.w	r0, r0, #1792	; 0x700
                ((uint32_t)0x5FAUL << SCB_AIRCR_VECTKEY_Pos) |
 800370e:	4303      	orrs	r3, r0
  reg_value  =  (reg_value                                   |
 8003710:	f043 63bf 	orr.w	r3, r3, #100139008	; 0x5f80000
 8003714:	f443 3300 	orr.w	r3, r3, #131072	; 0x20000
  SCB->AIRCR =  reg_value;
 8003718:	60d3      	str	r3, [r2, #12]
  /* Check the parameters */
  assert_param(IS_NVIC_PRIORITY_GROUP(PriorityGroup));
  
  /* Set the PRIGROUP[10:8] bits according to the PriorityGroup parameter value */
  NVIC_SetPriorityGrouping(PriorityGroup);
}
 800371a:	4770      	bx	lr
 800371c:	e000ed00 	.word	0xe000ed00

08003720 <HAL_NVIC_SetPriority>:
  *         This parameter can be a value between 0 and 15
  *         A lower priority value indicates a higher priority.          
  * @retval None
  */
void HAL_NVIC_SetPriority(IRQn_Type IRQn, uint32_t PreemptPriority, uint32_t SubPriority)
{ 
 8003720:	b500      	push	{lr}
  return ((uint32_t)((SCB->AIRCR & SCB_AIRCR_PRIGROUP_Msk) >> SCB_AIRCR_PRIGROUP_Pos));
 8003722:	4b19      	ldr	r3, [pc, #100]	; (8003788 <HAL_NVIC_SetPriority+0x68>)
 8003724:	68db      	ldr	r3, [r3, #12]
 8003726:	f3c3 2302 	ubfx	r3, r3, #8, #3
  PreemptPriorityBits = ((7UL - PriorityGroupTmp) > (uint32_t)(__NVIC_PRIO_BITS)) ? (uint32_t)(__NVIC_PRIO_BITS) : (uint32_t)(7UL - PriorityGroupTmp);
 800372a:	f1c3 0c07 	rsb	ip, r3, #7
 800372e:	f1bc 0f04 	cmp.w	ip, #4
 8003732:	bf28      	it	cs
 8003734:	f04f 0c04 	movcs.w	ip, #4
  SubPriorityBits     = ((PriorityGroupTmp + (uint32_t)(__NVIC_PRIO_BITS)) < (uint32_t)7UL) ? (uint32_t)0UL : (uint32_t)((PriorityGroupTmp - 7UL) + (uint32_t)(__NVIC_PRIO_BITS));
 8003738:	f103 0e04 	add.w	lr, r3, #4
 800373c:	f1be 0f06 	cmp.w	lr, #6
 8003740:	d918      	bls.n	8003774 <HAL_NVIC_SetPriority+0x54>
 8003742:	3b03      	subs	r3, #3
           ((PreemptPriority & (uint32_t)((1UL << (PreemptPriorityBits)) - 1UL)) << SubPriorityBits) |
 8003744:	f04f 3eff 	mov.w	lr, #4294967295	; 0xffffffff
 8003748:	fa0e fc0c 	lsl.w	ip, lr, ip
 800374c:	ea21 010c 	bic.w	r1, r1, ip
 8003750:	4099      	lsls	r1, r3
           ((SubPriority     & (uint32_t)((1UL << (SubPriorityBits    )) - 1UL)))
 8003752:	fa0e fe03 	lsl.w	lr, lr, r3
 8003756:	ea22 020e 	bic.w	r2, r2, lr
           ((PreemptPriority & (uint32_t)((1UL << (PreemptPriorityBits)) - 1UL)) << SubPriorityBits) |
 800375a:	430a      	orrs	r2, r1
  if ((int32_t)(IRQn) < 0)
 800375c:	2800      	cmp	r0, #0
 800375e:	db0b      	blt.n	8003778 <HAL_NVIC_SetPriority+0x58>
    NVIC->IP[((uint32_t)(int32_t)IRQn)]               = (uint8_t)((priority << (8U - __NVIC_PRIO_BITS)) & (uint32_t)0xFFUL);
 8003760:	0112      	lsls	r2, r2, #4
 8003762:	b2d2      	uxtb	r2, r2
 8003764:	f100 4060 	add.w	r0, r0, #3758096384	; 0xe0000000
 8003768:	f500 4061 	add.w	r0, r0, #57600	; 0xe100
 800376c:	f880 2300 	strb.w	r2, [r0, #768]	; 0x300
  assert_param(IS_NVIC_PREEMPTION_PRIORITY(PreemptPriority));
  
  prioritygroup = NVIC_GetPriorityGrouping();
  
  NVIC_SetPriority(IRQn, NVIC_EncodePriority(prioritygroup, PreemptPriority, SubPriority));
}
 8003770:	f85d fb04 	ldr.w	pc, [sp], #4
  SubPriorityBits     = ((PriorityGroupTmp + (uint32_t)(__NVIC_PRIO_BITS)) < (uint32_t)7UL) ? (uint32_t)0UL : (uint32_t)((PriorityGroupTmp - 7UL) + (uint32_t)(__NVIC_PRIO_BITS));
 8003774:	2300      	movs	r3, #0
 8003776:	e7e5      	b.n	8003744 <HAL_NVIC_SetPriority+0x24>
    SCB->SHP[(((uint32_t)(int32_t)IRQn) & 0xFUL)-4UL] = (uint8_t)((priority << (8U - __NVIC_PRIO_BITS)) & (uint32_t)0xFFUL);
 8003778:	f000 000f 	and.w	r0, r0, #15
 800377c:	0112      	lsls	r2, r2, #4
 800377e:	b2d2      	uxtb	r2, r2
 8003780:	4b02      	ldr	r3, [pc, #8]	; (800378c <HAL_NVIC_SetPriority+0x6c>)
 8003782:	541a      	strb	r2, [r3, r0]
 8003784:	e7f4      	b.n	8003770 <HAL_NVIC_SetPriority+0x50>
 8003786:	bf00      	nop
 8003788:	e000ed00 	.word	0xe000ed00
 800378c:	e000ed14 	.word	0xe000ed14

08003790 <HAL_NVIC_EnableIRQ>:
  NVIC->ISER[(((uint32_t)(int32_t)IRQn) >> 5UL)] = (uint32_t)(1UL << (((uint32_t)(int32_t)IRQn) & 0x1FUL));
 8003790:	f000 021f 	and.w	r2, r0, #31
 8003794:	0940      	lsrs	r0, r0, #5
 8003796:	2301      	movs	r3, #1
 8003798:	4093      	lsls	r3, r2
 800379a:	4a02      	ldr	r2, [pc, #8]	; (80037a4 <HAL_NVIC_EnableIRQ+0x14>)
 800379c:	f842 3020 	str.w	r3, [r2, r0, lsl #2]
  /* Check the parameters */
  assert_param(IS_NVIC_DEVICE_IRQ(IRQn));

  /* Enable interrupt */
  NVIC_EnableIRQ(IRQn);
}
 80037a0:	4770      	bx	lr
 80037a2:	bf00      	nop
 80037a4:	e000e100 	.word	0xe000e100

080037a8 <HAL_SYSTICK_Config>:
           function <b>SysTick_Config</b> is not included. In this case, the file <b><i>device</i>.h</b>
           must contain a vendor-specific implementation of this function.
 */
__STATIC_INLINE uint32_t SysTick_Config(uint32_t ticks)
{
  if ((ticks - 1UL) > SysTick_LOAD_RELOAD_Msk)
 80037a8:	3801      	subs	r0, #1
 80037aa:	f1b0 7f80 	cmp.w	r0, #16777216	; 0x1000000
 80037ae:	d20b      	bcs.n	80037c8 <HAL_SYSTICK_Config+0x20>
  {
    return (1UL);                                                   /* Reload value impossible */
  }

  SysTick->LOAD  = (uint32_t)(ticks - 1UL);                         /* set reload register */
 80037b0:	f04f 23e0 	mov.w	r3, #3758153728	; 0xe000e000
 80037b4:	6158      	str	r0, [r3, #20]
    SCB->SHP[(((uint32_t)(int32_t)IRQn) & 0xFUL)-4UL] = (uint8_t)((priority << (8U - __NVIC_PRIO_BITS)) & (uint32_t)0xFFUL);
 80037b6:	4a05      	ldr	r2, [pc, #20]	; (80037cc <HAL_SYSTICK_Config+0x24>)
 80037b8:	21f0      	movs	r1, #240	; 0xf0
 80037ba:	f882 1023 	strb.w	r1, [r2, #35]	; 0x23
  NVIC_SetPriority (SysTick_IRQn, (1UL << __NVIC_PRIO_BITS) - 1UL); /* set Priority for Systick Interrupt */
  SysTick->VAL   = 0UL;                                             /* Load the SysTick Counter Value */
 80037be:	2000      	movs	r0, #0
 80037c0:	6198      	str	r0, [r3, #24]
  SysTick->CTRL  = SysTick_CTRL_CLKSOURCE_Msk |
 80037c2:	2207      	movs	r2, #7
 80037c4:	611a      	str	r2, [r3, #16]
                   SysTick_CTRL_TICKINT_Msk   |
                   SysTick_CTRL_ENABLE_Msk;                         /* Enable SysTick IRQ and SysTick Timer */
  return (0UL);                                                     /* Function successful */
 80037c6:	4770      	bx	lr
    return (1UL);                                                   /* Reload value impossible */
 80037c8:	2001      	movs	r0, #1
  *                  - 1  Function failed.
  */
uint32_t HAL_SYSTICK_Config(uint32_t TicksNumb)
{
   return SysTick_Config(TicksNumb);
}
 80037ca:	4770      	bx	lr
 80037cc:	e000ed00 	.word	0xe000ed00

080037d0 <HAL_SYSTICK_Callback>:
__weak void HAL_SYSTICK_Callback(void)
{
  /* NOTE : This function Should not be modified, when the callback is needed,
            the HAL_SYSTICK_Callback could be implemented in the user file
   */
}
 80037d0:	4770      	bx	lr

080037d2 <HAL_SYSTICK_IRQHandler>:
{
 80037d2:	b508      	push	{r3, lr}
  HAL_SYSTICK_Callback();
 80037d4:	f7ff fffc 	bl	80037d0 <HAL_SYSTICK_Callback>
}
 80037d8:	bd08      	pop	{r3, pc}

080037da <DMA_SetConfig>:
  * @param  DstAddress: The destination memory Buffer address
  * @param  DataLength: The length of data to be transferred from source to destination
  * @retval HAL status
  */
static void DMA_SetConfig(DMA_HandleTypeDef *hdma, uint32_t SrcAddress, uint32_t DstAddress, uint32_t DataLength)
{
 80037da:	b430      	push	{r4, r5}
  /* Clear all flags */
  hdma->DmaBaseAddress->IFCR = (DMA_ISR_GIF1 << hdma->ChannelIndex);
 80037dc:	2401      	movs	r4, #1
 80037de:	6c05      	ldr	r5, [r0, #64]	; 0x40
 80037e0:	40ac      	lsls	r4, r5
 80037e2:	6bc5      	ldr	r5, [r0, #60]	; 0x3c
 80037e4:	606c      	str	r4, [r5, #4]

  /* Configure DMA Channel data length */
  hdma->Instance->CNDTR = DataLength;
 80037e6:	6804      	ldr	r4, [r0, #0]
 80037e8:	6063      	str	r3, [r4, #4]

  /* Memory to Peripheral */
  if((hdma->Init.Direction) == DMA_MEMORY_TO_PERIPH)
 80037ea:	6843      	ldr	r3, [r0, #4]
 80037ec:	2b10      	cmp	r3, #16
 80037ee:	d005      	beq.n	80037fc <DMA_SetConfig+0x22>
  }
  /* Peripheral to Memory */
  else
  {
    /* Configure DMA Channel source address */
    hdma->Instance->CPAR = SrcAddress;
 80037f0:	6803      	ldr	r3, [r0, #0]
 80037f2:	6099      	str	r1, [r3, #8]

    /* Configure DMA Channel destination address */
    hdma->Instance->CMAR = DstAddress;
 80037f4:	6803      	ldr	r3, [r0, #0]
 80037f6:	60da      	str	r2, [r3, #12]
  }
}
 80037f8:	bc30      	pop	{r4, r5}
 80037fa:	4770      	bx	lr
    hdma->Instance->CPAR = DstAddress;
 80037fc:	6803      	ldr	r3, [r0, #0]
 80037fe:	609a      	str	r2, [r3, #8]
    hdma->Instance->CMAR = SrcAddress;
 8003800:	6803      	ldr	r3, [r0, #0]
 8003802:	60d9      	str	r1, [r3, #12]
 8003804:	e7f8      	b.n	80037f8 <DMA_SetConfig+0x1e>
	...

08003808 <HAL_DMA_Init>:
  if(hdma == NULL)
 8003808:	b360      	cbz	r0, 8003864 <HAL_DMA_Init+0x5c>
{
 800380a:	b410      	push	{r4}
 800380c:	4602      	mov	r2, r0
  hdma->ChannelIndex = (((uint32_t)hdma->Instance - (uint32_t)DMA1_Channel1) / ((uint32_t)DMA1_Channel2 - (uint32_t)DMA1_Channel1)) << 2;
 800380e:	6801      	ldr	r1, [r0, #0]
 8003810:	4b15      	ldr	r3, [pc, #84]	; (8003868 <HAL_DMA_Init+0x60>)
 8003812:	440b      	add	r3, r1
 8003814:	4815      	ldr	r0, [pc, #84]	; (800386c <HAL_DMA_Init+0x64>)
 8003816:	fba0 0303 	umull	r0, r3, r0, r3
 800381a:	091b      	lsrs	r3, r3, #4
 800381c:	009b      	lsls	r3, r3, #2
 800381e:	6413      	str	r3, [r2, #64]	; 0x40
  hdma->DmaBaseAddress = DMA1;
 8003820:	4b13      	ldr	r3, [pc, #76]	; (8003870 <HAL_DMA_Init+0x68>)
 8003822:	63d3      	str	r3, [r2, #60]	; 0x3c
  hdma->State = HAL_DMA_STATE_BUSY;
 8003824:	2302      	movs	r3, #2
 8003826:	f882 3021 	strb.w	r3, [r2, #33]	; 0x21
  tmp = hdma->Instance->CCR;
 800382a:	6808      	ldr	r0, [r1, #0]
  tmp &= ((uint32_t)~(DMA_CCR_PL    | DMA_CCR_MSIZE  | DMA_CCR_PSIZE  | \
 800382c:	f420 507f 	bic.w	r0, r0, #16320	; 0x3fc0
 8003830:	f020 0030 	bic.w	r0, r0, #48	; 0x30
  tmp |=  hdma->Init.Direction        |
 8003834:	6853      	ldr	r3, [r2, #4]
 8003836:	6894      	ldr	r4, [r2, #8]
 8003838:	4323      	orrs	r3, r4
          hdma->Init.PeriphInc           | hdma->Init.MemInc           |
 800383a:	68d4      	ldr	r4, [r2, #12]
 800383c:	4323      	orrs	r3, r4
 800383e:	6914      	ldr	r4, [r2, #16]
 8003840:	4323      	orrs	r3, r4
          hdma->Init.PeriphDataAlignment | hdma->Init.MemDataAlignment |
 8003842:	6954      	ldr	r4, [r2, #20]
 8003844:	4323      	orrs	r3, r4
 8003846:	6994      	ldr	r4, [r2, #24]
 8003848:	4323      	orrs	r3, r4
          hdma->Init.Mode                | hdma->Init.Priority;
 800384a:	69d4      	ldr	r4, [r2, #28]
 800384c:	4323      	orrs	r3, r4
  tmp |=  hdma->Init.Direction        |
 800384e:	4303      	orrs	r3, r0
  hdma->Instance->CCR = tmp;
 8003850:	600b      	str	r3, [r1, #0]
  hdma->ErrorCode = HAL_DMA_ERROR_NONE;
 8003852:	2000      	movs	r0, #0
 8003854:	6390      	str	r0, [r2, #56]	; 0x38
  hdma->State = HAL_DMA_STATE_READY;
 8003856:	2301      	movs	r3, #1
 8003858:	f882 3021 	strb.w	r3, [r2, #33]	; 0x21
  hdma->Lock = HAL_UNLOCKED;
 800385c:	f882 0020 	strb.w	r0, [r2, #32]
}
 8003860:	bc10      	pop	{r4}
 8003862:	4770      	bx	lr
    return HAL_ERROR;
 8003864:	2001      	movs	r0, #1
}
 8003866:	4770      	bx	lr
 8003868:	bffdfff8 	.word	0xbffdfff8
 800386c:	cccccccd 	.word	0xcccccccd
 8003870:	40020000 	.word	0x40020000

08003874 <HAL_DMA_Start_IT>:
{
 8003874:	b538      	push	{r3, r4, r5, lr}
 8003876:	4604      	mov	r4, r0
  __HAL_LOCK(hdma);
 8003878:	f890 0020 	ldrb.w	r0, [r0, #32]
 800387c:	2801      	cmp	r0, #1
 800387e:	d031      	beq.n	80038e4 <HAL_DMA_Start_IT+0x70>
 8003880:	2001      	movs	r0, #1
 8003882:	f884 0020 	strb.w	r0, [r4, #32]
  if(HAL_DMA_STATE_READY == hdma->State)
 8003886:	f894 0021 	ldrb.w	r0, [r4, #33]	; 0x21
 800388a:	2801      	cmp	r0, #1
 800388c:	d004      	beq.n	8003898 <HAL_DMA_Start_IT+0x24>
    __HAL_UNLOCK(hdma); 
 800388e:	2300      	movs	r3, #0
 8003890:	f884 3020 	strb.w	r3, [r4, #32]
    status = HAL_BUSY;
 8003894:	2002      	movs	r0, #2
}
 8003896:	bd38      	pop	{r3, r4, r5, pc}
    hdma->State = HAL_DMA_STATE_BUSY;
 8003898:	2002      	movs	r0, #2
 800389a:	f884 0021 	strb.w	r0, [r4, #33]	; 0x21
    hdma->ErrorCode = HAL_DMA_ERROR_NONE;
 800389e:	2000      	movs	r0, #0
 80038a0:	63a0      	str	r0, [r4, #56]	; 0x38
    __HAL_DMA_DISABLE(hdma);
 80038a2:	6825      	ldr	r5, [r4, #0]
 80038a4:	6828      	ldr	r0, [r5, #0]
 80038a6:	f020 0001 	bic.w	r0, r0, #1
 80038aa:	6028      	str	r0, [r5, #0]
    DMA_SetConfig(hdma, SrcAddress, DstAddress, DataLength);
 80038ac:	4620      	mov	r0, r4
 80038ae:	f7ff ff94 	bl	80037da <DMA_SetConfig>
    if(NULL != hdma->XferHalfCpltCallback)
 80038b2:	6ae3      	ldr	r3, [r4, #44]	; 0x2c
 80038b4:	b15b      	cbz	r3, 80038ce <HAL_DMA_Start_IT+0x5a>
      __HAL_DMA_ENABLE_IT(hdma, (DMA_IT_TC | DMA_IT_HT | DMA_IT_TE));
 80038b6:	6822      	ldr	r2, [r4, #0]
 80038b8:	6813      	ldr	r3, [r2, #0]
 80038ba:	f043 030e 	orr.w	r3, r3, #14
 80038be:	6013      	str	r3, [r2, #0]
    __HAL_DMA_ENABLE(hdma);
 80038c0:	6822      	ldr	r2, [r4, #0]
 80038c2:	6813      	ldr	r3, [r2, #0]
 80038c4:	f043 0301 	orr.w	r3, r3, #1
 80038c8:	6013      	str	r3, [r2, #0]
  HAL_StatusTypeDef status = HAL_OK;
 80038ca:	2000      	movs	r0, #0
 80038cc:	e7e3      	b.n	8003896 <HAL_DMA_Start_IT+0x22>
      __HAL_DMA_DISABLE_IT(hdma, DMA_IT_HT);
 80038ce:	6822      	ldr	r2, [r4, #0]
 80038d0:	6813      	ldr	r3, [r2, #0]
 80038d2:	f023 0304 	bic.w	r3, r3, #4
 80038d6:	6013      	str	r3, [r2, #0]
      __HAL_DMA_ENABLE_IT(hdma, (DMA_IT_TC | DMA_IT_TE));
 80038d8:	6822      	ldr	r2, [r4, #0]
 80038da:	6813      	ldr	r3, [r2, #0]
 80038dc:	f043 030a 	orr.w	r3, r3, #10
 80038e0:	6013      	str	r3, [r2, #0]
 80038e2:	e7ed      	b.n	80038c0 <HAL_DMA_Start_IT+0x4c>
  __HAL_LOCK(hdma);
 80038e4:	2002      	movs	r0, #2
 80038e6:	e7d6      	b.n	8003896 <HAL_DMA_Start_IT+0x22>

080038e8 <HAL_DMA_Abort_IT>:
{  
 80038e8:	b508      	push	{r3, lr}
  if(HAL_DMA_STATE_BUSY != hdma->State)
 80038ea:	f890 3021 	ldrb.w	r3, [r0, #33]	; 0x21
 80038ee:	2b02      	cmp	r3, #2
 80038f0:	d003      	beq.n	80038fa <HAL_DMA_Abort_IT+0x12>
    hdma->ErrorCode = HAL_DMA_ERROR_NO_XFER;
 80038f2:	2304      	movs	r3, #4
 80038f4:	6383      	str	r3, [r0, #56]	; 0x38
    status = HAL_ERROR;
 80038f6:	2001      	movs	r0, #1
}
 80038f8:	bd08      	pop	{r3, pc}
    __HAL_DMA_DISABLE_IT(hdma, (DMA_IT_TC | DMA_IT_HT | DMA_IT_TE));
 80038fa:	6802      	ldr	r2, [r0, #0]
 80038fc:	6813      	ldr	r3, [r2, #0]
 80038fe:	f023 030e 	bic.w	r3, r3, #14
 8003902:	6013      	str	r3, [r2, #0]
    __HAL_DMA_DISABLE(hdma);
 8003904:	6802      	ldr	r2, [r0, #0]
 8003906:	6813      	ldr	r3, [r2, #0]
 8003908:	f023 0301 	bic.w	r3, r3, #1
 800390c:	6013      	str	r3, [r2, #0]
    __HAL_DMA_CLEAR_FLAG(hdma, __HAL_DMA_GET_GI_FLAG_INDEX(hdma));
 800390e:	6803      	ldr	r3, [r0, #0]
 8003910:	4a19      	ldr	r2, [pc, #100]	; (8003978 <HAL_DMA_Abort_IT+0x90>)
 8003912:	4293      	cmp	r3, r2
 8003914:	d014      	beq.n	8003940 <HAL_DMA_Abort_IT+0x58>
 8003916:	3214      	adds	r2, #20
 8003918:	4293      	cmp	r3, r2
 800391a:	d01f      	beq.n	800395c <HAL_DMA_Abort_IT+0x74>
 800391c:	3214      	adds	r2, #20
 800391e:	4293      	cmp	r3, r2
 8003920:	d01e      	beq.n	8003960 <HAL_DMA_Abort_IT+0x78>
 8003922:	3214      	adds	r2, #20
 8003924:	4293      	cmp	r3, r2
 8003926:	d01e      	beq.n	8003966 <HAL_DMA_Abort_IT+0x7e>
 8003928:	3214      	adds	r2, #20
 800392a:	4293      	cmp	r3, r2
 800392c:	d01e      	beq.n	800396c <HAL_DMA_Abort_IT+0x84>
 800392e:	3214      	adds	r2, #20
 8003930:	4293      	cmp	r3, r2
 8003932:	d002      	beq.n	800393a <HAL_DMA_Abort_IT+0x52>
 8003934:	f04f 7280 	mov.w	r2, #16777216	; 0x1000000
 8003938:	e003      	b.n	8003942 <HAL_DMA_Abort_IT+0x5a>
 800393a:	f44f 1280 	mov.w	r2, #1048576	; 0x100000
 800393e:	e000      	b.n	8003942 <HAL_DMA_Abort_IT+0x5a>
 8003940:	2201      	movs	r2, #1
 8003942:	4b0e      	ldr	r3, [pc, #56]	; (800397c <HAL_DMA_Abort_IT+0x94>)
 8003944:	605a      	str	r2, [r3, #4]
    hdma->State = HAL_DMA_STATE_READY;
 8003946:	2301      	movs	r3, #1
 8003948:	f880 3021 	strb.w	r3, [r0, #33]	; 0x21
    __HAL_UNLOCK(hdma);
 800394c:	2300      	movs	r3, #0
 800394e:	f880 3020 	strb.w	r3, [r0, #32]
    if(hdma->XferAbortCallback != NULL)
 8003952:	6b43      	ldr	r3, [r0, #52]	; 0x34
 8003954:	b16b      	cbz	r3, 8003972 <HAL_DMA_Abort_IT+0x8a>
      hdma->XferAbortCallback(hdma);
 8003956:	4798      	blx	r3
  HAL_StatusTypeDef status = HAL_OK;
 8003958:	2000      	movs	r0, #0
 800395a:	e7cd      	b.n	80038f8 <HAL_DMA_Abort_IT+0x10>
    __HAL_DMA_CLEAR_FLAG(hdma, __HAL_DMA_GET_GI_FLAG_INDEX(hdma));
 800395c:	2210      	movs	r2, #16
 800395e:	e7f0      	b.n	8003942 <HAL_DMA_Abort_IT+0x5a>
 8003960:	f44f 7280 	mov.w	r2, #256	; 0x100
 8003964:	e7ed      	b.n	8003942 <HAL_DMA_Abort_IT+0x5a>
 8003966:	f44f 5280 	mov.w	r2, #4096	; 0x1000
 800396a:	e7ea      	b.n	8003942 <HAL_DMA_Abort_IT+0x5a>
 800396c:	f44f 3280 	mov.w	r2, #65536	; 0x10000
 8003970:	e7e7      	b.n	8003942 <HAL_DMA_Abort_IT+0x5a>
  HAL_StatusTypeDef status = HAL_OK;
 8003972:	2000      	movs	r0, #0
 8003974:	e7c0      	b.n	80038f8 <HAL_DMA_Abort_IT+0x10>
 8003976:	bf00      	nop
 8003978:	40020008 	.word	0x40020008
 800397c:	40020000 	.word	0x40020000

08003980 <HAL_DMA_IRQHandler>:
{
 8003980:	b538      	push	{r3, r4, r5, lr}
  uint32_t flag_it = hdma->DmaBaseAddress->ISR;
 8003982:	6bc3      	ldr	r3, [r0, #60]	; 0x3c
 8003984:	681a      	ldr	r2, [r3, #0]
  uint32_t source_it = hdma->Instance->CCR;
 8003986:	6804      	ldr	r4, [r0, #0]
 8003988:	6825      	ldr	r5, [r4, #0]
  if (((flag_it & (DMA_FLAG_HT1 << hdma->ChannelIndex)) != RESET) && ((source_it & DMA_IT_HT) != RESET))
 800398a:	6c01      	ldr	r1, [r0, #64]	; 0x40
 800398c:	2304      	movs	r3, #4
 800398e:	408b      	lsls	r3, r1
 8003990:	4213      	tst	r3, r2
 8003992:	d035      	beq.n	8003a00 <HAL_DMA_IRQHandler+0x80>
 8003994:	f015 0f04 	tst.w	r5, #4
 8003998:	d032      	beq.n	8003a00 <HAL_DMA_IRQHandler+0x80>
    if((hdma->Instance->CCR & DMA_CCR_CIRC) == 0U)
 800399a:	6823      	ldr	r3, [r4, #0]
 800399c:	f013 0f20 	tst.w	r3, #32
 80039a0:	d103      	bne.n	80039aa <HAL_DMA_IRQHandler+0x2a>
      __HAL_DMA_DISABLE_IT(hdma, DMA_IT_HT);
 80039a2:	6823      	ldr	r3, [r4, #0]
 80039a4:	f023 0304 	bic.w	r3, r3, #4
 80039a8:	6023      	str	r3, [r4, #0]
    __HAL_DMA_CLEAR_FLAG(hdma, __HAL_DMA_GET_HT_FLAG_INDEX(hdma));
 80039aa:	6803      	ldr	r3, [r0, #0]
 80039ac:	4a43      	ldr	r2, [pc, #268]	; (8003abc <HAL_DMA_IRQHandler+0x13c>)
 80039ae:	4293      	cmp	r3, r2
 80039b0:	d014      	beq.n	80039dc <HAL_DMA_IRQHandler+0x5c>
 80039b2:	3214      	adds	r2, #20
 80039b4:	4293      	cmp	r3, r2
 80039b6:	d018      	beq.n	80039ea <HAL_DMA_IRQHandler+0x6a>
 80039b8:	3214      	adds	r2, #20
 80039ba:	4293      	cmp	r3, r2
 80039bc:	d017      	beq.n	80039ee <HAL_DMA_IRQHandler+0x6e>
 80039be:	3214      	adds	r2, #20
 80039c0:	4293      	cmp	r3, r2
 80039c2:	d017      	beq.n	80039f4 <HAL_DMA_IRQHandler+0x74>
 80039c4:	3214      	adds	r2, #20
 80039c6:	4293      	cmp	r3, r2
 80039c8:	d017      	beq.n	80039fa <HAL_DMA_IRQHandler+0x7a>
 80039ca:	3214      	adds	r2, #20
 80039cc:	4293      	cmp	r3, r2
 80039ce:	d002      	beq.n	80039d6 <HAL_DMA_IRQHandler+0x56>
 80039d0:	f04f 6280 	mov.w	r2, #67108864	; 0x4000000
 80039d4:	e003      	b.n	80039de <HAL_DMA_IRQHandler+0x5e>
 80039d6:	f44f 0280 	mov.w	r2, #4194304	; 0x400000
 80039da:	e000      	b.n	80039de <HAL_DMA_IRQHandler+0x5e>
 80039dc:	2204      	movs	r2, #4
 80039de:	4b38      	ldr	r3, [pc, #224]	; (8003ac0 <HAL_DMA_IRQHandler+0x140>)
 80039e0:	605a      	str	r2, [r3, #4]
    if(hdma->XferHalfCpltCallback != NULL)
 80039e2:	6ac3      	ldr	r3, [r0, #44]	; 0x2c
 80039e4:	b103      	cbz	r3, 80039e8 <HAL_DMA_IRQHandler+0x68>
      hdma->XferHalfCpltCallback(hdma);
 80039e6:	4798      	blx	r3
}
 80039e8:	bd38      	pop	{r3, r4, r5, pc}
    __HAL_DMA_CLEAR_FLAG(hdma, __HAL_DMA_GET_HT_FLAG_INDEX(hdma));
 80039ea:	2240      	movs	r2, #64	; 0x40
 80039ec:	e7f7      	b.n	80039de <HAL_DMA_IRQHandler+0x5e>
 80039ee:	f44f 6280 	mov.w	r2, #1024	; 0x400
 80039f2:	e7f4      	b.n	80039de <HAL_DMA_IRQHandler+0x5e>
 80039f4:	f44f 4280 	mov.w	r2, #16384	; 0x4000
 80039f8:	e7f1      	b.n	80039de <HAL_DMA_IRQHandler+0x5e>
 80039fa:	f44f 2280 	mov.w	r2, #262144	; 0x40000
 80039fe:	e7ee      	b.n	80039de <HAL_DMA_IRQHandler+0x5e>
  else if (((flag_it & (DMA_FLAG_TC1 << hdma->ChannelIndex)) != RESET) && ((source_it & DMA_IT_TC) != RESET))
 8003a00:	2302      	movs	r3, #2
 8003a02:	408b      	lsls	r3, r1
 8003a04:	4213      	tst	r3, r2
 8003a06:	d03c      	beq.n	8003a82 <HAL_DMA_IRQHandler+0x102>
 8003a08:	f015 0f02 	tst.w	r5, #2
 8003a0c:	d039      	beq.n	8003a82 <HAL_DMA_IRQHandler+0x102>
    if((hdma->Instance->CCR & DMA_CCR_CIRC) == 0U)
 8003a0e:	6823      	ldr	r3, [r4, #0]
 8003a10:	f013 0f20 	tst.w	r3, #32
 8003a14:	d106      	bne.n	8003a24 <HAL_DMA_IRQHandler+0xa4>
      __HAL_DMA_DISABLE_IT(hdma, DMA_IT_TE | DMA_IT_TC);  
 8003a16:	6823      	ldr	r3, [r4, #0]
 8003a18:	f023 030a 	bic.w	r3, r3, #10
 8003a1c:	6023      	str	r3, [r4, #0]
      hdma->State = HAL_DMA_STATE_READY;
 8003a1e:	2301      	movs	r3, #1
 8003a20:	f880 3021 	strb.w	r3, [r0, #33]	; 0x21
      __HAL_DMA_CLEAR_FLAG(hdma, __HAL_DMA_GET_TC_FLAG_INDEX(hdma));
 8003a24:	6803      	ldr	r3, [r0, #0]
 8003a26:	4a25      	ldr	r2, [pc, #148]	; (8003abc <HAL_DMA_IRQHandler+0x13c>)
 8003a28:	4293      	cmp	r3, r2
 8003a2a:	d014      	beq.n	8003a56 <HAL_DMA_IRQHandler+0xd6>
 8003a2c:	3214      	adds	r2, #20
 8003a2e:	4293      	cmp	r3, r2
 8003a30:	d01c      	beq.n	8003a6c <HAL_DMA_IRQHandler+0xec>
 8003a32:	3214      	adds	r2, #20
 8003a34:	4293      	cmp	r3, r2
 8003a36:	d01b      	beq.n	8003a70 <HAL_DMA_IRQHandler+0xf0>
 8003a38:	3214      	adds	r2, #20
 8003a3a:	4293      	cmp	r3, r2
 8003a3c:	d01b      	beq.n	8003a76 <HAL_DMA_IRQHandler+0xf6>
 8003a3e:	3214      	adds	r2, #20
 8003a40:	4293      	cmp	r3, r2
 8003a42:	d01b      	beq.n	8003a7c <HAL_DMA_IRQHandler+0xfc>
 8003a44:	3214      	adds	r2, #20
 8003a46:	4293      	cmp	r3, r2
 8003a48:	d002      	beq.n	8003a50 <HAL_DMA_IRQHandler+0xd0>
 8003a4a:	f04f 7200 	mov.w	r2, #33554432	; 0x2000000
 8003a4e:	e003      	b.n	8003a58 <HAL_DMA_IRQHandler+0xd8>
 8003a50:	f44f 1200 	mov.w	r2, #2097152	; 0x200000
 8003a54:	e000      	b.n	8003a58 <HAL_DMA_IRQHandler+0xd8>
 8003a56:	2202      	movs	r2, #2
 8003a58:	4b19      	ldr	r3, [pc, #100]	; (8003ac0 <HAL_DMA_IRQHandler+0x140>)
 8003a5a:	605a      	str	r2, [r3, #4]
    __HAL_UNLOCK(hdma);
 8003a5c:	2300      	movs	r3, #0
 8003a5e:	f880 3020 	strb.w	r3, [r0, #32]
    if(hdma->XferCpltCallback != NULL)
 8003a62:	6a83      	ldr	r3, [r0, #40]	; 0x28
 8003a64:	2b00      	cmp	r3, #0
 8003a66:	d0bf      	beq.n	80039e8 <HAL_DMA_IRQHandler+0x68>
      hdma->XferCpltCallback(hdma);
 8003a68:	4798      	blx	r3
 8003a6a:	e7bd      	b.n	80039e8 <HAL_DMA_IRQHandler+0x68>
      __HAL_DMA_CLEAR_FLAG(hdma, __HAL_DMA_GET_TC_FLAG_INDEX(hdma));
 8003a6c:	2220      	movs	r2, #32
 8003a6e:	e7f3      	b.n	8003a58 <HAL_DMA_IRQHandler+0xd8>
 8003a70:	f44f 7200 	mov.w	r2, #512	; 0x200
 8003a74:	e7f0      	b.n	8003a58 <HAL_DMA_IRQHandler+0xd8>
 8003a76:	f44f 5200 	mov.w	r2, #8192	; 0x2000
 8003a7a:	e7ed      	b.n	8003a58 <HAL_DMA_IRQHandler+0xd8>
 8003a7c:	f44f 3200 	mov.w	r2, #131072	; 0x20000
 8003a80:	e7ea      	b.n	8003a58 <HAL_DMA_IRQHandler+0xd8>
  else if (( RESET != (flag_it & (DMA_FLAG_TE1 << hdma->ChannelIndex))) && (RESET != (source_it & DMA_IT_TE)))
 8003a82:	2308      	movs	r3, #8
 8003a84:	408b      	lsls	r3, r1
 8003a86:	4213      	tst	r3, r2
 8003a88:	d0ae      	beq.n	80039e8 <HAL_DMA_IRQHandler+0x68>
 8003a8a:	f015 0f08 	tst.w	r5, #8
 8003a8e:	d0ab      	beq.n	80039e8 <HAL_DMA_IRQHandler+0x68>
    __HAL_DMA_DISABLE_IT(hdma, (DMA_IT_TC | DMA_IT_HT | DMA_IT_TE));
 8003a90:	6823      	ldr	r3, [r4, #0]
 8003a92:	f023 030e 	bic.w	r3, r3, #14
 8003a96:	6023      	str	r3, [r4, #0]
    hdma->DmaBaseAddress->IFCR = (DMA_ISR_GIF1 << hdma->ChannelIndex);
 8003a98:	6c02      	ldr	r2, [r0, #64]	; 0x40
 8003a9a:	6bc1      	ldr	r1, [r0, #60]	; 0x3c
 8003a9c:	2301      	movs	r3, #1
 8003a9e:	fa03 f202 	lsl.w	r2, r3, r2
 8003aa2:	604a      	str	r2, [r1, #4]
    hdma->ErrorCode = HAL_DMA_ERROR_TE;
 8003aa4:	6383      	str	r3, [r0, #56]	; 0x38
    hdma->State = HAL_DMA_STATE_READY;
 8003aa6:	f880 3021 	strb.w	r3, [r0, #33]	; 0x21
    __HAL_UNLOCK(hdma);
 8003aaa:	2300      	movs	r3, #0
 8003aac:	f880 3020 	strb.w	r3, [r0, #32]
    if (hdma->XferErrorCallback != NULL)
 8003ab0:	6b03      	ldr	r3, [r0, #48]	; 0x30
 8003ab2:	2b00      	cmp	r3, #0
 8003ab4:	d098      	beq.n	80039e8 <HAL_DMA_IRQHandler+0x68>
      hdma->XferErrorCallback(hdma);
 8003ab6:	4798      	blx	r3
  return;
 8003ab8:	e796      	b.n	80039e8 <HAL_DMA_IRQHandler+0x68>
 8003aba:	bf00      	nop
 8003abc:	40020008 	.word	0x40020008
 8003ac0:	40020000 	.word	0x40020000

08003ac4 <HAL_GPIO_Init>:
  * @param  GPIO_Init: pointer to a GPIO_InitTypeDef structure that contains
  *         the configuration information for the specified GPIO peripheral.
  * @retval None
  */
void HAL_GPIO_Init(GPIO_TypeDef  *GPIOx, GPIO_InitTypeDef *GPIO_Init)
{
 8003ac4:	b570      	push	{r4, r5, r6, lr}
 8003ac6:	b082      	sub	sp, #8
  uint32_t position = 0x00u;
  uint32_t ioposition;
  uint32_t iocurrent;
  uint32_t temp;
  uint32_t config = 0x00u;
 8003ac8:	2400      	movs	r4, #0
  uint32_t position = 0x00u;
 8003aca:	46a4      	mov	ip, r4
  assert_param(IS_GPIO_ALL_INSTANCE(GPIOx));
  assert_param(IS_GPIO_PIN(GPIO_Init->Pin));
  assert_param(IS_GPIO_MODE(GPIO_Init->Mode));

  /* Configure the port pins */
  while (((GPIO_Init->Pin) >> position) != 0x00u)
 8003acc:	e0a6      	b.n	8003c1c <HAL_GPIO_Init+0x158>
    {
      /* Check the Alternate function parameters */
      assert_param(IS_GPIO_AF_INSTANCE(GPIOx));

      /* Based on the required mode, filling config variable with MODEy[1:0] and CNFy[3:2] corresponding bits */
      switch (GPIO_Init->Mode)
 8003ace:	4d80      	ldr	r5, [pc, #512]	; (8003cd0 <HAL_GPIO_Init+0x20c>)
 8003ad0:	42ab      	cmp	r3, r5
 8003ad2:	d010      	beq.n	8003af6 <HAL_GPIO_Init+0x32>
 8003ad4:	d907      	bls.n	8003ae6 <HAL_GPIO_Init+0x22>
 8003ad6:	4d7f      	ldr	r5, [pc, #508]	; (8003cd4 <HAL_GPIO_Init+0x210>)
 8003ad8:	42ab      	cmp	r3, r5
 8003ada:	d00c      	beq.n	8003af6 <HAL_GPIO_Init+0x32>
 8003adc:	f505 3580 	add.w	r5, r5, #65536	; 0x10000
 8003ae0:	42ab      	cmp	r3, r5
 8003ae2:	d008      	beq.n	8003af6 <HAL_GPIO_Init+0x32>
 8003ae4:	e013      	b.n	8003b0e <HAL_GPIO_Init+0x4a>
 8003ae6:	f5a5 1580 	sub.w	r5, r5, #1048576	; 0x100000
 8003aea:	42ab      	cmp	r3, r5
 8003aec:	d003      	beq.n	8003af6 <HAL_GPIO_Init+0x32>
 8003aee:	f505 2570 	add.w	r5, r5, #983040	; 0xf0000
 8003af2:	42ab      	cmp	r3, r5
 8003af4:	d107      	bne.n	8003b06 <HAL_GPIO_Init+0x42>
        case GPIO_MODE_EVT_RISING:
        case GPIO_MODE_EVT_FALLING:
        case GPIO_MODE_EVT_RISING_FALLING:
          /* Check the GPIO pull parameter */
          assert_param(IS_GPIO_PULL(GPIO_Init->Pull));
          if (GPIO_Init->Pull == GPIO_NOPULL)
 8003af6:	688b      	ldr	r3, [r1, #8]
 8003af8:	2b00      	cmp	r3, #0
 8003afa:	d058      	beq.n	8003bae <HAL_GPIO_Init+0xea>
          {
            config = GPIO_CR_MODE_INPUT + GPIO_CR_CNF_INPUT_FLOATING;
          }
          else if (GPIO_Init->Pull == GPIO_PULLUP)
 8003afc:	2b01      	cmp	r3, #1
 8003afe:	d051      	beq.n	8003ba4 <HAL_GPIO_Init+0xe0>
          else /* GPIO_PULLDOWN */
          {
            config = GPIO_CR_MODE_INPUT + GPIO_CR_CNF_INPUT_PU_PD;

            /* Reset the corresponding ODR bit */
            GPIOx->BRR = ioposition;
 8003b00:	6142      	str	r2, [r0, #20]
            config = GPIO_CR_MODE_INPUT + GPIO_CR_CNF_INPUT_PU_PD;
 8003b02:	2408      	movs	r4, #8
 8003b04:	e003      	b.n	8003b0e <HAL_GPIO_Init+0x4a>
      switch (GPIO_Init->Mode)
 8003b06:	f5a5 1580 	sub.w	r5, r5, #1048576	; 0x100000
 8003b0a:	42ab      	cmp	r3, r5
 8003b0c:	d0f3      	beq.n	8003af6 <HAL_GPIO_Init+0x32>
          break;
      }

      /* Check if the current bit belongs to first half or last half of the pin count number
       in order to address CRH or CRL register*/
      configregister = (iocurrent < GPIO_PIN_8) ? &GPIOx->CRL     : &GPIOx->CRH;
 8003b0e:	f1be 0fff 	cmp.w	lr, #255	; 0xff
 8003b12:	d84e      	bhi.n	8003bb2 <HAL_GPIO_Init+0xee>
 8003b14:	4606      	mov	r6, r0
      registeroffset = (iocurrent < GPIO_PIN_8) ? (position << 2u) : ((position - 8u) << 2u);
 8003b16:	f1be 0fff 	cmp.w	lr, #255	; 0xff
 8003b1a:	d84c      	bhi.n	8003bb6 <HAL_GPIO_Init+0xf2>
 8003b1c:	ea4f 028c 	mov.w	r2, ip, lsl #2

      /* Apply the new configuration of the pin to the register */
      MODIFY_REG((*configregister), ((GPIO_CRL_MODE0 | GPIO_CRL_CNF0) << registeroffset), (config << registeroffset));
 8003b20:	6833      	ldr	r3, [r6, #0]
 8003b22:	250f      	movs	r5, #15
 8003b24:	4095      	lsls	r5, r2
 8003b26:	ea23 0305 	bic.w	r3, r3, r5
 8003b2a:	fa04 f202 	lsl.w	r2, r4, r2
 8003b2e:	4313      	orrs	r3, r2
 8003b30:	6033      	str	r3, [r6, #0]

      /*--------------------- EXTI Mode Configuration ------------------------*/
      /* Configure the External Interrupt or event for the current IO */
      if ((GPIO_Init->Mode & EXTI_MODE) == EXTI_MODE)
 8003b32:	684b      	ldr	r3, [r1, #4]
 8003b34:	f013 5f80 	tst.w	r3, #268435456	; 0x10000000
 8003b38:	d06e      	beq.n	8003c18 <HAL_GPIO_Init+0x154>
      {
        /* Enable AFIO Clock */
        __HAL_RCC_AFIO_CLK_ENABLE();
 8003b3a:	4b67      	ldr	r3, [pc, #412]	; (8003cd8 <HAL_GPIO_Init+0x214>)
 8003b3c:	699a      	ldr	r2, [r3, #24]
 8003b3e:	f042 0201 	orr.w	r2, r2, #1
 8003b42:	619a      	str	r2, [r3, #24]
 8003b44:	699b      	ldr	r3, [r3, #24]
 8003b46:	f003 0301 	and.w	r3, r3, #1
 8003b4a:	9301      	str	r3, [sp, #4]
 8003b4c:	9b01      	ldr	r3, [sp, #4]
        temp = AFIO->EXTICR[position >> 2u];
 8003b4e:	ea4f 029c 	mov.w	r2, ip, lsr #2
 8003b52:	1c95      	adds	r5, r2, #2
 8003b54:	4b61      	ldr	r3, [pc, #388]	; (8003cdc <HAL_GPIO_Init+0x218>)
 8003b56:	f853 6025 	ldr.w	r6, [r3, r5, lsl #2]
        CLEAR_BIT(temp, (0x0Fu) << (4u * (position & 0x03u)));
 8003b5a:	f00c 0503 	and.w	r5, ip, #3
 8003b5e:	00ad      	lsls	r5, r5, #2
 8003b60:	230f      	movs	r3, #15
 8003b62:	40ab      	lsls	r3, r5
 8003b64:	ea26 0603 	bic.w	r6, r6, r3
        SET_BIT(temp, (GPIO_GET_INDEX(GPIOx)) << (4u * (position & 0x03u)));
 8003b68:	4b5d      	ldr	r3, [pc, #372]	; (8003ce0 <HAL_GPIO_Init+0x21c>)
 8003b6a:	4298      	cmp	r0, r3
 8003b6c:	d029      	beq.n	8003bc2 <HAL_GPIO_Init+0xfe>
 8003b6e:	f503 6380 	add.w	r3, r3, #1024	; 0x400
 8003b72:	4298      	cmp	r0, r3
 8003b74:	f000 808e 	beq.w	8003c94 <HAL_GPIO_Init+0x1d0>
 8003b78:	f503 6380 	add.w	r3, r3, #1024	; 0x400
 8003b7c:	4298      	cmp	r0, r3
 8003b7e:	f000 808b 	beq.w	8003c98 <HAL_GPIO_Init+0x1d4>
 8003b82:	f503 6380 	add.w	r3, r3, #1024	; 0x400
 8003b86:	4298      	cmp	r0, r3
 8003b88:	d019      	beq.n	8003bbe <HAL_GPIO_Init+0xfa>
 8003b8a:	2304      	movs	r3, #4
 8003b8c:	e01a      	b.n	8003bc4 <HAL_GPIO_Init+0x100>
          config = GPIO_Init->Speed + GPIO_CR_CNF_GP_OUTPUT_PP;
 8003b8e:	68cc      	ldr	r4, [r1, #12]
          break;
 8003b90:	e7bd      	b.n	8003b0e <HAL_GPIO_Init+0x4a>
          config = GPIO_Init->Speed + GPIO_CR_CNF_GP_OUTPUT_OD;
 8003b92:	68cc      	ldr	r4, [r1, #12]
 8003b94:	3404      	adds	r4, #4
          break;
 8003b96:	e7ba      	b.n	8003b0e <HAL_GPIO_Init+0x4a>
          config = GPIO_Init->Speed + GPIO_CR_CNF_AF_OUTPUT_PP;
 8003b98:	68cc      	ldr	r4, [r1, #12]
 8003b9a:	3408      	adds	r4, #8
          break;
 8003b9c:	e7b7      	b.n	8003b0e <HAL_GPIO_Init+0x4a>
          config = GPIO_Init->Speed + GPIO_CR_CNF_AF_OUTPUT_OD;
 8003b9e:	68cc      	ldr	r4, [r1, #12]
 8003ba0:	340c      	adds	r4, #12
          break;
 8003ba2:	e7b4      	b.n	8003b0e <HAL_GPIO_Init+0x4a>
            GPIOx->BSRR = ioposition;
 8003ba4:	6102      	str	r2, [r0, #16]
            config = GPIO_CR_MODE_INPUT + GPIO_CR_CNF_INPUT_PU_PD;
 8003ba6:	2408      	movs	r4, #8
 8003ba8:	e7b1      	b.n	8003b0e <HAL_GPIO_Init+0x4a>
          config = GPIO_CR_MODE_INPUT + GPIO_CR_CNF_ANALOG;
 8003baa:	2400      	movs	r4, #0
 8003bac:	e7af      	b.n	8003b0e <HAL_GPIO_Init+0x4a>
            config = GPIO_CR_MODE_INPUT + GPIO_CR_CNF_INPUT_FLOATING;
 8003bae:	2404      	movs	r4, #4
 8003bb0:	e7ad      	b.n	8003b0e <HAL_GPIO_Init+0x4a>
      configregister = (iocurrent < GPIO_PIN_8) ? &GPIOx->CRL     : &GPIOx->CRH;
 8003bb2:	1d06      	adds	r6, r0, #4
 8003bb4:	e7af      	b.n	8003b16 <HAL_GPIO_Init+0x52>
      registeroffset = (iocurrent < GPIO_PIN_8) ? (position << 2u) : ((position - 8u) << 2u);
 8003bb6:	f1ac 0208 	sub.w	r2, ip, #8
 8003bba:	0092      	lsls	r2, r2, #2
 8003bbc:	e7b0      	b.n	8003b20 <HAL_GPIO_Init+0x5c>
        SET_BIT(temp, (GPIO_GET_INDEX(GPIOx)) << (4u * (position & 0x03u)));
 8003bbe:	2303      	movs	r3, #3
 8003bc0:	e000      	b.n	8003bc4 <HAL_GPIO_Init+0x100>
 8003bc2:	2300      	movs	r3, #0
 8003bc4:	40ab      	lsls	r3, r5
 8003bc6:	4333      	orrs	r3, r6
        AFIO->EXTICR[position >> 2u] = temp;
 8003bc8:	3202      	adds	r2, #2
 8003bca:	4d44      	ldr	r5, [pc, #272]	; (8003cdc <HAL_GPIO_Init+0x218>)
 8003bcc:	f845 3022 	str.w	r3, [r5, r2, lsl #2]


        /* Configure the interrupt mask */
        if ((GPIO_Init->Mode & GPIO_MODE_IT) == GPIO_MODE_IT)
 8003bd0:	684b      	ldr	r3, [r1, #4]
 8003bd2:	f413 3f80 	tst.w	r3, #65536	; 0x10000
 8003bd6:	d061      	beq.n	8003c9c <HAL_GPIO_Init+0x1d8>
        {
          SET_BIT(EXTI->IMR, iocurrent);
 8003bd8:	4a42      	ldr	r2, [pc, #264]	; (8003ce4 <HAL_GPIO_Init+0x220>)
 8003bda:	6813      	ldr	r3, [r2, #0]
 8003bdc:	ea43 030e 	orr.w	r3, r3, lr
 8003be0:	6013      	str	r3, [r2, #0]
        {
          CLEAR_BIT(EXTI->IMR, iocurrent);
        }

        /* Configure the event mask */
        if ((GPIO_Init->Mode & GPIO_MODE_EVT) == GPIO_MODE_EVT)
 8003be2:	684b      	ldr	r3, [r1, #4]
 8003be4:	f413 3f00 	tst.w	r3, #131072	; 0x20000
 8003be8:	d05e      	beq.n	8003ca8 <HAL_GPIO_Init+0x1e4>
        {
          SET_BIT(EXTI->EMR, iocurrent);
 8003bea:	4a3e      	ldr	r2, [pc, #248]	; (8003ce4 <HAL_GPIO_Init+0x220>)
 8003bec:	6853      	ldr	r3, [r2, #4]
 8003bee:	ea43 030e 	orr.w	r3, r3, lr
 8003bf2:	6053      	str	r3, [r2, #4]
        {
          CLEAR_BIT(EXTI->EMR, iocurrent);
        }

        /* Enable or disable the rising trigger */
        if ((GPIO_Init->Mode & RISING_EDGE) == RISING_EDGE)
 8003bf4:	684b      	ldr	r3, [r1, #4]
 8003bf6:	f413 1f80 	tst.w	r3, #1048576	; 0x100000
 8003bfa:	d05b      	beq.n	8003cb4 <HAL_GPIO_Init+0x1f0>
        {
          SET_BIT(EXTI->RTSR, iocurrent);
 8003bfc:	4a39      	ldr	r2, [pc, #228]	; (8003ce4 <HAL_GPIO_Init+0x220>)
 8003bfe:	6893      	ldr	r3, [r2, #8]
 8003c00:	ea43 030e 	orr.w	r3, r3, lr
 8003c04:	6093      	str	r3, [r2, #8]
        {
          CLEAR_BIT(EXTI->RTSR, iocurrent);
        }

        /* Enable or disable the falling trigger */
        if ((GPIO_Init->Mode & FALLING_EDGE) == FALLING_EDGE)
 8003c06:	684b      	ldr	r3, [r1, #4]
 8003c08:	f413 1f00 	tst.w	r3, #2097152	; 0x200000
 8003c0c:	d058      	beq.n	8003cc0 <HAL_GPIO_Init+0x1fc>
        {
          SET_BIT(EXTI->FTSR, iocurrent);
 8003c0e:	4a35      	ldr	r2, [pc, #212]	; (8003ce4 <HAL_GPIO_Init+0x220>)
 8003c10:	68d3      	ldr	r3, [r2, #12]
 8003c12:	ea43 030e 	orr.w	r3, r3, lr
 8003c16:	60d3      	str	r3, [r2, #12]
          CLEAR_BIT(EXTI->FTSR, iocurrent);
        }
      }
    }

	position++;
 8003c18:	f10c 0c01 	add.w	ip, ip, #1
  while (((GPIO_Init->Pin) >> position) != 0x00u)
 8003c1c:	680b      	ldr	r3, [r1, #0]
 8003c1e:	fa33 f20c 	lsrs.w	r2, r3, ip
 8003c22:	d053      	beq.n	8003ccc <HAL_GPIO_Init+0x208>
    ioposition = (0x01uL << position);
 8003c24:	2201      	movs	r2, #1
 8003c26:	fa02 f20c 	lsl.w	r2, r2, ip
    iocurrent = (uint32_t)(GPIO_Init->Pin) & ioposition;
 8003c2a:	ea03 0e02 	and.w	lr, r3, r2
    if (iocurrent == ioposition)
 8003c2e:	ea32 0303 	bics.w	r3, r2, r3
 8003c32:	d1f1      	bne.n	8003c18 <HAL_GPIO_Init+0x154>
      switch (GPIO_Init->Mode)
 8003c34:	684b      	ldr	r3, [r1, #4]
 8003c36:	2b12      	cmp	r3, #18
 8003c38:	f63f af49 	bhi.w	8003ace <HAL_GPIO_Init+0xa>
 8003c3c:	2b12      	cmp	r3, #18
 8003c3e:	f63f af66 	bhi.w	8003b0e <HAL_GPIO_Init+0x4a>
 8003c42:	a501      	add	r5, pc, #4	; (adr r5, 8003c48 <HAL_GPIO_Init+0x184>)
 8003c44:	f855 f023 	ldr.w	pc, [r5, r3, lsl #2]
 8003c48:	08003af7 	.word	0x08003af7
 8003c4c:	08003b8f 	.word	0x08003b8f
 8003c50:	08003b99 	.word	0x08003b99
 8003c54:	08003bab 	.word	0x08003bab
 8003c58:	08003b0f 	.word	0x08003b0f
 8003c5c:	08003b0f 	.word	0x08003b0f
 8003c60:	08003b0f 	.word	0x08003b0f
 8003c64:	08003b0f 	.word	0x08003b0f
 8003c68:	08003b0f 	.word	0x08003b0f
 8003c6c:	08003b0f 	.word	0x08003b0f
 8003c70:	08003b0f 	.word	0x08003b0f
 8003c74:	08003b0f 	.word	0x08003b0f
 8003c78:	08003b0f 	.word	0x08003b0f
 8003c7c:	08003b0f 	.word	0x08003b0f
 8003c80:	08003b0f 	.word	0x08003b0f
 8003c84:	08003b0f 	.word	0x08003b0f
 8003c88:	08003b0f 	.word	0x08003b0f
 8003c8c:	08003b93 	.word	0x08003b93
 8003c90:	08003b9f 	.word	0x08003b9f
        SET_BIT(temp, (GPIO_GET_INDEX(GPIOx)) << (4u * (position & 0x03u)));
 8003c94:	2301      	movs	r3, #1
 8003c96:	e795      	b.n	8003bc4 <HAL_GPIO_Init+0x100>
 8003c98:	2302      	movs	r3, #2
 8003c9a:	e793      	b.n	8003bc4 <HAL_GPIO_Init+0x100>
          CLEAR_BIT(EXTI->IMR, iocurrent);
 8003c9c:	4a11      	ldr	r2, [pc, #68]	; (8003ce4 <HAL_GPIO_Init+0x220>)
 8003c9e:	6813      	ldr	r3, [r2, #0]
 8003ca0:	ea23 030e 	bic.w	r3, r3, lr
 8003ca4:	6013      	str	r3, [r2, #0]
 8003ca6:	e79c      	b.n	8003be2 <HAL_GPIO_Init+0x11e>
          CLEAR_BIT(EXTI->EMR, iocurrent);
 8003ca8:	4a0e      	ldr	r2, [pc, #56]	; (8003ce4 <HAL_GPIO_Init+0x220>)
 8003caa:	6853      	ldr	r3, [r2, #4]
 8003cac:	ea23 030e 	bic.w	r3, r3, lr
 8003cb0:	6053      	str	r3, [r2, #4]
 8003cb2:	e79f      	b.n	8003bf4 <HAL_GPIO_Init+0x130>
          CLEAR_BIT(EXTI->RTSR, iocurrent);
 8003cb4:	4a0b      	ldr	r2, [pc, #44]	; (8003ce4 <HAL_GPIO_Init+0x220>)
 8003cb6:	6893      	ldr	r3, [r2, #8]
 8003cb8:	ea23 030e 	bic.w	r3, r3, lr
 8003cbc:	6093      	str	r3, [r2, #8]
 8003cbe:	e7a2      	b.n	8003c06 <HAL_GPIO_Init+0x142>
          CLEAR_BIT(EXTI->FTSR, iocurrent);
 8003cc0:	4a08      	ldr	r2, [pc, #32]	; (8003ce4 <HAL_GPIO_Init+0x220>)
 8003cc2:	68d3      	ldr	r3, [r2, #12]
 8003cc4:	ea23 030e 	bic.w	r3, r3, lr
 8003cc8:	60d3      	str	r3, [r2, #12]
 8003cca:	e7a5      	b.n	8003c18 <HAL_GPIO_Init+0x154>
  }
}
 8003ccc:	b002      	add	sp, #8
 8003cce:	bd70      	pop	{r4, r5, r6, pc}
 8003cd0:	10220000 	.word	0x10220000
 8003cd4:	10310000 	.word	0x10310000
 8003cd8:	40021000 	.word	0x40021000
 8003cdc:	40010000 	.word	0x40010000
 8003ce0:	40010800 	.word	0x40010800
 8003ce4:	40010400 	.word	0x40010400

08003ce8 <HAL_GPIO_WritePin>:
{
  /* Check the parameters */
  assert_param(IS_GPIO_PIN(GPIO_Pin));
  assert_param(IS_GPIO_PIN_ACTION(PinState));

  if (PinState != GPIO_PIN_RESET)
 8003ce8:	b10a      	cbz	r2, 8003cee <HAL_GPIO_WritePin+0x6>
  {
    GPIOx->BSRR = GPIO_Pin;
 8003cea:	6101      	str	r1, [r0, #16]
 8003cec:	4770      	bx	lr
  }
  else
  {
    GPIOx->BSRR = (uint32_t)GPIO_Pin << 16u;
 8003cee:	0409      	lsls	r1, r1, #16
 8003cf0:	6101      	str	r1, [r0, #16]
  }
}
 8003cf2:	4770      	bx	lr

08003cf4 <RCC_Delay>:
  * @brief  This function provides delay (in milliseconds) based on CPU cycles method.
  * @param  mdelay: specifies the delay time length, in milliseconds.
  * @retval None
  */
static void RCC_Delay(uint32_t mdelay)
{
 8003cf4:	b082      	sub	sp, #8
  __IO uint32_t Delay = mdelay * (SystemCoreClock / 8U / 1000U);
 8003cf6:	4b08      	ldr	r3, [pc, #32]	; (8003d18 <RCC_Delay+0x24>)
 8003cf8:	681b      	ldr	r3, [r3, #0]
 8003cfa:	4a08      	ldr	r2, [pc, #32]	; (8003d1c <RCC_Delay+0x28>)
 8003cfc:	fba2 2303 	umull	r2, r3, r2, r3
 8003d00:	0a5b      	lsrs	r3, r3, #9
 8003d02:	fb00 f303 	mul.w	r3, r0, r3
 8003d06:	9301      	str	r3, [sp, #4]
 8003d08:	bf00      	nop
  do
  {
    __NOP();
  }
  while (Delay --);
 8003d0a:	9b01      	ldr	r3, [sp, #4]
 8003d0c:	1e5a      	subs	r2, r3, #1
 8003d0e:	9201      	str	r2, [sp, #4]
 8003d10:	2b00      	cmp	r3, #0
 8003d12:	d1f9      	bne.n	8003d08 <RCC_Delay+0x14>
}
 8003d14:	b002      	add	sp, #8
 8003d16:	4770      	bx	lr
 8003d18:	20000010 	.word	0x20000010
 8003d1c:	10624dd3 	.word	0x10624dd3

08003d20 <HAL_RCC_OscConfig>:
  if (RCC_OscInitStruct == NULL)
 8003d20:	2800      	cmp	r0, #0
 8003d22:	f000 81f1 	beq.w	8004108 <HAL_RCC_OscConfig+0x3e8>
{
 8003d26:	b570      	push	{r4, r5, r6, lr}
 8003d28:	b082      	sub	sp, #8
 8003d2a:	4604      	mov	r4, r0
  if (((RCC_OscInitStruct->OscillatorType) & RCC_OSCILLATORTYPE_HSE) == RCC_OSCILLATORTYPE_HSE)
 8003d2c:	6803      	ldr	r3, [r0, #0]
 8003d2e:	f013 0f01 	tst.w	r3, #1
 8003d32:	d02c      	beq.n	8003d8e <HAL_RCC_OscConfig+0x6e>
    if ((__HAL_RCC_GET_SYSCLK_SOURCE() == RCC_SYSCLKSOURCE_STATUS_HSE)
 8003d34:	4b99      	ldr	r3, [pc, #612]	; (8003f9c <HAL_RCC_OscConfig+0x27c>)
 8003d36:	685b      	ldr	r3, [r3, #4]
 8003d38:	f003 030c 	and.w	r3, r3, #12
 8003d3c:	2b04      	cmp	r3, #4
 8003d3e:	d01d      	beq.n	8003d7c <HAL_RCC_OscConfig+0x5c>
        || ((__HAL_RCC_GET_SYSCLK_SOURCE() == RCC_SYSCLKSOURCE_STATUS_PLLCLK) && (__HAL_RCC_GET_PLL_OSCSOURCE() == RCC_PLLSOURCE_HSE)))
 8003d40:	4b96      	ldr	r3, [pc, #600]	; (8003f9c <HAL_RCC_OscConfig+0x27c>)
 8003d42:	685b      	ldr	r3, [r3, #4]
 8003d44:	f003 030c 	and.w	r3, r3, #12
 8003d48:	2b08      	cmp	r3, #8
 8003d4a:	d012      	beq.n	8003d72 <HAL_RCC_OscConfig+0x52>
      __HAL_RCC_HSE_CONFIG(RCC_OscInitStruct->HSEState);
 8003d4c:	6863      	ldr	r3, [r4, #4]
 8003d4e:	f5b3 3f80 	cmp.w	r3, #65536	; 0x10000
 8003d52:	d041      	beq.n	8003dd8 <HAL_RCC_OscConfig+0xb8>
 8003d54:	2b00      	cmp	r3, #0
 8003d56:	d155      	bne.n	8003e04 <HAL_RCC_OscConfig+0xe4>
 8003d58:	f103 4380 	add.w	r3, r3, #1073741824	; 0x40000000
 8003d5c:	f503 3304 	add.w	r3, r3, #135168	; 0x21000
 8003d60:	681a      	ldr	r2, [r3, #0]
 8003d62:	f422 3280 	bic.w	r2, r2, #65536	; 0x10000
 8003d66:	601a      	str	r2, [r3, #0]
 8003d68:	681a      	ldr	r2, [r3, #0]
 8003d6a:	f422 2280 	bic.w	r2, r2, #262144	; 0x40000
 8003d6e:	601a      	str	r2, [r3, #0]
 8003d70:	e037      	b.n	8003de2 <HAL_RCC_OscConfig+0xc2>
        || ((__HAL_RCC_GET_SYSCLK_SOURCE() == RCC_SYSCLKSOURCE_STATUS_PLLCLK) && (__HAL_RCC_GET_PLL_OSCSOURCE() == RCC_PLLSOURCE_HSE)))
 8003d72:	4b8a      	ldr	r3, [pc, #552]	; (8003f9c <HAL_RCC_OscConfig+0x27c>)
 8003d74:	685b      	ldr	r3, [r3, #4]
 8003d76:	f413 3f80 	tst.w	r3, #65536	; 0x10000
 8003d7a:	d0e7      	beq.n	8003d4c <HAL_RCC_OscConfig+0x2c>
      if ((__HAL_RCC_GET_FLAG(RCC_FLAG_HSERDY) != RESET) && (RCC_OscInitStruct->HSEState == RCC_HSE_OFF))
 8003d7c:	4b87      	ldr	r3, [pc, #540]	; (8003f9c <HAL_RCC_OscConfig+0x27c>)
 8003d7e:	681b      	ldr	r3, [r3, #0]
 8003d80:	f413 3f00 	tst.w	r3, #131072	; 0x20000
 8003d84:	d003      	beq.n	8003d8e <HAL_RCC_OscConfig+0x6e>
 8003d86:	6863      	ldr	r3, [r4, #4]
 8003d88:	2b00      	cmp	r3, #0
 8003d8a:	f000 81bf 	beq.w	800410c <HAL_RCC_OscConfig+0x3ec>
  if (((RCC_OscInitStruct->OscillatorType) & RCC_OSCILLATORTYPE_HSI) == RCC_OSCILLATORTYPE_HSI)
 8003d8e:	6823      	ldr	r3, [r4, #0]
 8003d90:	f013 0f02 	tst.w	r3, #2
 8003d94:	d075      	beq.n	8003e82 <HAL_RCC_OscConfig+0x162>
    if ((__HAL_RCC_GET_SYSCLK_SOURCE() == RCC_SYSCLKSOURCE_STATUS_HSI)
 8003d96:	4b81      	ldr	r3, [pc, #516]	; (8003f9c <HAL_RCC_OscConfig+0x27c>)
 8003d98:	685b      	ldr	r3, [r3, #4]
 8003d9a:	f013 0f0c 	tst.w	r3, #12
 8003d9e:	d05f      	beq.n	8003e60 <HAL_RCC_OscConfig+0x140>
        || ((__HAL_RCC_GET_SYSCLK_SOURCE() == RCC_SYSCLKSOURCE_STATUS_PLLCLK) && (__HAL_RCC_GET_PLL_OSCSOURCE() == RCC_PLLSOURCE_HSI_DIV2)))
 8003da0:	4b7e      	ldr	r3, [pc, #504]	; (8003f9c <HAL_RCC_OscConfig+0x27c>)
 8003da2:	685b      	ldr	r3, [r3, #4]
 8003da4:	f003 030c 	and.w	r3, r3, #12
 8003da8:	2b08      	cmp	r3, #8
 8003daa:	d054      	beq.n	8003e56 <HAL_RCC_OscConfig+0x136>
      if (RCC_OscInitStruct->HSIState != RCC_HSI_OFF)
 8003dac:	6923      	ldr	r3, [r4, #16]
 8003dae:	2b00      	cmp	r3, #0
 8003db0:	f000 808a 	beq.w	8003ec8 <HAL_RCC_OscConfig+0x1a8>
        __HAL_RCC_HSI_ENABLE();
 8003db4:	4b7a      	ldr	r3, [pc, #488]	; (8003fa0 <HAL_RCC_OscConfig+0x280>)
 8003db6:	2201      	movs	r2, #1
 8003db8:	601a      	str	r2, [r3, #0]
        tickstart = HAL_GetTick();
 8003dba:	f7ff fa23 	bl	8003204 <HAL_GetTick>
 8003dbe:	4605      	mov	r5, r0
        while (__HAL_RCC_GET_FLAG(RCC_FLAG_HSIRDY) == RESET)
 8003dc0:	4b76      	ldr	r3, [pc, #472]	; (8003f9c <HAL_RCC_OscConfig+0x27c>)
 8003dc2:	681b      	ldr	r3, [r3, #0]
 8003dc4:	f013 0f02 	tst.w	r3, #2
 8003dc8:	d175      	bne.n	8003eb6 <HAL_RCC_OscConfig+0x196>
          if ((HAL_GetTick() - tickstart) > HSI_TIMEOUT_VALUE)
 8003dca:	f7ff fa1b 	bl	8003204 <HAL_GetTick>
 8003dce:	1b40      	subs	r0, r0, r5
 8003dd0:	2802      	cmp	r0, #2
 8003dd2:	d9f5      	bls.n	8003dc0 <HAL_RCC_OscConfig+0xa0>
            return HAL_TIMEOUT;
 8003dd4:	2003      	movs	r0, #3
 8003dd6:	e19e      	b.n	8004116 <HAL_RCC_OscConfig+0x3f6>
      __HAL_RCC_HSE_CONFIG(RCC_OscInitStruct->HSEState);
 8003dd8:	4a70      	ldr	r2, [pc, #448]	; (8003f9c <HAL_RCC_OscConfig+0x27c>)
 8003dda:	6813      	ldr	r3, [r2, #0]
 8003ddc:	f443 3380 	orr.w	r3, r3, #65536	; 0x10000
 8003de0:	6013      	str	r3, [r2, #0]
      if (RCC_OscInitStruct->HSEState != RCC_HSE_OFF)
 8003de2:	6863      	ldr	r3, [r4, #4]
 8003de4:	b343      	cbz	r3, 8003e38 <HAL_RCC_OscConfig+0x118>
        tickstart = HAL_GetTick();
 8003de6:	f7ff fa0d 	bl	8003204 <HAL_GetTick>
 8003dea:	4605      	mov	r5, r0
        while (__HAL_RCC_GET_FLAG(RCC_FLAG_HSERDY) == RESET)
 8003dec:	4b6b      	ldr	r3, [pc, #428]	; (8003f9c <HAL_RCC_OscConfig+0x27c>)
 8003dee:	681b      	ldr	r3, [r3, #0]
 8003df0:	f413 3f00 	tst.w	r3, #131072	; 0x20000
 8003df4:	d1cb      	bne.n	8003d8e <HAL_RCC_OscConfig+0x6e>
          if ((HAL_GetTick() - tickstart) > HSE_TIMEOUT_VALUE)
 8003df6:	f7ff fa05 	bl	8003204 <HAL_GetTick>
 8003dfa:	1b40      	subs	r0, r0, r5
 8003dfc:	2864      	cmp	r0, #100	; 0x64
 8003dfe:	d9f5      	bls.n	8003dec <HAL_RCC_OscConfig+0xcc>
            return HAL_TIMEOUT;
 8003e00:	2003      	movs	r0, #3
 8003e02:	e188      	b.n	8004116 <HAL_RCC_OscConfig+0x3f6>
      __HAL_RCC_HSE_CONFIG(RCC_OscInitStruct->HSEState);
 8003e04:	f5b3 2fa0 	cmp.w	r3, #327680	; 0x50000
 8003e08:	d009      	beq.n	8003e1e <HAL_RCC_OscConfig+0xfe>
 8003e0a:	4b64      	ldr	r3, [pc, #400]	; (8003f9c <HAL_RCC_OscConfig+0x27c>)
 8003e0c:	681a      	ldr	r2, [r3, #0]
 8003e0e:	f422 3280 	bic.w	r2, r2, #65536	; 0x10000
 8003e12:	601a      	str	r2, [r3, #0]
 8003e14:	681a      	ldr	r2, [r3, #0]
 8003e16:	f422 2280 	bic.w	r2, r2, #262144	; 0x40000
 8003e1a:	601a      	str	r2, [r3, #0]
 8003e1c:	e7e1      	b.n	8003de2 <HAL_RCC_OscConfig+0xc2>
 8003e1e:	f103 4380 	add.w	r3, r3, #1073741824	; 0x40000000
 8003e22:	f5a3 333c 	sub.w	r3, r3, #192512	; 0x2f000
 8003e26:	681a      	ldr	r2, [r3, #0]
 8003e28:	f442 2280 	orr.w	r2, r2, #262144	; 0x40000
 8003e2c:	601a      	str	r2, [r3, #0]
 8003e2e:	681a      	ldr	r2, [r3, #0]
 8003e30:	f442 3280 	orr.w	r2, r2, #65536	; 0x10000
 8003e34:	601a      	str	r2, [r3, #0]
 8003e36:	e7d4      	b.n	8003de2 <HAL_RCC_OscConfig+0xc2>
        tickstart = HAL_GetTick();
 8003e38:	f7ff f9e4 	bl	8003204 <HAL_GetTick>
 8003e3c:	4605      	mov	r5, r0
        while (__HAL_RCC_GET_FLAG(RCC_FLAG_HSERDY) != RESET)
 8003e3e:	4b57      	ldr	r3, [pc, #348]	; (8003f9c <HAL_RCC_OscConfig+0x27c>)
 8003e40:	681b      	ldr	r3, [r3, #0]
 8003e42:	f413 3f00 	tst.w	r3, #131072	; 0x20000
 8003e46:	d0a2      	beq.n	8003d8e <HAL_RCC_OscConfig+0x6e>
          if ((HAL_GetTick() - tickstart) > HSE_TIMEOUT_VALUE)
 8003e48:	f7ff f9dc 	bl	8003204 <HAL_GetTick>
 8003e4c:	1b40      	subs	r0, r0, r5
 8003e4e:	2864      	cmp	r0, #100	; 0x64
 8003e50:	d9f5      	bls.n	8003e3e <HAL_RCC_OscConfig+0x11e>
            return HAL_TIMEOUT;
 8003e52:	2003      	movs	r0, #3
 8003e54:	e15f      	b.n	8004116 <HAL_RCC_OscConfig+0x3f6>
        || ((__HAL_RCC_GET_SYSCLK_SOURCE() == RCC_SYSCLKSOURCE_STATUS_PLLCLK) && (__HAL_RCC_GET_PLL_OSCSOURCE() == RCC_PLLSOURCE_HSI_DIV2)))
 8003e56:	4b51      	ldr	r3, [pc, #324]	; (8003f9c <HAL_RCC_OscConfig+0x27c>)
 8003e58:	685b      	ldr	r3, [r3, #4]
 8003e5a:	f413 3f80 	tst.w	r3, #65536	; 0x10000
 8003e5e:	d1a5      	bne.n	8003dac <HAL_RCC_OscConfig+0x8c>
      if ((__HAL_RCC_GET_FLAG(RCC_FLAG_HSIRDY) != RESET) && (RCC_OscInitStruct->HSIState != RCC_HSI_ON))
 8003e60:	4b4e      	ldr	r3, [pc, #312]	; (8003f9c <HAL_RCC_OscConfig+0x27c>)
 8003e62:	681b      	ldr	r3, [r3, #0]
 8003e64:	f013 0f02 	tst.w	r3, #2
 8003e68:	d003      	beq.n	8003e72 <HAL_RCC_OscConfig+0x152>
 8003e6a:	6923      	ldr	r3, [r4, #16]
 8003e6c:	2b01      	cmp	r3, #1
 8003e6e:	f040 814f 	bne.w	8004110 <HAL_RCC_OscConfig+0x3f0>
        __HAL_RCC_HSI_CALIBRATIONVALUE_ADJUST(RCC_OscInitStruct->HSICalibrationValue);
 8003e72:	4a4a      	ldr	r2, [pc, #296]	; (8003f9c <HAL_RCC_OscConfig+0x27c>)
 8003e74:	6813      	ldr	r3, [r2, #0]
 8003e76:	f023 03f8 	bic.w	r3, r3, #248	; 0xf8
 8003e7a:	6961      	ldr	r1, [r4, #20]
 8003e7c:	ea43 03c1 	orr.w	r3, r3, r1, lsl #3
 8003e80:	6013      	str	r3, [r2, #0]
  if (((RCC_OscInitStruct->OscillatorType) & RCC_OSCILLATORTYPE_LSI) == RCC_OSCILLATORTYPE_LSI)
 8003e82:	6823      	ldr	r3, [r4, #0]
 8003e84:	f013 0f08 	tst.w	r3, #8
 8003e88:	d033      	beq.n	8003ef2 <HAL_RCC_OscConfig+0x1d2>
    if (RCC_OscInitStruct->LSIState != RCC_LSI_OFF)
 8003e8a:	69a3      	ldr	r3, [r4, #24]
 8003e8c:	2b00      	cmp	r3, #0
 8003e8e:	d05c      	beq.n	8003f4a <HAL_RCC_OscConfig+0x22a>
      __HAL_RCC_LSI_ENABLE();
 8003e90:	4b43      	ldr	r3, [pc, #268]	; (8003fa0 <HAL_RCC_OscConfig+0x280>)
 8003e92:	2201      	movs	r2, #1
 8003e94:	f8c3 2480 	str.w	r2, [r3, #1152]	; 0x480
      tickstart = HAL_GetTick();
 8003e98:	f7ff f9b4 	bl	8003204 <HAL_GetTick>
 8003e9c:	4605      	mov	r5, r0
      while (__HAL_RCC_GET_FLAG(RCC_FLAG_LSIRDY) == RESET)
 8003e9e:	4b3f      	ldr	r3, [pc, #252]	; (8003f9c <HAL_RCC_OscConfig+0x27c>)
 8003ea0:	6a5b      	ldr	r3, [r3, #36]	; 0x24
 8003ea2:	f013 0f02 	tst.w	r3, #2
 8003ea6:	d121      	bne.n	8003eec <HAL_RCC_OscConfig+0x1cc>
        if ((HAL_GetTick() - tickstart) > LSI_TIMEOUT_VALUE)
 8003ea8:	f7ff f9ac 	bl	8003204 <HAL_GetTick>
 8003eac:	1b40      	subs	r0, r0, r5
 8003eae:	2802      	cmp	r0, #2
 8003eb0:	d9f5      	bls.n	8003e9e <HAL_RCC_OscConfig+0x17e>
          return HAL_TIMEOUT;
 8003eb2:	2003      	movs	r0, #3
 8003eb4:	e12f      	b.n	8004116 <HAL_RCC_OscConfig+0x3f6>
        __HAL_RCC_HSI_CALIBRATIONVALUE_ADJUST(RCC_OscInitStruct->HSICalibrationValue);
 8003eb6:	4a39      	ldr	r2, [pc, #228]	; (8003f9c <HAL_RCC_OscConfig+0x27c>)
 8003eb8:	6813      	ldr	r3, [r2, #0]
 8003eba:	f023 03f8 	bic.w	r3, r3, #248	; 0xf8
 8003ebe:	6961      	ldr	r1, [r4, #20]
 8003ec0:	ea43 03c1 	orr.w	r3, r3, r1, lsl #3
 8003ec4:	6013      	str	r3, [r2, #0]
 8003ec6:	e7dc      	b.n	8003e82 <HAL_RCC_OscConfig+0x162>
        __HAL_RCC_HSI_DISABLE();
 8003ec8:	4b35      	ldr	r3, [pc, #212]	; (8003fa0 <HAL_RCC_OscConfig+0x280>)
 8003eca:	2200      	movs	r2, #0
 8003ecc:	601a      	str	r2, [r3, #0]
        tickstart = HAL_GetTick();
 8003ece:	f7ff f999 	bl	8003204 <HAL_GetTick>
 8003ed2:	4605      	mov	r5, r0
        while (__HAL_RCC_GET_FLAG(RCC_FLAG_HSIRDY) != RESET)
 8003ed4:	4b31      	ldr	r3, [pc, #196]	; (8003f9c <HAL_RCC_OscConfig+0x27c>)
 8003ed6:	681b      	ldr	r3, [r3, #0]
 8003ed8:	f013 0f02 	tst.w	r3, #2
 8003edc:	d0d1      	beq.n	8003e82 <HAL_RCC_OscConfig+0x162>
          if ((HAL_GetTick() - tickstart) > HSI_TIMEOUT_VALUE)
 8003ede:	f7ff f991 	bl	8003204 <HAL_GetTick>
 8003ee2:	1b40      	subs	r0, r0, r5
 8003ee4:	2802      	cmp	r0, #2
 8003ee6:	d9f5      	bls.n	8003ed4 <HAL_RCC_OscConfig+0x1b4>
            return HAL_TIMEOUT;
 8003ee8:	2003      	movs	r0, #3
 8003eea:	e114      	b.n	8004116 <HAL_RCC_OscConfig+0x3f6>
      RCC_Delay(1);
 8003eec:	2001      	movs	r0, #1
 8003eee:	f7ff ff01 	bl	8003cf4 <RCC_Delay>
  if (((RCC_OscInitStruct->OscillatorType) & RCC_OSCILLATORTYPE_LSE) == RCC_OSCILLATORTYPE_LSE)
 8003ef2:	6823      	ldr	r3, [r4, #0]
 8003ef4:	f013 0f04 	tst.w	r3, #4
 8003ef8:	f000 8096 	beq.w	8004028 <HAL_RCC_OscConfig+0x308>
    if (__HAL_RCC_PWR_IS_CLK_DISABLED())
 8003efc:	4b27      	ldr	r3, [pc, #156]	; (8003f9c <HAL_RCC_OscConfig+0x27c>)
 8003efe:	69db      	ldr	r3, [r3, #28]
 8003f00:	f013 5f80 	tst.w	r3, #268435456	; 0x10000000
 8003f04:	d134      	bne.n	8003f70 <HAL_RCC_OscConfig+0x250>
      __HAL_RCC_PWR_CLK_ENABLE();
 8003f06:	4b25      	ldr	r3, [pc, #148]	; (8003f9c <HAL_RCC_OscConfig+0x27c>)
 8003f08:	69da      	ldr	r2, [r3, #28]
 8003f0a:	f042 5280 	orr.w	r2, r2, #268435456	; 0x10000000
 8003f0e:	61da      	str	r2, [r3, #28]
 8003f10:	69db      	ldr	r3, [r3, #28]
 8003f12:	f003 5380 	and.w	r3, r3, #268435456	; 0x10000000
 8003f16:	9301      	str	r3, [sp, #4]
 8003f18:	9b01      	ldr	r3, [sp, #4]
      pwrclkchanged = SET;
 8003f1a:	2501      	movs	r5, #1
    if (HAL_IS_BIT_CLR(PWR->CR, PWR_CR_DBP))
 8003f1c:	4b21      	ldr	r3, [pc, #132]	; (8003fa4 <HAL_RCC_OscConfig+0x284>)
 8003f1e:	681b      	ldr	r3, [r3, #0]
 8003f20:	f413 7f80 	tst.w	r3, #256	; 0x100
 8003f24:	d026      	beq.n	8003f74 <HAL_RCC_OscConfig+0x254>
    __HAL_RCC_LSE_CONFIG(RCC_OscInitStruct->LSEState);
 8003f26:	68e3      	ldr	r3, [r4, #12]
 8003f28:	2b01      	cmp	r3, #1
 8003f2a:	d03d      	beq.n	8003fa8 <HAL_RCC_OscConfig+0x288>
 8003f2c:	2b00      	cmp	r3, #0
 8003f2e:	d153      	bne.n	8003fd8 <HAL_RCC_OscConfig+0x2b8>
 8003f30:	f103 4380 	add.w	r3, r3, #1073741824	; 0x40000000
 8003f34:	f503 3304 	add.w	r3, r3, #135168	; 0x21000
 8003f38:	6a1a      	ldr	r2, [r3, #32]
 8003f3a:	f022 0201 	bic.w	r2, r2, #1
 8003f3e:	621a      	str	r2, [r3, #32]
 8003f40:	6a1a      	ldr	r2, [r3, #32]
 8003f42:	f022 0204 	bic.w	r2, r2, #4
 8003f46:	621a      	str	r2, [r3, #32]
 8003f48:	e033      	b.n	8003fb2 <HAL_RCC_OscConfig+0x292>
      __HAL_RCC_LSI_DISABLE();
 8003f4a:	4b15      	ldr	r3, [pc, #84]	; (8003fa0 <HAL_RCC_OscConfig+0x280>)
 8003f4c:	2200      	movs	r2, #0
 8003f4e:	f8c3 2480 	str.w	r2, [r3, #1152]	; 0x480
      tickstart = HAL_GetTick();
 8003f52:	f7ff f957 	bl	8003204 <HAL_GetTick>
 8003f56:	4605      	mov	r5, r0
      while (__HAL_RCC_GET_FLAG(RCC_FLAG_LSIRDY) != RESET)
 8003f58:	4b10      	ldr	r3, [pc, #64]	; (8003f9c <HAL_RCC_OscConfig+0x27c>)
 8003f5a:	6a5b      	ldr	r3, [r3, #36]	; 0x24
 8003f5c:	f013 0f02 	tst.w	r3, #2
 8003f60:	d0c7      	beq.n	8003ef2 <HAL_RCC_OscConfig+0x1d2>
        if ((HAL_GetTick() - tickstart) > LSI_TIMEOUT_VALUE)
 8003f62:	f7ff f94f 	bl	8003204 <HAL_GetTick>
 8003f66:	1b40      	subs	r0, r0, r5
 8003f68:	2802      	cmp	r0, #2
 8003f6a:	d9f5      	bls.n	8003f58 <HAL_RCC_OscConfig+0x238>
          return HAL_TIMEOUT;
 8003f6c:	2003      	movs	r0, #3
 8003f6e:	e0d2      	b.n	8004116 <HAL_RCC_OscConfig+0x3f6>
    FlagStatus       pwrclkchanged = RESET;
 8003f70:	2500      	movs	r5, #0
 8003f72:	e7d3      	b.n	8003f1c <HAL_RCC_OscConfig+0x1fc>
      SET_BIT(PWR->CR, PWR_CR_DBP);
 8003f74:	4a0b      	ldr	r2, [pc, #44]	; (8003fa4 <HAL_RCC_OscConfig+0x284>)
 8003f76:	6813      	ldr	r3, [r2, #0]
 8003f78:	f443 7380 	orr.w	r3, r3, #256	; 0x100
 8003f7c:	6013      	str	r3, [r2, #0]
      tickstart = HAL_GetTick();
 8003f7e:	f7ff f941 	bl	8003204 <HAL_GetTick>
 8003f82:	4606      	mov	r6, r0
      while (HAL_IS_BIT_CLR(PWR->CR, PWR_CR_DBP))
 8003f84:	4b07      	ldr	r3, [pc, #28]	; (8003fa4 <HAL_RCC_OscConfig+0x284>)
 8003f86:	681b      	ldr	r3, [r3, #0]
 8003f88:	f413 7f80 	tst.w	r3, #256	; 0x100
 8003f8c:	d1cb      	bne.n	8003f26 <HAL_RCC_OscConfig+0x206>
        if ((HAL_GetTick() - tickstart) > RCC_DBP_TIMEOUT_VALUE)
 8003f8e:	f7ff f939 	bl	8003204 <HAL_GetTick>
 8003f92:	1b80      	subs	r0, r0, r6
 8003f94:	2864      	cmp	r0, #100	; 0x64
 8003f96:	d9f5      	bls.n	8003f84 <HAL_RCC_OscConfig+0x264>
          return HAL_TIMEOUT;
 8003f98:	2003      	movs	r0, #3
 8003f9a:	e0bc      	b.n	8004116 <HAL_RCC_OscConfig+0x3f6>
 8003f9c:	40021000 	.word	0x40021000
 8003fa0:	42420000 	.word	0x42420000
 8003fa4:	40007000 	.word	0x40007000
    __HAL_RCC_LSE_CONFIG(RCC_OscInitStruct->LSEState);
 8003fa8:	4a5f      	ldr	r2, [pc, #380]	; (8004128 <HAL_RCC_OscConfig+0x408>)
 8003faa:	6a13      	ldr	r3, [r2, #32]
 8003fac:	f043 0301 	orr.w	r3, r3, #1
 8003fb0:	6213      	str	r3, [r2, #32]
    if (RCC_OscInitStruct->LSEState != RCC_LSE_OFF)
 8003fb2:	68e3      	ldr	r3, [r4, #12]
 8003fb4:	b333      	cbz	r3, 8004004 <HAL_RCC_OscConfig+0x2e4>
      tickstart = HAL_GetTick();
 8003fb6:	f7ff f925 	bl	8003204 <HAL_GetTick>
 8003fba:	4606      	mov	r6, r0
      while (__HAL_RCC_GET_FLAG(RCC_FLAG_LSERDY) == RESET)
 8003fbc:	4b5a      	ldr	r3, [pc, #360]	; (8004128 <HAL_RCC_OscConfig+0x408>)
 8003fbe:	6a1b      	ldr	r3, [r3, #32]
 8003fc0:	f013 0f02 	tst.w	r3, #2
 8003fc4:	d12f      	bne.n	8004026 <HAL_RCC_OscConfig+0x306>
        if ((HAL_GetTick() - tickstart) > RCC_LSE_TIMEOUT_VALUE)
 8003fc6:	f7ff f91d 	bl	8003204 <HAL_GetTick>
 8003fca:	1b80      	subs	r0, r0, r6
 8003fcc:	f241 3388 	movw	r3, #5000	; 0x1388
 8003fd0:	4298      	cmp	r0, r3
 8003fd2:	d9f3      	bls.n	8003fbc <HAL_RCC_OscConfig+0x29c>
          return HAL_TIMEOUT;
 8003fd4:	2003      	movs	r0, #3
 8003fd6:	e09e      	b.n	8004116 <HAL_RCC_OscConfig+0x3f6>
    __HAL_RCC_LSE_CONFIG(RCC_OscInitStruct->LSEState);
 8003fd8:	2b05      	cmp	r3, #5
 8003fda:	d009      	beq.n	8003ff0 <HAL_RCC_OscConfig+0x2d0>
 8003fdc:	4b52      	ldr	r3, [pc, #328]	; (8004128 <HAL_RCC_OscConfig+0x408>)
 8003fde:	6a1a      	ldr	r2, [r3, #32]
 8003fe0:	f022 0201 	bic.w	r2, r2, #1
 8003fe4:	621a      	str	r2, [r3, #32]
 8003fe6:	6a1a      	ldr	r2, [r3, #32]
 8003fe8:	f022 0204 	bic.w	r2, r2, #4
 8003fec:	621a      	str	r2, [r3, #32]
 8003fee:	e7e0      	b.n	8003fb2 <HAL_RCC_OscConfig+0x292>
 8003ff0:	4b4d      	ldr	r3, [pc, #308]	; (8004128 <HAL_RCC_OscConfig+0x408>)
 8003ff2:	6a1a      	ldr	r2, [r3, #32]
 8003ff4:	f042 0204 	orr.w	r2, r2, #4
 8003ff8:	621a      	str	r2, [r3, #32]
 8003ffa:	6a1a      	ldr	r2, [r3, #32]
 8003ffc:	f042 0201 	orr.w	r2, r2, #1
 8004000:	621a      	str	r2, [r3, #32]
 8004002:	e7d6      	b.n	8003fb2 <HAL_RCC_OscConfig+0x292>
      tickstart = HAL_GetTick();
 8004004:	f7ff f8fe 	bl	8003204 <HAL_GetTick>
 8004008:	4606      	mov	r6, r0
      while (__HAL_RCC_GET_FLAG(RCC_FLAG_LSERDY) != RESET)
 800400a:	4b47      	ldr	r3, [pc, #284]	; (8004128 <HAL_RCC_OscConfig+0x408>)
 800400c:	6a1b      	ldr	r3, [r3, #32]
 800400e:	f013 0f02 	tst.w	r3, #2
 8004012:	d008      	beq.n	8004026 <HAL_RCC_OscConfig+0x306>
        if ((HAL_GetTick() - tickstart) > RCC_LSE_TIMEOUT_VALUE)
 8004014:	f7ff f8f6 	bl	8003204 <HAL_GetTick>
 8004018:	1b80      	subs	r0, r0, r6
 800401a:	f241 3388 	movw	r3, #5000	; 0x1388
 800401e:	4298      	cmp	r0, r3
 8004020:	d9f3      	bls.n	800400a <HAL_RCC_OscConfig+0x2ea>
          return HAL_TIMEOUT;
 8004022:	2003      	movs	r0, #3
 8004024:	e077      	b.n	8004116 <HAL_RCC_OscConfig+0x3f6>
    if (pwrclkchanged == SET)
 8004026:	b9e5      	cbnz	r5, 8004062 <HAL_RCC_OscConfig+0x342>
  if ((RCC_OscInitStruct->PLL.PLLState) != RCC_PLL_NONE)
 8004028:	69e3      	ldr	r3, [r4, #28]
 800402a:	2b00      	cmp	r3, #0
 800402c:	d072      	beq.n	8004114 <HAL_RCC_OscConfig+0x3f4>
    if (__HAL_RCC_GET_SYSCLK_SOURCE() != RCC_SYSCLKSOURCE_STATUS_PLLCLK)
 800402e:	4a3e      	ldr	r2, [pc, #248]	; (8004128 <HAL_RCC_OscConfig+0x408>)
 8004030:	6852      	ldr	r2, [r2, #4]
 8004032:	f002 020c 	and.w	r2, r2, #12
 8004036:	2a08      	cmp	r2, #8
 8004038:	d056      	beq.n	80040e8 <HAL_RCC_OscConfig+0x3c8>
      if ((RCC_OscInitStruct->PLL.PLLState) == RCC_PLL_ON)
 800403a:	2b02      	cmp	r3, #2
 800403c:	d017      	beq.n	800406e <HAL_RCC_OscConfig+0x34e>
        __HAL_RCC_PLL_DISABLE();
 800403e:	4b3b      	ldr	r3, [pc, #236]	; (800412c <HAL_RCC_OscConfig+0x40c>)
 8004040:	2200      	movs	r2, #0
 8004042:	661a      	str	r2, [r3, #96]	; 0x60
        tickstart = HAL_GetTick();
 8004044:	f7ff f8de 	bl	8003204 <HAL_GetTick>
 8004048:	4604      	mov	r4, r0
        while (__HAL_RCC_GET_FLAG(RCC_FLAG_PLLRDY)  != RESET)
 800404a:	4b37      	ldr	r3, [pc, #220]	; (8004128 <HAL_RCC_OscConfig+0x408>)
 800404c:	681b      	ldr	r3, [r3, #0]
 800404e:	f013 7f00 	tst.w	r3, #33554432	; 0x2000000
 8004052:	d047      	beq.n	80040e4 <HAL_RCC_OscConfig+0x3c4>
          if ((HAL_GetTick() - tickstart) > PLL_TIMEOUT_VALUE)
 8004054:	f7ff f8d6 	bl	8003204 <HAL_GetTick>
 8004058:	1b00      	subs	r0, r0, r4
 800405a:	2802      	cmp	r0, #2
 800405c:	d9f5      	bls.n	800404a <HAL_RCC_OscConfig+0x32a>
            return HAL_TIMEOUT;
 800405e:	2003      	movs	r0, #3
 8004060:	e059      	b.n	8004116 <HAL_RCC_OscConfig+0x3f6>
      __HAL_RCC_PWR_CLK_DISABLE();
 8004062:	4a31      	ldr	r2, [pc, #196]	; (8004128 <HAL_RCC_OscConfig+0x408>)
 8004064:	69d3      	ldr	r3, [r2, #28]
 8004066:	f023 5380 	bic.w	r3, r3, #268435456	; 0x10000000
 800406a:	61d3      	str	r3, [r2, #28]
 800406c:	e7dc      	b.n	8004028 <HAL_RCC_OscConfig+0x308>
        __HAL_RCC_PLL_DISABLE();
 800406e:	4b2f      	ldr	r3, [pc, #188]	; (800412c <HAL_RCC_OscConfig+0x40c>)
 8004070:	2200      	movs	r2, #0
 8004072:	661a      	str	r2, [r3, #96]	; 0x60
        tickstart = HAL_GetTick();
 8004074:	f7ff f8c6 	bl	8003204 <HAL_GetTick>
 8004078:	4605      	mov	r5, r0
        while (__HAL_RCC_GET_FLAG(RCC_FLAG_PLLRDY)  != RESET)
 800407a:	4b2b      	ldr	r3, [pc, #172]	; (8004128 <HAL_RCC_OscConfig+0x408>)
 800407c:	681b      	ldr	r3, [r3, #0]
 800407e:	f013 7f00 	tst.w	r3, #33554432	; 0x2000000
 8004082:	d006      	beq.n	8004092 <HAL_RCC_OscConfig+0x372>
          if ((HAL_GetTick() - tickstart) > PLL_TIMEOUT_VALUE)
 8004084:	f7ff f8be 	bl	8003204 <HAL_GetTick>
 8004088:	1b40      	subs	r0, r0, r5
 800408a:	2802      	cmp	r0, #2
 800408c:	d9f5      	bls.n	800407a <HAL_RCC_OscConfig+0x35a>
            return HAL_TIMEOUT;
 800408e:	2003      	movs	r0, #3
 8004090:	e041      	b.n	8004116 <HAL_RCC_OscConfig+0x3f6>
        if (RCC_OscInitStruct->PLL.PLLSource == RCC_PLLSOURCE_HSE)
 8004092:	6a23      	ldr	r3, [r4, #32]
 8004094:	f5b3 3f80 	cmp.w	r3, #65536	; 0x10000
 8004098:	d01a      	beq.n	80040d0 <HAL_RCC_OscConfig+0x3b0>
        __HAL_RCC_PLL_CONFIG(RCC_OscInitStruct->PLL.PLLSource,
 800409a:	4923      	ldr	r1, [pc, #140]	; (8004128 <HAL_RCC_OscConfig+0x408>)
 800409c:	684b      	ldr	r3, [r1, #4]
 800409e:	f423 1374 	bic.w	r3, r3, #3997696	; 0x3d0000
 80040a2:	6a22      	ldr	r2, [r4, #32]
 80040a4:	6a60      	ldr	r0, [r4, #36]	; 0x24
 80040a6:	4302      	orrs	r2, r0
 80040a8:	4313      	orrs	r3, r2
 80040aa:	604b      	str	r3, [r1, #4]
        __HAL_RCC_PLL_ENABLE();
 80040ac:	4b1f      	ldr	r3, [pc, #124]	; (800412c <HAL_RCC_OscConfig+0x40c>)
 80040ae:	2201      	movs	r2, #1
 80040b0:	661a      	str	r2, [r3, #96]	; 0x60
        tickstart = HAL_GetTick();
 80040b2:	f7ff f8a7 	bl	8003204 <HAL_GetTick>
 80040b6:	4604      	mov	r4, r0
        while (__HAL_RCC_GET_FLAG(RCC_FLAG_PLLRDY)  == RESET)
 80040b8:	4b1b      	ldr	r3, [pc, #108]	; (8004128 <HAL_RCC_OscConfig+0x408>)
 80040ba:	681b      	ldr	r3, [r3, #0]
 80040bc:	f013 7f00 	tst.w	r3, #33554432	; 0x2000000
 80040c0:	d10e      	bne.n	80040e0 <HAL_RCC_OscConfig+0x3c0>
          if ((HAL_GetTick() - tickstart) > PLL_TIMEOUT_VALUE)
 80040c2:	f7ff f89f 	bl	8003204 <HAL_GetTick>
 80040c6:	1b00      	subs	r0, r0, r4
 80040c8:	2802      	cmp	r0, #2
 80040ca:	d9f5      	bls.n	80040b8 <HAL_RCC_OscConfig+0x398>
            return HAL_TIMEOUT;
 80040cc:	2003      	movs	r0, #3
 80040ce:	e022      	b.n	8004116 <HAL_RCC_OscConfig+0x3f6>
          __HAL_RCC_HSE_PREDIV_CONFIG(RCC_OscInitStruct->HSEPredivValue);
 80040d0:	4a15      	ldr	r2, [pc, #84]	; (8004128 <HAL_RCC_OscConfig+0x408>)
 80040d2:	6853      	ldr	r3, [r2, #4]
 80040d4:	f423 3300 	bic.w	r3, r3, #131072	; 0x20000
 80040d8:	68a1      	ldr	r1, [r4, #8]
 80040da:	430b      	orrs	r3, r1
 80040dc:	6053      	str	r3, [r2, #4]
 80040de:	e7dc      	b.n	800409a <HAL_RCC_OscConfig+0x37a>
  return HAL_OK;
 80040e0:	2000      	movs	r0, #0
 80040e2:	e018      	b.n	8004116 <HAL_RCC_OscConfig+0x3f6>
 80040e4:	2000      	movs	r0, #0
 80040e6:	e016      	b.n	8004116 <HAL_RCC_OscConfig+0x3f6>
      if ((RCC_OscInitStruct->PLL.PLLState) == RCC_PLL_OFF)
 80040e8:	2b01      	cmp	r3, #1
 80040ea:	d016      	beq.n	800411a <HAL_RCC_OscConfig+0x3fa>
        pll_config = RCC->CFGR;
 80040ec:	4b0e      	ldr	r3, [pc, #56]	; (8004128 <HAL_RCC_OscConfig+0x408>)
 80040ee:	685b      	ldr	r3, [r3, #4]
        if ((READ_BIT(pll_config, RCC_CFGR_PLLSRC) != RCC_OscInitStruct->PLL.PLLSource) ||
 80040f0:	f403 3180 	and.w	r1, r3, #65536	; 0x10000
 80040f4:	6a22      	ldr	r2, [r4, #32]
 80040f6:	4291      	cmp	r1, r2
 80040f8:	d111      	bne.n	800411e <HAL_RCC_OscConfig+0x3fe>
            (READ_BIT(pll_config, RCC_CFGR_PLLMULL) != RCC_OscInitStruct->PLL.PLLMUL))
 80040fa:	f403 1370 	and.w	r3, r3, #3932160	; 0x3c0000
 80040fe:	6a62      	ldr	r2, [r4, #36]	; 0x24
        if ((READ_BIT(pll_config, RCC_CFGR_PLLSRC) != RCC_OscInitStruct->PLL.PLLSource) ||
 8004100:	4293      	cmp	r3, r2
 8004102:	d10e      	bne.n	8004122 <HAL_RCC_OscConfig+0x402>
  return HAL_OK;
 8004104:	2000      	movs	r0, #0
 8004106:	e006      	b.n	8004116 <HAL_RCC_OscConfig+0x3f6>
    return HAL_ERROR;
 8004108:	2001      	movs	r0, #1
}
 800410a:	4770      	bx	lr
        return HAL_ERROR;
 800410c:	2001      	movs	r0, #1
 800410e:	e002      	b.n	8004116 <HAL_RCC_OscConfig+0x3f6>
        return HAL_ERROR;
 8004110:	2001      	movs	r0, #1
 8004112:	e000      	b.n	8004116 <HAL_RCC_OscConfig+0x3f6>
  return HAL_OK;
 8004114:	2000      	movs	r0, #0
}
 8004116:	b002      	add	sp, #8
 8004118:	bd70      	pop	{r4, r5, r6, pc}
        return HAL_ERROR;
 800411a:	2001      	movs	r0, #1
 800411c:	e7fb      	b.n	8004116 <HAL_RCC_OscConfig+0x3f6>
          return HAL_ERROR;
 800411e:	2001      	movs	r0, #1
 8004120:	e7f9      	b.n	8004116 <HAL_RCC_OscConfig+0x3f6>
 8004122:	2001      	movs	r0, #1
 8004124:	e7f7      	b.n	8004116 <HAL_RCC_OscConfig+0x3f6>
 8004126:	bf00      	nop
 8004128:	40021000 	.word	0x40021000
 800412c:	42420000 	.word	0x42420000

08004130 <HAL_RCC_GetSysClockFreq>:
{
 8004130:	b086      	sub	sp, #24
  const uint8_t aPLLMULFactorTable[16] = {2, 3, 4, 5, 6, 7, 8, 9, 10, 11, 12, 13, 14, 15, 16, 16};
 8004132:	4b17      	ldr	r3, [pc, #92]	; (8004190 <HAL_RCC_GetSysClockFreq+0x60>)
 8004134:	cb0f      	ldmia	r3, {r0, r1, r2, r3}
 8004136:	f10d 0c18 	add.w	ip, sp, #24
 800413a:	e90c 000f 	stmdb	ip, {r0, r1, r2, r3}
  const uint8_t aPredivFactorTable[2] = {1, 2};
 800413e:	f240 2301 	movw	r3, #513	; 0x201
 8004142:	f8ad 3004 	strh.w	r3, [sp, #4]
  tmpreg = RCC->CFGR;
 8004146:	4b13      	ldr	r3, [pc, #76]	; (8004194 <HAL_RCC_GetSysClockFreq+0x64>)
 8004148:	685b      	ldr	r3, [r3, #4]
  switch (tmpreg & RCC_CFGR_SWS)
 800414a:	f003 020c 	and.w	r2, r3, #12
 800414e:	2a08      	cmp	r2, #8
 8004150:	d002      	beq.n	8004158 <HAL_RCC_GetSysClockFreq+0x28>
      sysclockfreq = HSE_VALUE;
 8004152:	4811      	ldr	r0, [pc, #68]	; (8004198 <HAL_RCC_GetSysClockFreq+0x68>)
}
 8004154:	b006      	add	sp, #24
 8004156:	4770      	bx	lr
      pllmul = aPLLMULFactorTable[(uint32_t)(tmpreg & RCC_CFGR_PLLMULL) >> RCC_CFGR_PLLMULL_Pos];
 8004158:	f3c3 4283 	ubfx	r2, r3, #18, #4
 800415c:	3218      	adds	r2, #24
 800415e:	446a      	add	r2, sp
 8004160:	f812 0c10 	ldrb.w	r0, [r2, #-16]
      if ((tmpreg & RCC_CFGR_PLLSRC) != RCC_PLLSOURCE_HSI_DIV2)
 8004164:	f413 3f80 	tst.w	r3, #65536	; 0x10000
 8004168:	d00d      	beq.n	8004186 <HAL_RCC_GetSysClockFreq+0x56>
        prediv = aPredivFactorTable[(uint32_t)(RCC->CFGR & RCC_CFGR_PLLXTPRE) >> RCC_CFGR_PLLXTPRE_Pos];
 800416a:	4b0a      	ldr	r3, [pc, #40]	; (8004194 <HAL_RCC_GetSysClockFreq+0x64>)
 800416c:	685b      	ldr	r3, [r3, #4]
 800416e:	f3c3 4340 	ubfx	r3, r3, #17, #1
 8004172:	3318      	adds	r3, #24
 8004174:	446b      	add	r3, sp
 8004176:	f813 3c14 	ldrb.w	r3, [r3, #-20]
        pllclk = (uint32_t)((HSE_VALUE  * pllmul) / prediv);
 800417a:	4a07      	ldr	r2, [pc, #28]	; (8004198 <HAL_RCC_GetSysClockFreq+0x68>)
 800417c:	fb02 f000 	mul.w	r0, r2, r0
 8004180:	fbb0 f0f3 	udiv	r0, r0, r3
 8004184:	e7e6      	b.n	8004154 <HAL_RCC_GetSysClockFreq+0x24>
        pllclk = (uint32_t)((HSI_VALUE >> 1) * pllmul);
 8004186:	4b05      	ldr	r3, [pc, #20]	; (800419c <HAL_RCC_GetSysClockFreq+0x6c>)
 8004188:	fb03 f000 	mul.w	r0, r3, r0
 800418c:	e7e2      	b.n	8004154 <HAL_RCC_GetSysClockFreq+0x24>
 800418e:	bf00      	nop
 8004190:	0800c3e8 	.word	0x0800c3e8
 8004194:	40021000 	.word	0x40021000
 8004198:	007a1200 	.word	0x007a1200
 800419c:	003d0900 	.word	0x003d0900

080041a0 <HAL_RCC_ClockConfig>:
  if (RCC_ClkInitStruct == NULL)
 80041a0:	2800      	cmp	r0, #0
 80041a2:	f000 80a0 	beq.w	80042e6 <HAL_RCC_ClockConfig+0x146>
{
 80041a6:	b570      	push	{r4, r5, r6, lr}
 80041a8:	460d      	mov	r5, r1
 80041aa:	4604      	mov	r4, r0
  if (FLatency > __HAL_FLASH_GET_LATENCY())
 80041ac:	4b52      	ldr	r3, [pc, #328]	; (80042f8 <HAL_RCC_ClockConfig+0x158>)
 80041ae:	681b      	ldr	r3, [r3, #0]
 80041b0:	f003 0307 	and.w	r3, r3, #7
 80041b4:	428b      	cmp	r3, r1
 80041b6:	d20b      	bcs.n	80041d0 <HAL_RCC_ClockConfig+0x30>
    __HAL_FLASH_SET_LATENCY(FLatency);
 80041b8:	4a4f      	ldr	r2, [pc, #316]	; (80042f8 <HAL_RCC_ClockConfig+0x158>)
 80041ba:	6813      	ldr	r3, [r2, #0]
 80041bc:	f023 0307 	bic.w	r3, r3, #7
 80041c0:	430b      	orrs	r3, r1
 80041c2:	6013      	str	r3, [r2, #0]
    if (__HAL_FLASH_GET_LATENCY() != FLatency)
 80041c4:	6813      	ldr	r3, [r2, #0]
 80041c6:	f003 0307 	and.w	r3, r3, #7
 80041ca:	428b      	cmp	r3, r1
 80041cc:	f040 808d 	bne.w	80042ea <HAL_RCC_ClockConfig+0x14a>
if (((RCC_ClkInitStruct->ClockType) & RCC_CLOCKTYPE_HCLK) == RCC_CLOCKTYPE_HCLK)
 80041d0:	6823      	ldr	r3, [r4, #0]
 80041d2:	f013 0f02 	tst.w	r3, #2
 80041d6:	d017      	beq.n	8004208 <HAL_RCC_ClockConfig+0x68>
    if (((RCC_ClkInitStruct->ClockType) & RCC_CLOCKTYPE_PCLK1) == RCC_CLOCKTYPE_PCLK1)
 80041d8:	f013 0f04 	tst.w	r3, #4
 80041dc:	d004      	beq.n	80041e8 <HAL_RCC_ClockConfig+0x48>
      MODIFY_REG(RCC->CFGR, RCC_CFGR_PPRE1, RCC_HCLK_DIV16);
 80041de:	4a47      	ldr	r2, [pc, #284]	; (80042fc <HAL_RCC_ClockConfig+0x15c>)
 80041e0:	6853      	ldr	r3, [r2, #4]
 80041e2:	f443 63e0 	orr.w	r3, r3, #1792	; 0x700
 80041e6:	6053      	str	r3, [r2, #4]
    if (((RCC_ClkInitStruct->ClockType) & RCC_CLOCKTYPE_PCLK2) == RCC_CLOCKTYPE_PCLK2)
 80041e8:	6823      	ldr	r3, [r4, #0]
 80041ea:	f013 0f08 	tst.w	r3, #8
 80041ee:	d004      	beq.n	80041fa <HAL_RCC_ClockConfig+0x5a>
      MODIFY_REG(RCC->CFGR, RCC_CFGR_PPRE2, (RCC_HCLK_DIV16 << 3));
 80041f0:	4a42      	ldr	r2, [pc, #264]	; (80042fc <HAL_RCC_ClockConfig+0x15c>)
 80041f2:	6853      	ldr	r3, [r2, #4]
 80041f4:	f443 5360 	orr.w	r3, r3, #14336	; 0x3800
 80041f8:	6053      	str	r3, [r2, #4]
    MODIFY_REG(RCC->CFGR, RCC_CFGR_HPRE, RCC_ClkInitStruct->AHBCLKDivider);
 80041fa:	4a40      	ldr	r2, [pc, #256]	; (80042fc <HAL_RCC_ClockConfig+0x15c>)
 80041fc:	6853      	ldr	r3, [r2, #4]
 80041fe:	f023 03f0 	bic.w	r3, r3, #240	; 0xf0
 8004202:	68a1      	ldr	r1, [r4, #8]
 8004204:	430b      	orrs	r3, r1
 8004206:	6053      	str	r3, [r2, #4]
  if (((RCC_ClkInitStruct->ClockType) & RCC_CLOCKTYPE_SYSCLK) == RCC_CLOCKTYPE_SYSCLK)
 8004208:	6823      	ldr	r3, [r4, #0]
 800420a:	f013 0f01 	tst.w	r3, #1
 800420e:	d031      	beq.n	8004274 <HAL_RCC_ClockConfig+0xd4>
    if (RCC_ClkInitStruct->SYSCLKSource == RCC_SYSCLKSOURCE_HSE)
 8004210:	6863      	ldr	r3, [r4, #4]
 8004212:	2b01      	cmp	r3, #1
 8004214:	d020      	beq.n	8004258 <HAL_RCC_ClockConfig+0xb8>
    else if (RCC_ClkInitStruct->SYSCLKSource == RCC_SYSCLKSOURCE_PLLCLK)
 8004216:	2b02      	cmp	r3, #2
 8004218:	d025      	beq.n	8004266 <HAL_RCC_ClockConfig+0xc6>
      if (__HAL_RCC_GET_FLAG(RCC_FLAG_HSIRDY) == RESET)
 800421a:	4a38      	ldr	r2, [pc, #224]	; (80042fc <HAL_RCC_ClockConfig+0x15c>)
 800421c:	6812      	ldr	r2, [r2, #0]
 800421e:	f012 0f02 	tst.w	r2, #2
 8004222:	d064      	beq.n	80042ee <HAL_RCC_ClockConfig+0x14e>
    __HAL_RCC_SYSCLK_CONFIG(RCC_ClkInitStruct->SYSCLKSource);
 8004224:	4935      	ldr	r1, [pc, #212]	; (80042fc <HAL_RCC_ClockConfig+0x15c>)
 8004226:	684a      	ldr	r2, [r1, #4]
 8004228:	f022 0203 	bic.w	r2, r2, #3
 800422c:	4313      	orrs	r3, r2
 800422e:	604b      	str	r3, [r1, #4]
    tickstart = HAL_GetTick();
 8004230:	f7fe ffe8 	bl	8003204 <HAL_GetTick>
 8004234:	4606      	mov	r6, r0
    while (__HAL_RCC_GET_SYSCLK_SOURCE() != (RCC_ClkInitStruct->SYSCLKSource << RCC_CFGR_SWS_Pos))
 8004236:	4b31      	ldr	r3, [pc, #196]	; (80042fc <HAL_RCC_ClockConfig+0x15c>)
 8004238:	685b      	ldr	r3, [r3, #4]
 800423a:	f003 030c 	and.w	r3, r3, #12
 800423e:	6862      	ldr	r2, [r4, #4]
 8004240:	ebb3 0f82 	cmp.w	r3, r2, lsl #2
 8004244:	d016      	beq.n	8004274 <HAL_RCC_ClockConfig+0xd4>
      if ((HAL_GetTick() - tickstart) > CLOCKSWITCH_TIMEOUT_VALUE)
 8004246:	f7fe ffdd 	bl	8003204 <HAL_GetTick>
 800424a:	1b80      	subs	r0, r0, r6
 800424c:	f241 3388 	movw	r3, #5000	; 0x1388
 8004250:	4298      	cmp	r0, r3
 8004252:	d9f0      	bls.n	8004236 <HAL_RCC_ClockConfig+0x96>
        return HAL_TIMEOUT;
 8004254:	2003      	movs	r0, #3
 8004256:	e045      	b.n	80042e4 <HAL_RCC_ClockConfig+0x144>
      if (__HAL_RCC_GET_FLAG(RCC_FLAG_HSERDY) == RESET)
 8004258:	4a28      	ldr	r2, [pc, #160]	; (80042fc <HAL_RCC_ClockConfig+0x15c>)
 800425a:	6812      	ldr	r2, [r2, #0]
 800425c:	f412 3f00 	tst.w	r2, #131072	; 0x20000
 8004260:	d1e0      	bne.n	8004224 <HAL_RCC_ClockConfig+0x84>
        return HAL_ERROR;
 8004262:	2001      	movs	r0, #1
 8004264:	e03e      	b.n	80042e4 <HAL_RCC_ClockConfig+0x144>
      if (__HAL_RCC_GET_FLAG(RCC_FLAG_PLLRDY) == RESET)
 8004266:	4a25      	ldr	r2, [pc, #148]	; (80042fc <HAL_RCC_ClockConfig+0x15c>)
 8004268:	6812      	ldr	r2, [r2, #0]
 800426a:	f012 7f00 	tst.w	r2, #33554432	; 0x2000000
 800426e:	d1d9      	bne.n	8004224 <HAL_RCC_ClockConfig+0x84>
        return HAL_ERROR;
 8004270:	2001      	movs	r0, #1
 8004272:	e037      	b.n	80042e4 <HAL_RCC_ClockConfig+0x144>
  if (FLatency < __HAL_FLASH_GET_LATENCY())
 8004274:	4b20      	ldr	r3, [pc, #128]	; (80042f8 <HAL_RCC_ClockConfig+0x158>)
 8004276:	681b      	ldr	r3, [r3, #0]
 8004278:	f003 0307 	and.w	r3, r3, #7
 800427c:	42ab      	cmp	r3, r5
 800427e:	d90a      	bls.n	8004296 <HAL_RCC_ClockConfig+0xf6>
    __HAL_FLASH_SET_LATENCY(FLatency);
 8004280:	4a1d      	ldr	r2, [pc, #116]	; (80042f8 <HAL_RCC_ClockConfig+0x158>)
 8004282:	6813      	ldr	r3, [r2, #0]
 8004284:	f023 0307 	bic.w	r3, r3, #7
 8004288:	432b      	orrs	r3, r5
 800428a:	6013      	str	r3, [r2, #0]
    if (__HAL_FLASH_GET_LATENCY() != FLatency)
 800428c:	6813      	ldr	r3, [r2, #0]
 800428e:	f003 0307 	and.w	r3, r3, #7
 8004292:	42ab      	cmp	r3, r5
 8004294:	d12d      	bne.n	80042f2 <HAL_RCC_ClockConfig+0x152>
if (((RCC_ClkInitStruct->ClockType) & RCC_CLOCKTYPE_PCLK1) == RCC_CLOCKTYPE_PCLK1)
 8004296:	6823      	ldr	r3, [r4, #0]
 8004298:	f013 0f04 	tst.w	r3, #4
 800429c:	d006      	beq.n	80042ac <HAL_RCC_ClockConfig+0x10c>
    MODIFY_REG(RCC->CFGR, RCC_CFGR_PPRE1, RCC_ClkInitStruct->APB1CLKDivider);
 800429e:	4a17      	ldr	r2, [pc, #92]	; (80042fc <HAL_RCC_ClockConfig+0x15c>)
 80042a0:	6853      	ldr	r3, [r2, #4]
 80042a2:	f423 63e0 	bic.w	r3, r3, #1792	; 0x700
 80042a6:	68e1      	ldr	r1, [r4, #12]
 80042a8:	430b      	orrs	r3, r1
 80042aa:	6053      	str	r3, [r2, #4]
  if (((RCC_ClkInitStruct->ClockType) & RCC_CLOCKTYPE_PCLK2) == RCC_CLOCKTYPE_PCLK2)
 80042ac:	6823      	ldr	r3, [r4, #0]
 80042ae:	f013 0f08 	tst.w	r3, #8
 80042b2:	d007      	beq.n	80042c4 <HAL_RCC_ClockConfig+0x124>
    MODIFY_REG(RCC->CFGR, RCC_CFGR_PPRE2, ((RCC_ClkInitStruct->APB2CLKDivider) << 3));
 80042b4:	4a11      	ldr	r2, [pc, #68]	; (80042fc <HAL_RCC_ClockConfig+0x15c>)
 80042b6:	6853      	ldr	r3, [r2, #4]
 80042b8:	f423 5360 	bic.w	r3, r3, #14336	; 0x3800
 80042bc:	6921      	ldr	r1, [r4, #16]
 80042be:	ea43 03c1 	orr.w	r3, r3, r1, lsl #3
 80042c2:	6053      	str	r3, [r2, #4]
  SystemCoreClock = HAL_RCC_GetSysClockFreq() >> AHBPrescTable[(RCC->CFGR & RCC_CFGR_HPRE) >> RCC_CFGR_HPRE_Pos];
 80042c4:	f7ff ff34 	bl	8004130 <HAL_RCC_GetSysClockFreq>
 80042c8:	4b0c      	ldr	r3, [pc, #48]	; (80042fc <HAL_RCC_ClockConfig+0x15c>)
 80042ca:	685b      	ldr	r3, [r3, #4]
 80042cc:	f3c3 1303 	ubfx	r3, r3, #4, #4
 80042d0:	4a0b      	ldr	r2, [pc, #44]	; (8004300 <HAL_RCC_ClockConfig+0x160>)
 80042d2:	5cd3      	ldrb	r3, [r2, r3]
 80042d4:	40d8      	lsrs	r0, r3
 80042d6:	4b0b      	ldr	r3, [pc, #44]	; (8004304 <HAL_RCC_ClockConfig+0x164>)
 80042d8:	6018      	str	r0, [r3, #0]
  HAL_InitTick(uwTickPrio);
 80042da:	4b0b      	ldr	r3, [pc, #44]	; (8004308 <HAL_RCC_ClockConfig+0x168>)
 80042dc:	6818      	ldr	r0, [r3, #0]
 80042de:	f7fe ff4d 	bl	800317c <HAL_InitTick>
  return HAL_OK;
 80042e2:	2000      	movs	r0, #0
}
 80042e4:	bd70      	pop	{r4, r5, r6, pc}
    return HAL_ERROR;
 80042e6:	2001      	movs	r0, #1
}
 80042e8:	4770      	bx	lr
    return HAL_ERROR;
 80042ea:	2001      	movs	r0, #1
 80042ec:	e7fa      	b.n	80042e4 <HAL_RCC_ClockConfig+0x144>
        return HAL_ERROR;
 80042ee:	2001      	movs	r0, #1
 80042f0:	e7f8      	b.n	80042e4 <HAL_RCC_ClockConfig+0x144>
    return HAL_ERROR;
 80042f2:	2001      	movs	r0, #1
 80042f4:	e7f6      	b.n	80042e4 <HAL_RCC_ClockConfig+0x144>
 80042f6:	bf00      	nop
 80042f8:	40022000 	.word	0x40022000
 80042fc:	40021000 	.word	0x40021000
 8004300:	0800b2bc 	.word	0x0800b2bc
 8004304:	20000010 	.word	0x20000010
 8004308:	20000030 	.word	0x20000030

0800430c <HAL_RCC_GetHCLKFreq>:
}
 800430c:	4b01      	ldr	r3, [pc, #4]	; (8004314 <HAL_RCC_GetHCLKFreq+0x8>)
 800430e:	6818      	ldr	r0, [r3, #0]
 8004310:	4770      	bx	lr
 8004312:	bf00      	nop
 8004314:	20000010 	.word	0x20000010

08004318 <HAL_RCC_GetPCLK1Freq>:
{
 8004318:	b508      	push	{r3, lr}
  return (HAL_RCC_GetHCLKFreq() >> APBPrescTable[(RCC->CFGR & RCC_CFGR_PPRE1) >> RCC_CFGR_PPRE1_Pos]);
 800431a:	f7ff fff7 	bl	800430c <HAL_RCC_GetHCLKFreq>
 800431e:	4b04      	ldr	r3, [pc, #16]	; (8004330 <HAL_RCC_GetPCLK1Freq+0x18>)
 8004320:	685b      	ldr	r3, [r3, #4]
 8004322:	f3c3 2302 	ubfx	r3, r3, #8, #3
 8004326:	4a03      	ldr	r2, [pc, #12]	; (8004334 <HAL_RCC_GetPCLK1Freq+0x1c>)
 8004328:	5cd3      	ldrb	r3, [r2, r3]
}
 800432a:	40d8      	lsrs	r0, r3
 800432c:	bd08      	pop	{r3, pc}
 800432e:	bf00      	nop
 8004330:	40021000 	.word	0x40021000
 8004334:	0800b2cc 	.word	0x0800b2cc

08004338 <HAL_RCC_GetPCLK2Freq>:
{
 8004338:	b508      	push	{r3, lr}
  return (HAL_RCC_GetHCLKFreq() >> APBPrescTable[(RCC->CFGR & RCC_CFGR_PPRE2) >> RCC_CFGR_PPRE2_Pos]);
 800433a:	f7ff ffe7 	bl	800430c <HAL_RCC_GetHCLKFreq>
 800433e:	4b04      	ldr	r3, [pc, #16]	; (8004350 <HAL_RCC_GetPCLK2Freq+0x18>)
 8004340:	685b      	ldr	r3, [r3, #4]
 8004342:	f3c3 23c2 	ubfx	r3, r3, #11, #3
 8004346:	4a03      	ldr	r2, [pc, #12]	; (8004354 <HAL_RCC_GetPCLK2Freq+0x1c>)
 8004348:	5cd3      	ldrb	r3, [r2, r3]
}
 800434a:	40d8      	lsrs	r0, r3
 800434c:	bd08      	pop	{r3, pc}
 800434e:	bf00      	nop
 8004350:	40021000 	.word	0x40021000
 8004354:	0800b2cc 	.word	0x0800b2cc

08004358 <SPI_WaitFlagStateUntilTimeout>:
  * @param Timeout: Timeout duration
  * @param Tickstart: tick start value
  * @retval HAL status
  */
static HAL_StatusTypeDef SPI_WaitFlagStateUntilTimeout(SPI_HandleTypeDef *hspi, uint32_t Flag, uint32_t State, uint32_t Timeout, uint32_t Tickstart)
{
 8004358:	e92d 41f0 	stmdb	sp!, {r4, r5, r6, r7, r8, lr}
 800435c:	4606      	mov	r6, r0
 800435e:	4688      	mov	r8, r1
 8004360:	4617      	mov	r7, r2
 8004362:	461d      	mov	r5, r3
  while((((hspi->Instance->SR & Flag) == (Flag)) ? SET : RESET) != State)
 8004364:	e03b      	b.n	80043de <SPI_WaitFlagStateUntilTimeout+0x86>
  {
    if(Timeout != HAL_MAX_DELAY)
    {
      if((Timeout == 0U) || ((HAL_GetTick()-Tickstart) >= Timeout))
 8004366:	b12d      	cbz	r5, 8004374 <SPI_WaitFlagStateUntilTimeout+0x1c>
 8004368:	f7fe ff4c 	bl	8003204 <HAL_GetTick>
 800436c:	9b06      	ldr	r3, [sp, #24]
 800436e:	1ac0      	subs	r0, r0, r3
 8004370:	42a8      	cmp	r0, r5
 8004372:	d334      	bcc.n	80043de <SPI_WaitFlagStateUntilTimeout+0x86>
        /* Disable the SPI and reset the CRC: the CRC value should be cleared
        on both master and slave sides in order to resynchronize the master
        and slave for their respective CRC calculation */

        /* Disable TXE, RXNE and ERR interrupts for the interrupt process */
        __HAL_SPI_DISABLE_IT(hspi, (SPI_IT_TXE | SPI_IT_RXNE | SPI_IT_ERR));
 8004374:	6832      	ldr	r2, [r6, #0]
 8004376:	6853      	ldr	r3, [r2, #4]
 8004378:	f023 03e0 	bic.w	r3, r3, #224	; 0xe0
 800437c:	6053      	str	r3, [r2, #4]

        if((hspi->Init.Mode == SPI_MODE_MASTER)&&((hspi->Init.Direction == SPI_DIRECTION_1LINE)||(hspi->Init.Direction == SPI_DIRECTION_2LINES_RXONLY)))
 800437e:	6873      	ldr	r3, [r6, #4]
 8004380:	f5b3 7f82 	cmp.w	r3, #260	; 0x104
 8004384:	d00b      	beq.n	800439e <SPI_WaitFlagStateUntilTimeout+0x46>
          /* Disable SPI peripheral */
          __HAL_SPI_DISABLE(hspi);
        }

        /* Reset CRC Calculation */
        if(hspi->Init.CRCCalculation == SPI_CRCCALCULATION_ENABLE)
 8004386:	6ab3      	ldr	r3, [r6, #40]	; 0x28
 8004388:	f5b3 5f00 	cmp.w	r3, #8192	; 0x2000
 800438c:	d014      	beq.n	80043b8 <SPI_WaitFlagStateUntilTimeout+0x60>
        {
          SPI_RESET_CRC(hspi);
        }

        hspi->State= HAL_SPI_STATE_READY;
 800438e:	2301      	movs	r3, #1
 8004390:	f886 3051 	strb.w	r3, [r6, #81]	; 0x51

        /* Process Unlocked */
        __HAL_UNLOCK(hspi);
 8004394:	2300      	movs	r3, #0
 8004396:	f886 3050 	strb.w	r3, [r6, #80]	; 0x50

        return HAL_TIMEOUT;
 800439a:	2003      	movs	r0, #3
 800439c:	e027      	b.n	80043ee <SPI_WaitFlagStateUntilTimeout+0x96>
        if((hspi->Init.Mode == SPI_MODE_MASTER)&&((hspi->Init.Direction == SPI_DIRECTION_1LINE)||(hspi->Init.Direction == SPI_DIRECTION_2LINES_RXONLY)))
 800439e:	68b3      	ldr	r3, [r6, #8]
 80043a0:	f5b3 4f00 	cmp.w	r3, #32768	; 0x8000
 80043a4:	d002      	beq.n	80043ac <SPI_WaitFlagStateUntilTimeout+0x54>
 80043a6:	f5b3 6f80 	cmp.w	r3, #1024	; 0x400
 80043aa:	d1ec      	bne.n	8004386 <SPI_WaitFlagStateUntilTimeout+0x2e>
          __HAL_SPI_DISABLE(hspi);
 80043ac:	6832      	ldr	r2, [r6, #0]
 80043ae:	6813      	ldr	r3, [r2, #0]
 80043b0:	f023 0340 	bic.w	r3, r3, #64	; 0x40
 80043b4:	6013      	str	r3, [r2, #0]
 80043b6:	e7e6      	b.n	8004386 <SPI_WaitFlagStateUntilTimeout+0x2e>
          SPI_RESET_CRC(hspi);
 80043b8:	6832      	ldr	r2, [r6, #0]
 80043ba:	6813      	ldr	r3, [r2, #0]
 80043bc:	f423 5300 	bic.w	r3, r3, #8192	; 0x2000
 80043c0:	041b      	lsls	r3, r3, #16
 80043c2:	0c1b      	lsrs	r3, r3, #16
 80043c4:	6013      	str	r3, [r2, #0]
 80043c6:	6832      	ldr	r2, [r6, #0]
 80043c8:	6813      	ldr	r3, [r2, #0]
 80043ca:	f443 5300 	orr.w	r3, r3, #8192	; 0x2000
 80043ce:	6013      	str	r3, [r2, #0]
 80043d0:	e7dd      	b.n	800438e <SPI_WaitFlagStateUntilTimeout+0x36>
  while((((hspi->Instance->SR & Flag) == (Flag)) ? SET : RESET) != State)
 80043d2:	2401      	movs	r4, #1
 80043d4:	42bc      	cmp	r4, r7
 80043d6:	d009      	beq.n	80043ec <SPI_WaitFlagStateUntilTimeout+0x94>
    if(Timeout != HAL_MAX_DELAY)
 80043d8:	f1b5 3fff 	cmp.w	r5, #4294967295	; 0xffffffff
 80043dc:	d1c3      	bne.n	8004366 <SPI_WaitFlagStateUntilTimeout+0xe>
  while((((hspi->Instance->SR & Flag) == (Flag)) ? SET : RESET) != State)
 80043de:	6834      	ldr	r4, [r6, #0]
 80043e0:	68a4      	ldr	r4, [r4, #8]
 80043e2:	ea38 0404 	bics.w	r4, r8, r4
 80043e6:	d0f4      	beq.n	80043d2 <SPI_WaitFlagStateUntilTimeout+0x7a>
 80043e8:	2400      	movs	r4, #0
 80043ea:	e7f3      	b.n	80043d4 <SPI_WaitFlagStateUntilTimeout+0x7c>
      }
    }
  }

  return HAL_OK;
 80043ec:	2000      	movs	r0, #0
}
 80043ee:	e8bd 81f0 	ldmia.w	sp!, {r4, r5, r6, r7, r8, pc}

080043f2 <SPI_CheckFlag_BSY>:
  * @param Timeout: Timeout duration
  * @param Tickstart: tick start value
  * @retval HAL status
  */
static HAL_StatusTypeDef SPI_CheckFlag_BSY(SPI_HandleTypeDef *hspi, uint32_t Timeout, uint32_t Tickstart)
{
 80043f2:	b510      	push	{r4, lr}
 80043f4:	b082      	sub	sp, #8
 80043f6:	4604      	mov	r4, r0
 80043f8:	460b      	mov	r3, r1
  /* Control the BSY flag */
  if(SPI_WaitFlagStateUntilTimeout(hspi, SPI_FLAG_BSY, RESET, Timeout, Tickstart) != HAL_OK)
 80043fa:	9200      	str	r2, [sp, #0]
 80043fc:	2200      	movs	r2, #0
 80043fe:	2180      	movs	r1, #128	; 0x80
 8004400:	f7ff ffaa 	bl	8004358 <SPI_WaitFlagStateUntilTimeout>
 8004404:	b908      	cbnz	r0, 800440a <SPI_CheckFlag_BSY+0x18>
  {
    SET_BIT(hspi->ErrorCode, HAL_SPI_ERROR_FLAG);
    return HAL_TIMEOUT;
  }
  return HAL_OK;
}
 8004406:	b002      	add	sp, #8
 8004408:	bd10      	pop	{r4, pc}
    SET_BIT(hspi->ErrorCode, HAL_SPI_ERROR_FLAG);
 800440a:	6d63      	ldr	r3, [r4, #84]	; 0x54
 800440c:	f043 0320 	orr.w	r3, r3, #32
 8004410:	6563      	str	r3, [r4, #84]	; 0x54
    return HAL_TIMEOUT;
 8004412:	2003      	movs	r0, #3
 8004414:	e7f7      	b.n	8004406 <SPI_CheckFlag_BSY+0x14>

08004416 <HAL_SPI_MspInit>:
}
 8004416:	4770      	bx	lr

08004418 <HAL_SPI_Transmit>:
{
 8004418:	e92d 43f0 	stmdb	sp!, {r4, r5, r6, r7, r8, r9, lr}
 800441c:	b085      	sub	sp, #20
 800441e:	461d      	mov	r5, r3
  __HAL_LOCK(hspi);
 8004420:	f890 3050 	ldrb.w	r3, [r0, #80]	; 0x50
 8004424:	2b01      	cmp	r3, #1
 8004426:	f000 80e4 	beq.w	80045f2 <HAL_SPI_Transmit+0x1da>
 800442a:	4604      	mov	r4, r0
 800442c:	460e      	mov	r6, r1
 800442e:	4691      	mov	r9, r2
 8004430:	2301      	movs	r3, #1
 8004432:	f880 3050 	strb.w	r3, [r0, #80]	; 0x50
  tickstart = HAL_GetTick();
 8004436:	f7fe fee5 	bl	8003204 <HAL_GetTick>
 800443a:	4680      	mov	r8, r0
  if(hspi->State != HAL_SPI_STATE_READY)
 800443c:	f894 7051 	ldrb.w	r7, [r4, #81]	; 0x51
 8004440:	b2ff      	uxtb	r7, r7
 8004442:	2f01      	cmp	r7, #1
 8004444:	f040 80ca 	bne.w	80045dc <HAL_SPI_Transmit+0x1c4>
  if((pData == NULL ) || (Size == 0U))
 8004448:	2e00      	cmp	r6, #0
 800444a:	f000 80c8 	beq.w	80045de <HAL_SPI_Transmit+0x1c6>
 800444e:	f1b9 0f00 	cmp.w	r9, #0
 8004452:	f000 80c4 	beq.w	80045de <HAL_SPI_Transmit+0x1c6>
  hspi->State       = HAL_SPI_STATE_BUSY_TX;
 8004456:	2303      	movs	r3, #3
 8004458:	f884 3051 	strb.w	r3, [r4, #81]	; 0x51
  hspi->ErrorCode   = HAL_SPI_ERROR_NONE;
 800445c:	2300      	movs	r3, #0
 800445e:	6563      	str	r3, [r4, #84]	; 0x54
  hspi->pTxBuffPtr  = (uint8_t *)pData;
 8004460:	6326      	str	r6, [r4, #48]	; 0x30
  hspi->TxXferSize  = Size;
 8004462:	f8a4 9034 	strh.w	r9, [r4, #52]	; 0x34
  hspi->TxXferCount = Size;
 8004466:	f8a4 9036 	strh.w	r9, [r4, #54]	; 0x36
  hspi->pRxBuffPtr  = (uint8_t *)NULL;
 800446a:	63a3      	str	r3, [r4, #56]	; 0x38
  hspi->RxXferSize  = 0U;
 800446c:	87a3      	strh	r3, [r4, #60]	; 0x3c
  hspi->RxXferCount = 0U;
 800446e:	87e3      	strh	r3, [r4, #62]	; 0x3e
  hspi->TxISR       = NULL;
 8004470:	6463      	str	r3, [r4, #68]	; 0x44
  hspi->RxISR       = NULL;
 8004472:	6423      	str	r3, [r4, #64]	; 0x40
  if(hspi->Init.Direction == SPI_DIRECTION_1LINE)
 8004474:	68a3      	ldr	r3, [r4, #8]
 8004476:	f5b3 4f00 	cmp.w	r3, #32768	; 0x8000
 800447a:	d020      	beq.n	80044be <HAL_SPI_Transmit+0xa6>
  if(hspi->Init.CRCCalculation == SPI_CRCCALCULATION_ENABLE)
 800447c:	6aa3      	ldr	r3, [r4, #40]	; 0x28
 800447e:	f5b3 5f00 	cmp.w	r3, #8192	; 0x2000
 8004482:	d022      	beq.n	80044ca <HAL_SPI_Transmit+0xb2>
  if((hspi->Instance->CR1 & SPI_CR1_SPE) != SPI_CR1_SPE)
 8004484:	6823      	ldr	r3, [r4, #0]
 8004486:	681a      	ldr	r2, [r3, #0]
 8004488:	f012 0f40 	tst.w	r2, #64	; 0x40
 800448c:	d103      	bne.n	8004496 <HAL_SPI_Transmit+0x7e>
    __HAL_SPI_ENABLE(hspi);
 800448e:	681a      	ldr	r2, [r3, #0]
 8004490:	f042 0240 	orr.w	r2, r2, #64	; 0x40
 8004494:	601a      	str	r2, [r3, #0]
  if(hspi->Init.DataSize == SPI_DATASIZE_16BIT)
 8004496:	68e3      	ldr	r3, [r4, #12]
 8004498:	f5b3 6f00 	cmp.w	r3, #2048	; 0x800
 800449c:	d022      	beq.n	80044e4 <HAL_SPI_Transmit+0xcc>
    if((hspi->Init.Mode == SPI_MODE_SLAVE)|| (hspi->TxXferCount == 0x01))
 800449e:	6863      	ldr	r3, [r4, #4]
 80044a0:	b11b      	cbz	r3, 80044aa <HAL_SPI_Transmit+0x92>
 80044a2:	8ee3      	ldrh	r3, [r4, #54]	; 0x36
 80044a4:	b29b      	uxth	r3, r3
 80044a6:	2b01      	cmp	r3, #1
 80044a8:	d14e      	bne.n	8004548 <HAL_SPI_Transmit+0x130>
      *((__IO uint8_t*)&hspi->Instance->DR) = (*pData);
 80044aa:	6823      	ldr	r3, [r4, #0]
 80044ac:	f816 2b01 	ldrb.w	r2, [r6], #1
 80044b0:	731a      	strb	r2, [r3, #12]
      hspi->TxXferCount--;
 80044b2:	8ee3      	ldrh	r3, [r4, #54]	; 0x36
 80044b4:	b29b      	uxth	r3, r3
 80044b6:	3b01      	subs	r3, #1
 80044b8:	b29b      	uxth	r3, r3
 80044ba:	86e3      	strh	r3, [r4, #54]	; 0x36
 80044bc:	e044      	b.n	8004548 <HAL_SPI_Transmit+0x130>
    SPI_1LINE_TX(hspi);
 80044be:	6822      	ldr	r2, [r4, #0]
 80044c0:	6813      	ldr	r3, [r2, #0]
 80044c2:	f443 4380 	orr.w	r3, r3, #16384	; 0x4000
 80044c6:	6013      	str	r3, [r2, #0]
 80044c8:	e7d8      	b.n	800447c <HAL_SPI_Transmit+0x64>
    SPI_RESET_CRC(hspi);
 80044ca:	6822      	ldr	r2, [r4, #0]
 80044cc:	6813      	ldr	r3, [r2, #0]
 80044ce:	f423 5300 	bic.w	r3, r3, #8192	; 0x2000
 80044d2:	041b      	lsls	r3, r3, #16
 80044d4:	0c1b      	lsrs	r3, r3, #16
 80044d6:	6013      	str	r3, [r2, #0]
 80044d8:	6822      	ldr	r2, [r4, #0]
 80044da:	6813      	ldr	r3, [r2, #0]
 80044dc:	f443 5300 	orr.w	r3, r3, #8192	; 0x2000
 80044e0:	6013      	str	r3, [r2, #0]
 80044e2:	e7cf      	b.n	8004484 <HAL_SPI_Transmit+0x6c>
    if((hspi->Init.Mode == SPI_MODE_SLAVE) || (hspi->TxXferCount == 0x01))
 80044e4:	6863      	ldr	r3, [r4, #4]
 80044e6:	b11b      	cbz	r3, 80044f0 <HAL_SPI_Transmit+0xd8>
 80044e8:	8ee3      	ldrh	r3, [r4, #54]	; 0x36
 80044ea:	b29b      	uxth	r3, r3
 80044ec:	2b01      	cmp	r3, #1
 80044ee:	d10d      	bne.n	800450c <HAL_SPI_Transmit+0xf4>
      hspi->Instance->DR = *((uint16_t *)pData);
 80044f0:	6823      	ldr	r3, [r4, #0]
 80044f2:	f836 2b02 	ldrh.w	r2, [r6], #2
 80044f6:	60da      	str	r2, [r3, #12]
      hspi->TxXferCount--;
 80044f8:	8ee3      	ldrh	r3, [r4, #54]	; 0x36
 80044fa:	b29b      	uxth	r3, r3
 80044fc:	3b01      	subs	r3, #1
 80044fe:	b29b      	uxth	r3, r3
 8004500:	86e3      	strh	r3, [r4, #54]	; 0x36
 8004502:	e003      	b.n	800450c <HAL_SPI_Transmit+0xf4>
        if((Timeout == 0U) || ((Timeout != HAL_MAX_DELAY) && ((HAL_GetTick()-tickstart) >=  Timeout)))
 8004504:	b1d5      	cbz	r5, 800453c <HAL_SPI_Transmit+0x124>
 8004506:	f1b5 3fff 	cmp.w	r5, #4294967295	; 0xffffffff
 800450a:	d111      	bne.n	8004530 <HAL_SPI_Transmit+0x118>
    while (hspi->TxXferCount > 0U)
 800450c:	8ee3      	ldrh	r3, [r4, #54]	; 0x36
 800450e:	b29b      	uxth	r3, r3
 8004510:	2b00      	cmp	r3, #0
 8004512:	d037      	beq.n	8004584 <HAL_SPI_Transmit+0x16c>
      if(__HAL_SPI_GET_FLAG(hspi, SPI_FLAG_TXE))
 8004514:	6823      	ldr	r3, [r4, #0]
 8004516:	689a      	ldr	r2, [r3, #8]
 8004518:	f012 0f02 	tst.w	r2, #2
 800451c:	d0f2      	beq.n	8004504 <HAL_SPI_Transmit+0xec>
          hspi->Instance->DR = *((uint16_t *)pData);
 800451e:	f836 2b02 	ldrh.w	r2, [r6], #2
 8004522:	60da      	str	r2, [r3, #12]
          hspi->TxXferCount--;
 8004524:	8ee3      	ldrh	r3, [r4, #54]	; 0x36
 8004526:	b29b      	uxth	r3, r3
 8004528:	3b01      	subs	r3, #1
 800452a:	b29b      	uxth	r3, r3
 800452c:	86e3      	strh	r3, [r4, #54]	; 0x36
 800452e:	e7ed      	b.n	800450c <HAL_SPI_Transmit+0xf4>
        if((Timeout == 0U) || ((Timeout != HAL_MAX_DELAY) && ((HAL_GetTick()-tickstart) >=  Timeout)))
 8004530:	f7fe fe68 	bl	8003204 <HAL_GetTick>
 8004534:	eba0 0008 	sub.w	r0, r0, r8
 8004538:	42a8      	cmp	r0, r5
 800453a:	d3e7      	bcc.n	800450c <HAL_SPI_Transmit+0xf4>
          errorcode = HAL_TIMEOUT;
 800453c:	2703      	movs	r7, #3
          goto error;
 800453e:	e04e      	b.n	80045de <HAL_SPI_Transmit+0x1c6>
        if((Timeout == 0U) || ((Timeout != HAL_MAX_DELAY) && ((HAL_GetTick()-tickstart) >=  Timeout)))
 8004540:	b1f5      	cbz	r5, 8004580 <HAL_SPI_Transmit+0x168>
 8004542:	f1b5 3fff 	cmp.w	r5, #4294967295	; 0xffffffff
 8004546:	d115      	bne.n	8004574 <HAL_SPI_Transmit+0x15c>
    while (hspi->TxXferCount > 0U)
 8004548:	8ee2      	ldrh	r2, [r4, #54]	; 0x36
 800454a:	b292      	uxth	r2, r2
 800454c:	b1d2      	cbz	r2, 8004584 <HAL_SPI_Transmit+0x16c>
      if(__HAL_SPI_GET_FLAG(hspi, SPI_FLAG_TXE))
 800454e:	6823      	ldr	r3, [r4, #0]
 8004550:	689a      	ldr	r2, [r3, #8]
 8004552:	f012 0f02 	tst.w	r2, #2
 8004556:	d0f3      	beq.n	8004540 <HAL_SPI_Transmit+0x128>
        *((__IO uint8_t*)&hspi->Instance->DR) = (*pData);
 8004558:	f816 2b01 	ldrb.w	r2, [r6], #1
 800455c:	731a      	strb	r2, [r3, #12]
        hspi->TxXferCount--;
 800455e:	f8b4 c036 	ldrh.w	ip, [r4, #54]	; 0x36
 8004562:	fa1f fc8c 	uxth.w	ip, ip
 8004566:	f10c 3cff 	add.w	ip, ip, #4294967295	; 0xffffffff
 800456a:	fa1f fc8c 	uxth.w	ip, ip
 800456e:	f8a4 c036 	strh.w	ip, [r4, #54]	; 0x36
 8004572:	e7e9      	b.n	8004548 <HAL_SPI_Transmit+0x130>
        if((Timeout == 0U) || ((Timeout != HAL_MAX_DELAY) && ((HAL_GetTick()-tickstart) >=  Timeout)))
 8004574:	f7fe fe46 	bl	8003204 <HAL_GetTick>
 8004578:	eba0 0008 	sub.w	r0, r0, r8
 800457c:	42a8      	cmp	r0, r5
 800457e:	d3e3      	bcc.n	8004548 <HAL_SPI_Transmit+0x130>
          errorcode = HAL_TIMEOUT;
 8004580:	2703      	movs	r7, #3
          goto error;
 8004582:	e02c      	b.n	80045de <HAL_SPI_Transmit+0x1c6>
  if(SPI_WaitFlagStateUntilTimeout(hspi, SPI_FLAG_TXE, SET, Timeout, tickstart) != HAL_OK)
 8004584:	f8cd 8000 	str.w	r8, [sp]
 8004588:	462b      	mov	r3, r5
 800458a:	2201      	movs	r2, #1
 800458c:	2102      	movs	r1, #2
 800458e:	4620      	mov	r0, r4
 8004590:	f7ff fee2 	bl	8004358 <SPI_WaitFlagStateUntilTimeout>
 8004594:	b108      	cbz	r0, 800459a <HAL_SPI_Transmit+0x182>
    errorcode = HAL_TIMEOUT;
 8004596:	2703      	movs	r7, #3
 8004598:	e021      	b.n	80045de <HAL_SPI_Transmit+0x1c6>
  if(SPI_CheckFlag_BSY(hspi, Timeout, tickstart) != HAL_OK)
 800459a:	4642      	mov	r2, r8
 800459c:	4629      	mov	r1, r5
 800459e:	4620      	mov	r0, r4
 80045a0:	f7ff ff27 	bl	80043f2 <SPI_CheckFlag_BSY>
 80045a4:	4603      	mov	r3, r0
 80045a6:	b980      	cbnz	r0, 80045ca <HAL_SPI_Transmit+0x1b2>
  if(hspi->Init.Direction == SPI_DIRECTION_2LINES)
 80045a8:	68a2      	ldr	r2, [r4, #8]
 80045aa:	b932      	cbnz	r2, 80045ba <HAL_SPI_Transmit+0x1a2>
    __HAL_SPI_CLEAR_OVRFLAG(hspi);
 80045ac:	9203      	str	r2, [sp, #12]
 80045ae:	6822      	ldr	r2, [r4, #0]
 80045b0:	68d1      	ldr	r1, [r2, #12]
 80045b2:	9103      	str	r1, [sp, #12]
 80045b4:	6892      	ldr	r2, [r2, #8]
 80045b6:	9203      	str	r2, [sp, #12]
 80045b8:	9a03      	ldr	r2, [sp, #12]
  if(hspi->Init.CRCCalculation == SPI_CRCCALCULATION_ENABLE)
 80045ba:	6aa2      	ldr	r2, [r4, #40]	; 0x28
 80045bc:	f5b2 5f00 	cmp.w	r2, #8192	; 0x2000
 80045c0:	d006      	beq.n	80045d0 <HAL_SPI_Transmit+0x1b8>
  if(hspi->ErrorCode != HAL_SPI_ERROR_NONE)
 80045c2:	6d62      	ldr	r2, [r4, #84]	; 0x54
 80045c4:	b95a      	cbnz	r2, 80045de <HAL_SPI_Transmit+0x1c6>
  HAL_StatusTypeDef errorcode = HAL_OK;
 80045c6:	461f      	mov	r7, r3
 80045c8:	e009      	b.n	80045de <HAL_SPI_Transmit+0x1c6>
    hspi->ErrorCode = HAL_SPI_ERROR_FLAG;
 80045ca:	2320      	movs	r3, #32
 80045cc:	6563      	str	r3, [r4, #84]	; 0x54
    goto error;
 80045ce:	e006      	b.n	80045de <HAL_SPI_Transmit+0x1c6>
     SET_BIT(hspi->Instance->CR1, SPI_CR1_CRCNEXT);
 80045d0:	6821      	ldr	r1, [r4, #0]
 80045d2:	680a      	ldr	r2, [r1, #0]
 80045d4:	f442 5280 	orr.w	r2, r2, #4096	; 0x1000
 80045d8:	600a      	str	r2, [r1, #0]
 80045da:	e7f2      	b.n	80045c2 <HAL_SPI_Transmit+0x1aa>
    errorcode = HAL_BUSY;
 80045dc:	2702      	movs	r7, #2
  hspi->State = HAL_SPI_STATE_READY;
 80045de:	2301      	movs	r3, #1
 80045e0:	f884 3051 	strb.w	r3, [r4, #81]	; 0x51
  __HAL_UNLOCK(hspi);
 80045e4:	2300      	movs	r3, #0
 80045e6:	f884 3050 	strb.w	r3, [r4, #80]	; 0x50
}
 80045ea:	4638      	mov	r0, r7
 80045ec:	b005      	add	sp, #20
 80045ee:	e8bd 83f0 	ldmia.w	sp!, {r4, r5, r6, r7, r8, r9, pc}
  __HAL_LOCK(hspi);
 80045f2:	2702      	movs	r7, #2
 80045f4:	e7f9      	b.n	80045ea <HAL_SPI_Transmit+0x1d2>
	...

080045f8 <HAL_SPI_Init>:
  * @retval HAL status
  */
HAL_StatusTypeDef HAL_SPI_Init(SPI_HandleTypeDef *hspi)
{
  /* Check the SPI handle allocation */
  if(hspi == NULL)
 80045f8:	2800      	cmp	r0, #0
 80045fa:	d03c      	beq.n	8004676 <HAL_SPI_Init+0x7e>
{
 80045fc:	b510      	push	{r4, lr}
 80045fe:	4604      	mov	r4, r0
  }
#else
  hspi->Init.CRCCalculation = SPI_CRCCALCULATION_DISABLE;
#endif /* USE_SPI_CRC */

  if(hspi->State == HAL_SPI_STATE_RESET)
 8004600:	f890 3051 	ldrb.w	r3, [r0, #81]	; 0x51
 8004604:	2b00      	cmp	r3, #0
 8004606:	d033      	beq.n	8004670 <HAL_SPI_Init+0x78>
  {
    /* Init the low level hardware : GPIO, CLOCK, NVIC... */
    HAL_SPI_MspInit(hspi);
  }
  
  hspi->State = HAL_SPI_STATE_BUSY;
 8004608:	2302      	movs	r3, #2
 800460a:	f884 3051 	strb.w	r3, [r4, #81]	; 0x51

  /* Disble the selected SPI peripheral */
  __HAL_SPI_DISABLE(hspi);
 800460e:	6822      	ldr	r2, [r4, #0]
 8004610:	6813      	ldr	r3, [r2, #0]
 8004612:	f023 0340 	bic.w	r3, r3, #64	; 0x40
 8004616:	6013      	str	r3, [r2, #0]

  /*----------------------- SPIx CR1 & CR2 Configuration ---------------------*/
  /* Configure : SPI Mode, Communication Mode, Data size, Clock polarity and phase, NSS management,
  Communication speed, First bit and CRC calculation state */
  WRITE_REG(hspi->Instance->CR1, (hspi->Init.Mode | hspi->Init.Direction | hspi->Init.DataSize |
 8004618:	6863      	ldr	r3, [r4, #4]
 800461a:	68a2      	ldr	r2, [r4, #8]
 800461c:	4313      	orrs	r3, r2
 800461e:	68e2      	ldr	r2, [r4, #12]
 8004620:	4313      	orrs	r3, r2
 8004622:	6922      	ldr	r2, [r4, #16]
 8004624:	4313      	orrs	r3, r2
 8004626:	6962      	ldr	r2, [r4, #20]
 8004628:	4313      	orrs	r3, r2
 800462a:	69a2      	ldr	r2, [r4, #24]
 800462c:	f402 7200 	and.w	r2, r2, #512	; 0x200
 8004630:	4313      	orrs	r3, r2
 8004632:	69e2      	ldr	r2, [r4, #28]
 8004634:	4313      	orrs	r3, r2
 8004636:	6a22      	ldr	r2, [r4, #32]
 8004638:	4313      	orrs	r3, r2
 800463a:	6aa1      	ldr	r1, [r4, #40]	; 0x28
 800463c:	6822      	ldr	r2, [r4, #0]
 800463e:	430b      	orrs	r3, r1
 8004640:	6013      	str	r3, [r2, #0]
                                  hspi->Init.CLKPolarity | hspi->Init.CLKPhase | (hspi->Init.NSS & SPI_CR1_SSM) |
                                  hspi->Init.BaudRatePrescaler | hspi->Init.FirstBit  | hspi->Init.CRCCalculation) );

  /* Configure : NSS management */
  WRITE_REG(hspi->Instance->CR2, (((hspi->Init.NSS >> 16U) & SPI_CR2_SSOE) | hspi->Init.TIMode));
 8004642:	8b63      	ldrh	r3, [r4, #26]
 8004644:	f003 0304 	and.w	r3, r3, #4
 8004648:	6a61      	ldr	r1, [r4, #36]	; 0x24
 800464a:	6822      	ldr	r2, [r4, #0]
 800464c:	430b      	orrs	r3, r1
 800464e:	6053      	str	r3, [r2, #4]

  /*---------------------------- SPIx CRCPOLY Configuration ------------------*/
  /* Configure : CRC Polynomial */
  WRITE_REG(hspi->Instance->CRCPR, hspi->Init.CRCPolynomial);
 8004650:	6823      	ldr	r3, [r4, #0]
 8004652:	6ae2      	ldr	r2, [r4, #44]	; 0x2c
 8004654:	611a      	str	r2, [r3, #16]

#if defined(SPI_I2SCFGR_I2SMOD)
  /* Activate the SPI mode (Make sure that I2SMOD bit in I2SCFGR register is reset) */
  CLEAR_BIT(hspi->Instance->I2SCFGR, SPI_I2SCFGR_I2SMOD);
 8004656:	6822      	ldr	r2, [r4, #0]
 8004658:	69d3      	ldr	r3, [r2, #28]
 800465a:	f423 6300 	bic.w	r3, r3, #2048	; 0x800
 800465e:	61d3      	str	r3, [r2, #28]
     Revision ID information is only available in Debug mode, so Workaround could not be implemented
     to distinguish Rev Z devices (issue present) from more recent version (issue fixed).
     So, in case of Revison Z F101 or F103 devices, below variable should be assigned to 1 */
  uCRCErrorWorkaroundCheck = 0U;
#else
  uCRCErrorWorkaroundCheck = 0U;
 8004660:	2000      	movs	r0, #0
 8004662:	4b06      	ldr	r3, [pc, #24]	; (800467c <HAL_SPI_Init+0x84>)
 8004664:	7018      	strb	r0, [r3, #0]
#endif /* STM32F101xE || STM32F103xE */
#endif /* USE_SPI_CRC */

  hspi->ErrorCode = HAL_SPI_ERROR_NONE;
 8004666:	6560      	str	r0, [r4, #84]	; 0x54
  hspi->State = HAL_SPI_STATE_READY;
 8004668:	2301      	movs	r3, #1
 800466a:	f884 3051 	strb.w	r3, [r4, #81]	; 0x51
  
  return HAL_OK;
}
 800466e:	bd10      	pop	{r4, pc}
    HAL_SPI_MspInit(hspi);
 8004670:	f7ff fed1 	bl	8004416 <HAL_SPI_MspInit>
 8004674:	e7c8      	b.n	8004608 <HAL_SPI_Init+0x10>
    return HAL_ERROR;
 8004676:	2001      	movs	r0, #1
}
 8004678:	4770      	bx	lr
 800467a:	bf00      	nop
 800467c:	20000d8c 	.word	0x20000d8c

08004680 <HAL_TIM_Base_MspInit>:
  UNUSED(htim);

  /* NOTE : This function should not be modified, when the callback is needed,
            the HAL_TIM_Base_MspInit could be implemented in the user file
   */
}
 8004680:	4770      	bx	lr

08004682 <HAL_TIM_Base_Start_IT>:

  /* Check the parameters */
  assert_param(IS_TIM_INSTANCE(htim->Instance));

  /* Enable the TIM Update interrupt */
  __HAL_TIM_ENABLE_IT(htim, TIM_IT_UPDATE);
 8004682:	6802      	ldr	r2, [r0, #0]
 8004684:	68d3      	ldr	r3, [r2, #12]
 8004686:	f043 0301 	orr.w	r3, r3, #1
 800468a:	60d3      	str	r3, [r2, #12]

  /* Enable the Peripheral, except in trigger mode where enable is automatically done with trigger */
  tmpsmcr = htim->Instance->SMCR & TIM_SMCR_SMS;
 800468c:	6802      	ldr	r2, [r0, #0]
 800468e:	6893      	ldr	r3, [r2, #8]
 8004690:	f003 0307 	and.w	r3, r3, #7
  if (!IS_TIM_SLAVEMODE_TRIGGER_ENABLED(tmpsmcr))
 8004694:	2b06      	cmp	r3, #6
 8004696:	d003      	beq.n	80046a0 <HAL_TIM_Base_Start_IT+0x1e>
  {
    __HAL_TIM_ENABLE(htim);
 8004698:	6813      	ldr	r3, [r2, #0]
 800469a:	f043 0301 	orr.w	r3, r3, #1
 800469e:	6013      	str	r3, [r2, #0]
  }

  /* Return function status */
  return HAL_OK;
}
 80046a0:	2000      	movs	r0, #0
 80046a2:	4770      	bx	lr

080046a4 <HAL_TIM_GenerateEvent>:
  /* Check the parameters */
  assert_param(IS_TIM_INSTANCE(htim->Instance));
  assert_param(IS_TIM_EVENT_SOURCE(EventSource));

  /* Process Locked */
  __HAL_LOCK(htim);
 80046a4:	f890 303c 	ldrb.w	r3, [r0, #60]	; 0x3c
 80046a8:	2b01      	cmp	r3, #1
 80046aa:	d00e      	beq.n	80046ca <HAL_TIM_GenerateEvent+0x26>
 80046ac:	2301      	movs	r3, #1
 80046ae:	f880 303c 	strb.w	r3, [r0, #60]	; 0x3c

  /* Change the TIM state */
  htim->State = HAL_TIM_STATE_BUSY;
 80046b2:	2202      	movs	r2, #2
 80046b4:	f880 203d 	strb.w	r2, [r0, #61]	; 0x3d

  /* Set the event sources */
  htim->Instance->EGR = EventSource;
 80046b8:	6802      	ldr	r2, [r0, #0]
 80046ba:	6151      	str	r1, [r2, #20]

  /* Change the TIM state */
  htim->State = HAL_TIM_STATE_READY;
 80046bc:	f880 303d 	strb.w	r3, [r0, #61]	; 0x3d

  __HAL_UNLOCK(htim);
 80046c0:	2300      	movs	r3, #0
 80046c2:	f880 303c 	strb.w	r3, [r0, #60]	; 0x3c

  /* Return function status */
  return HAL_OK;
 80046c6:	4618      	mov	r0, r3
 80046c8:	4770      	bx	lr
  __HAL_LOCK(htim);
 80046ca:	2002      	movs	r0, #2
}
 80046cc:	4770      	bx	lr
	...

080046d0 <TIM_Base_SetConfig>:
  * @retval None
  */
void TIM_Base_SetConfig(TIM_TypeDef *TIMx, TIM_Base_InitTypeDef *Structure)
{
  uint32_t tmpcr1;
  tmpcr1 = TIMx->CR1;
 80046d0:	6803      	ldr	r3, [r0, #0]

  /* Set TIM Time Base Unit parameters ---------------------------------------*/
  if (IS_TIM_COUNTER_MODE_SELECT_INSTANCE(TIMx))
 80046d2:	4a1b      	ldr	r2, [pc, #108]	; (8004740 <TIM_Base_SetConfig+0x70>)
 80046d4:	4290      	cmp	r0, r2
 80046d6:	d00a      	beq.n	80046ee <TIM_Base_SetConfig+0x1e>
 80046d8:	f1b0 4f80 	cmp.w	r0, #1073741824	; 0x40000000
 80046dc:	d007      	beq.n	80046ee <TIM_Base_SetConfig+0x1e>
 80046de:	f5a2 3294 	sub.w	r2, r2, #75776	; 0x12800
 80046e2:	4290      	cmp	r0, r2
 80046e4:	d003      	beq.n	80046ee <TIM_Base_SetConfig+0x1e>
 80046e6:	f502 6280 	add.w	r2, r2, #1024	; 0x400
 80046ea:	4290      	cmp	r0, r2
 80046ec:	d103      	bne.n	80046f6 <TIM_Base_SetConfig+0x26>
  {
    /* Select the Counter Mode */
    tmpcr1 &= ~(TIM_CR1_DIR | TIM_CR1_CMS);
 80046ee:	f023 0370 	bic.w	r3, r3, #112	; 0x70
    tmpcr1 |= Structure->CounterMode;
 80046f2:	684a      	ldr	r2, [r1, #4]
 80046f4:	4313      	orrs	r3, r2
  }

  if (IS_TIM_CLOCK_DIVISION_INSTANCE(TIMx))
 80046f6:	4a12      	ldr	r2, [pc, #72]	; (8004740 <TIM_Base_SetConfig+0x70>)
 80046f8:	4290      	cmp	r0, r2
 80046fa:	d00a      	beq.n	8004712 <TIM_Base_SetConfig+0x42>
 80046fc:	f1b0 4f80 	cmp.w	r0, #1073741824	; 0x40000000
 8004700:	d007      	beq.n	8004712 <TIM_Base_SetConfig+0x42>
 8004702:	f5a2 3294 	sub.w	r2, r2, #75776	; 0x12800
 8004706:	4290      	cmp	r0, r2
 8004708:	d003      	beq.n	8004712 <TIM_Base_SetConfig+0x42>
 800470a:	f502 6280 	add.w	r2, r2, #1024	; 0x400
 800470e:	4290      	cmp	r0, r2
 8004710:	d103      	bne.n	800471a <TIM_Base_SetConfig+0x4a>
  {
    /* Set the clock division */
    tmpcr1 &= ~TIM_CR1_CKD;
 8004712:	f423 7340 	bic.w	r3, r3, #768	; 0x300
    tmpcr1 |= (uint32_t)Structure->ClockDivision;
 8004716:	68ca      	ldr	r2, [r1, #12]
 8004718:	4313      	orrs	r3, r2
  }

  /* Set the auto-reload preload */
  MODIFY_REG(tmpcr1, TIM_CR1_ARPE, Structure->AutoReloadPreload);
 800471a:	f023 0380 	bic.w	r3, r3, #128	; 0x80
 800471e:	694a      	ldr	r2, [r1, #20]
 8004720:	4313      	orrs	r3, r2

  TIMx->CR1 = tmpcr1;
 8004722:	6003      	str	r3, [r0, #0]

  /* Set the Autoreload value */
  TIMx->ARR = (uint32_t)Structure->Period ;
 8004724:	688b      	ldr	r3, [r1, #8]
 8004726:	62c3      	str	r3, [r0, #44]	; 0x2c

  /* Set the Prescaler value */
  TIMx->PSC = Structure->Prescaler;
 8004728:	680b      	ldr	r3, [r1, #0]
 800472a:	6283      	str	r3, [r0, #40]	; 0x28

  if (IS_TIM_REPETITION_COUNTER_INSTANCE(TIMx))
 800472c:	4b04      	ldr	r3, [pc, #16]	; (8004740 <TIM_Base_SetConfig+0x70>)
 800472e:	4298      	cmp	r0, r3
 8004730:	d002      	beq.n	8004738 <TIM_Base_SetConfig+0x68>
    TIMx->RCR = Structure->RepetitionCounter;
  }

  /* Generate an update event to reload the Prescaler
     and the repetition counter (only for advanced timer) value immediately */
  TIMx->EGR = TIM_EGR_UG;
 8004732:	2301      	movs	r3, #1
 8004734:	6143      	str	r3, [r0, #20]
}
 8004736:	4770      	bx	lr
    TIMx->RCR = Structure->RepetitionCounter;
 8004738:	690b      	ldr	r3, [r1, #16]
 800473a:	6303      	str	r3, [r0, #48]	; 0x30
 800473c:	e7f9      	b.n	8004732 <TIM_Base_SetConfig+0x62>
 800473e:	bf00      	nop
 8004740:	40012c00 	.word	0x40012c00

08004744 <HAL_TIM_Base_Init>:
  if (htim == NULL)
 8004744:	b1b0      	cbz	r0, 8004774 <HAL_TIM_Base_Init+0x30>
{
 8004746:	b510      	push	{r4, lr}
 8004748:	4604      	mov	r4, r0
  if (htim->State == HAL_TIM_STATE_RESET)
 800474a:	f890 303d 	ldrb.w	r3, [r0, #61]	; 0x3d
 800474e:	b163      	cbz	r3, 800476a <HAL_TIM_Base_Init+0x26>
  htim->State = HAL_TIM_STATE_BUSY;
 8004750:	2302      	movs	r3, #2
 8004752:	f884 303d 	strb.w	r3, [r4, #61]	; 0x3d
  TIM_Base_SetConfig(htim->Instance, &htim->Init);
 8004756:	4621      	mov	r1, r4
 8004758:	f851 0b04 	ldr.w	r0, [r1], #4
 800475c:	f7ff ffb8 	bl	80046d0 <TIM_Base_SetConfig>
  htim->State = HAL_TIM_STATE_READY;
 8004760:	2301      	movs	r3, #1
 8004762:	f884 303d 	strb.w	r3, [r4, #61]	; 0x3d
  return HAL_OK;
 8004766:	2000      	movs	r0, #0
}
 8004768:	bd10      	pop	{r4, pc}
    htim->Lock = HAL_UNLOCKED;
 800476a:	f880 303c 	strb.w	r3, [r0, #60]	; 0x3c
    HAL_TIM_Base_MspInit(htim);
 800476e:	f7ff ff87 	bl	8004680 <HAL_TIM_Base_MspInit>
 8004772:	e7ed      	b.n	8004750 <HAL_TIM_Base_Init+0xc>
    return HAL_ERROR;
 8004774:	2001      	movs	r0, #1
}
 8004776:	4770      	bx	lr

08004778 <HAL_TIMEx_MasterConfigSynchronization>:
  assert_param(IS_TIM_SYNCHRO_INSTANCE(htim->Instance));
  assert_param(IS_TIM_TRGO_SOURCE(sMasterConfig->MasterOutputTrigger));
  assert_param(IS_TIM_MSM_STATE(sMasterConfig->MasterSlaveMode));

  /* Check input state */
  __HAL_LOCK(htim);
 8004778:	f890 203c 	ldrb.w	r2, [r0, #60]	; 0x3c
 800477c:	2a01      	cmp	r2, #1
 800477e:	d01d      	beq.n	80047bc <HAL_TIMEx_MasterConfigSynchronization+0x44>
{
 8004780:	b530      	push	{r4, r5, lr}
 8004782:	4603      	mov	r3, r0
  __HAL_LOCK(htim);
 8004784:	f04f 0e01 	mov.w	lr, #1
 8004788:	f880 e03c 	strb.w	lr, [r0, #60]	; 0x3c

  /* Change the handler state */
  htim->State = HAL_TIM_STATE_BUSY;
 800478c:	2202      	movs	r2, #2
 800478e:	f880 203d 	strb.w	r2, [r0, #61]	; 0x3d

  /* Get the TIMx CR2 register value */
  tmpcr2 = htim->Instance->CR2;
 8004792:	6800      	ldr	r0, [r0, #0]
 8004794:	6844      	ldr	r4, [r0, #4]

  /* Get the TIMx SMCR register value */
  tmpsmcr = htim->Instance->SMCR;
 8004796:	6885      	ldr	r5, [r0, #8]

  /* Reset the MMS Bits */
  tmpcr2 &= ~TIM_CR2_MMS;
 8004798:	f024 0470 	bic.w	r4, r4, #112	; 0x70
  /* Select the TRGO source */
  tmpcr2 |=  sMasterConfig->MasterOutputTrigger;
 800479c:	680a      	ldr	r2, [r1, #0]
 800479e:	4314      	orrs	r4, r2

  /* Reset the MSM Bit */
  tmpsmcr &= ~TIM_SMCR_MSM;
 80047a0:	f025 0c80 	bic.w	ip, r5, #128	; 0x80
  /* Set master mode */
  tmpsmcr |= sMasterConfig->MasterSlaveMode;
 80047a4:	684a      	ldr	r2, [r1, #4]
 80047a6:	ea42 020c 	orr.w	r2, r2, ip

  /* Update TIMx CR2 */
  htim->Instance->CR2 = tmpcr2;
 80047aa:	6044      	str	r4, [r0, #4]

  /* Update TIMx SMCR */
  htim->Instance->SMCR = tmpsmcr;
 80047ac:	6819      	ldr	r1, [r3, #0]
 80047ae:	608a      	str	r2, [r1, #8]

  /* Change the htim state */
  htim->State = HAL_TIM_STATE_READY;
 80047b0:	f883 e03d 	strb.w	lr, [r3, #61]	; 0x3d

  __HAL_UNLOCK(htim);
 80047b4:	2000      	movs	r0, #0
 80047b6:	f883 003c 	strb.w	r0, [r3, #60]	; 0x3c

  return HAL_OK;
}
 80047ba:	bd30      	pop	{r4, r5, pc}
  __HAL_LOCK(htim);
 80047bc:	2002      	movs	r0, #2
}
 80047be:	4770      	bx	lr

080047c0 <UART_EndRxTransfer>:
  * @retval None
  */
static void UART_EndRxTransfer(UART_HandleTypeDef *huart)
{
  /* Disable RXNE, PE and ERR (Frame error, noise error, overrun error) interrupts */
  CLEAR_BIT(huart->Instance->CR1, (USART_CR1_RXNEIE | USART_CR1_PEIE));
 80047c0:	6802      	ldr	r2, [r0, #0]
 80047c2:	68d3      	ldr	r3, [r2, #12]
 80047c4:	f423 7390 	bic.w	r3, r3, #288	; 0x120
 80047c8:	60d3      	str	r3, [r2, #12]
  CLEAR_BIT(huart->Instance->CR3, USART_CR3_EIE);
 80047ca:	6802      	ldr	r2, [r0, #0]
 80047cc:	6953      	ldr	r3, [r2, #20]
 80047ce:	f023 0301 	bic.w	r3, r3, #1
 80047d2:	6153      	str	r3, [r2, #20]

  /* At end of Rx process, restore huart->RxState to Ready */
  huart->RxState = HAL_UART_STATE_READY;
 80047d4:	2320      	movs	r3, #32
 80047d6:	f880 303a 	strb.w	r3, [r0, #58]	; 0x3a
}
 80047da:	4770      	bx	lr

080047dc <UART_Transmit_IT>:
static HAL_StatusTypeDef UART_Transmit_IT(UART_HandleTypeDef *huart)
{
  uint16_t* tmp;
  
  /* Check that a Tx process is ongoing */
  if(huart->gState == HAL_UART_STATE_BUSY_TX)
 80047dc:	f890 3039 	ldrb.w	r3, [r0, #57]	; 0x39
 80047e0:	b2db      	uxtb	r3, r3
 80047e2:	2b21      	cmp	r3, #33	; 0x21
 80047e4:	d001      	beq.n	80047ea <UART_Transmit_IT+0xe>
    }
    return HAL_OK;
  }
  else
  {
    return HAL_BUSY;
 80047e6:	2002      	movs	r0, #2
  }
}
 80047e8:	4770      	bx	lr
    if(huart->Init.WordLength == UART_WORDLENGTH_9B)
 80047ea:	6883      	ldr	r3, [r0, #8]
 80047ec:	f5b3 5f80 	cmp.w	r3, #4096	; 0x1000
 80047f0:	d017      	beq.n	8004822 <UART_Transmit_IT+0x46>
      huart->Instance->DR = (uint8_t)(*huart->pTxBuffPtr++ & (uint8_t)0x00FF);
 80047f2:	6a03      	ldr	r3, [r0, #32]
 80047f4:	1c5a      	adds	r2, r3, #1
 80047f6:	6202      	str	r2, [r0, #32]
 80047f8:	781a      	ldrb	r2, [r3, #0]
 80047fa:	6803      	ldr	r3, [r0, #0]
 80047fc:	605a      	str	r2, [r3, #4]
    if(--huart->TxXferCount == 0U)
 80047fe:	8cc3      	ldrh	r3, [r0, #38]	; 0x26
 8004800:	b29b      	uxth	r3, r3
 8004802:	3b01      	subs	r3, #1
 8004804:	b29b      	uxth	r3, r3
 8004806:	84c3      	strh	r3, [r0, #38]	; 0x26
 8004808:	b94b      	cbnz	r3, 800481e <UART_Transmit_IT+0x42>
      __HAL_UART_DISABLE_IT(huart, UART_IT_TXE);
 800480a:	6802      	ldr	r2, [r0, #0]
 800480c:	68d3      	ldr	r3, [r2, #12]
 800480e:	f023 0380 	bic.w	r3, r3, #128	; 0x80
 8004812:	60d3      	str	r3, [r2, #12]
      __HAL_UART_ENABLE_IT(huart, UART_IT_TC);
 8004814:	6802      	ldr	r2, [r0, #0]
 8004816:	68d3      	ldr	r3, [r2, #12]
 8004818:	f043 0340 	orr.w	r3, r3, #64	; 0x40
 800481c:	60d3      	str	r3, [r2, #12]
    return HAL_OK;
 800481e:	2000      	movs	r0, #0
 8004820:	4770      	bx	lr
      tmp = (uint16_t*) huart->pTxBuffPtr;
 8004822:	6a03      	ldr	r3, [r0, #32]
      huart->Instance->DR = (uint16_t)(*tmp & (uint16_t)0x01FF);
 8004824:	881b      	ldrh	r3, [r3, #0]
 8004826:	6802      	ldr	r2, [r0, #0]
 8004828:	f3c3 0308 	ubfx	r3, r3, #0, #9
 800482c:	6053      	str	r3, [r2, #4]
      if(huart->Init.Parity == UART_PARITY_NONE)
 800482e:	6903      	ldr	r3, [r0, #16]
 8004830:	b91b      	cbnz	r3, 800483a <UART_Transmit_IT+0x5e>
        huart->pTxBuffPtr += 2U;
 8004832:	6a03      	ldr	r3, [r0, #32]
 8004834:	3302      	adds	r3, #2
 8004836:	6203      	str	r3, [r0, #32]
 8004838:	e7e1      	b.n	80047fe <UART_Transmit_IT+0x22>
        huart->pTxBuffPtr += 1U;
 800483a:	6a03      	ldr	r3, [r0, #32]
 800483c:	3301      	adds	r3, #1
 800483e:	6203      	str	r3, [r0, #32]
 8004840:	e7dd      	b.n	80047fe <UART_Transmit_IT+0x22>
	...

08004844 <UART_SetConfig>:
  * @param  huart: pointer to a UART_HandleTypeDef structure that contains
  *                the configuration information for the specified UART module.
  * @retval None
  */
static void UART_SetConfig(UART_HandleTypeDef *huart)
{
 8004844:	e92d 41f0 	stmdb	sp!, {r4, r5, r6, r7, r8, lr}
 8004848:	4604      	mov	r4, r0
  assert_param(IS_UART_MODE(huart->Init.Mode));

  /*------- UART-associated USART registers setting : CR2 Configuration ------*/
  /* Configure the UART Stop Bits: Set STOP[13:12] bits according 
   * to huart->Init.StopBits value */
  MODIFY_REG(huart->Instance->CR2, USART_CR2_STOP, huart->Init.StopBits);
 800484a:	6802      	ldr	r2, [r0, #0]
 800484c:	6913      	ldr	r3, [r2, #16]
 800484e:	f423 5340 	bic.w	r3, r3, #12288	; 0x3000
 8004852:	68c1      	ldr	r1, [r0, #12]
 8004854:	430b      	orrs	r3, r1
 8004856:	6113      	str	r3, [r2, #16]
  tmpreg |= (uint32_t)huart->Init.WordLength | huart->Init.Parity | huart->Init.Mode | huart->Init.OverSampling;
  MODIFY_REG(huart->Instance->CR1, 
             (uint32_t)(USART_CR1_M | USART_CR1_PCE | USART_CR1_PS | USART_CR1_TE | USART_CR1_RE | USART_CR1_OVER8), 
             tmpreg);
#else
  tmpreg |= (uint32_t)huart->Init.WordLength | huart->Init.Parity | huart->Init.Mode;
 8004858:	6883      	ldr	r3, [r0, #8]
 800485a:	6902      	ldr	r2, [r0, #16]
 800485c:	4313      	orrs	r3, r2
 800485e:	6942      	ldr	r2, [r0, #20]
 8004860:	4313      	orrs	r3, r2
  MODIFY_REG(huart->Instance->CR1, 
 8004862:	6801      	ldr	r1, [r0, #0]
 8004864:	68ca      	ldr	r2, [r1, #12]
 8004866:	f422 52b0 	bic.w	r2, r2, #5632	; 0x1600
 800486a:	f022 020c 	bic.w	r2, r2, #12
 800486e:	4313      	orrs	r3, r2
 8004870:	60cb      	str	r3, [r1, #12]
             tmpreg);
#endif /* USART_CR1_OVER8 */

  /*------- UART-associated USART registers setting : CR3 Configuration ------*/
  /* Configure the UART HFC: Set CTSE and RTSE bits according to huart->Init.HwFlowCtl value */
  MODIFY_REG(huart->Instance->CR3, (USART_CR3_RTSE | USART_CR3_CTSE), huart->Init.HwFlowCtl);
 8004872:	6802      	ldr	r2, [r0, #0]
 8004874:	6953      	ldr	r3, [r2, #20]
 8004876:	f423 7340 	bic.w	r3, r3, #768	; 0x300
 800487a:	6981      	ldr	r1, [r0, #24]
 800487c:	430b      	orrs	r3, r1
 800487e:	6153      	str	r3, [r2, #20]
      huart->Instance->BRR = UART_BRR_SAMPLING16(HAL_RCC_GetPCLK1Freq(), huart->Init.BaudRate);
    }
  }
#else
  /*-------------------------- USART BRR Configuration ---------------------*/
  if(huart->Instance == USART1)
 8004880:	6802      	ldr	r2, [r0, #0]
 8004882:	4b57      	ldr	r3, [pc, #348]	; (80049e0 <UART_SetConfig+0x19c>)
 8004884:	429a      	cmp	r2, r3
 8004886:	d055      	beq.n	8004934 <UART_SetConfig+0xf0>
  {
    huart->Instance->BRR = UART_BRR_SAMPLING16(HAL_RCC_GetPCLK2Freq(), huart->Init.BaudRate);
  }
  else
  {
    huart->Instance->BRR = UART_BRR_SAMPLING16(HAL_RCC_GetPCLK1Freq(), huart->Init.BaudRate);
 8004888:	f7ff fd46 	bl	8004318 <HAL_RCC_GetPCLK1Freq>
 800488c:	eb00 0080 	add.w	r0, r0, r0, lsl #2
 8004890:	eb00 0080 	add.w	r0, r0, r0, lsl #2
 8004894:	6863      	ldr	r3, [r4, #4]
 8004896:	009b      	lsls	r3, r3, #2
 8004898:	fbb0 f5f3 	udiv	r5, r0, r3
 800489c:	4f51      	ldr	r7, [pc, #324]	; (80049e4 <UART_SetConfig+0x1a0>)
 800489e:	fba7 3505 	umull	r3, r5, r7, r5
 80048a2:	096d      	lsrs	r5, r5, #5
 80048a4:	012e      	lsls	r6, r5, #4
 80048a6:	f7ff fd37 	bl	8004318 <HAL_RCC_GetPCLK1Freq>
 80048aa:	eb00 0080 	add.w	r0, r0, r0, lsl #2
 80048ae:	eb00 0080 	add.w	r0, r0, r0, lsl #2
 80048b2:	6863      	ldr	r3, [r4, #4]
 80048b4:	009b      	lsls	r3, r3, #2
 80048b6:	fbb0 f5f3 	udiv	r5, r0, r3
 80048ba:	f7ff fd2d 	bl	8004318 <HAL_RCC_GetPCLK1Freq>
 80048be:	eb00 0080 	add.w	r0, r0, r0, lsl #2
 80048c2:	eb00 0080 	add.w	r0, r0, r0, lsl #2
 80048c6:	6863      	ldr	r3, [r4, #4]
 80048c8:	009b      	lsls	r3, r3, #2
 80048ca:	fbb0 f0f3 	udiv	r0, r0, r3
 80048ce:	fba7 3000 	umull	r3, r0, r7, r0
 80048d2:	0940      	lsrs	r0, r0, #5
 80048d4:	f04f 0864 	mov.w	r8, #100	; 0x64
 80048d8:	fb08 5310 	mls	r3, r8, r0, r5
 80048dc:	011b      	lsls	r3, r3, #4
 80048de:	3332      	adds	r3, #50	; 0x32
 80048e0:	fba7 2303 	umull	r2, r3, r7, r3
 80048e4:	095b      	lsrs	r3, r3, #5
 80048e6:	f003 03f0 	and.w	r3, r3, #240	; 0xf0
 80048ea:	18f5      	adds	r5, r6, r3
 80048ec:	f7ff fd14 	bl	8004318 <HAL_RCC_GetPCLK1Freq>
 80048f0:	eb00 0080 	add.w	r0, r0, r0, lsl #2
 80048f4:	eb00 0080 	add.w	r0, r0, r0, lsl #2
 80048f8:	6863      	ldr	r3, [r4, #4]
 80048fa:	009b      	lsls	r3, r3, #2
 80048fc:	fbb0 f6f3 	udiv	r6, r0, r3
 8004900:	f7ff fd0a 	bl	8004318 <HAL_RCC_GetPCLK1Freq>
 8004904:	eb00 0080 	add.w	r0, r0, r0, lsl #2
 8004908:	eb00 0080 	add.w	r0, r0, r0, lsl #2
 800490c:	6863      	ldr	r3, [r4, #4]
 800490e:	009b      	lsls	r3, r3, #2
 8004910:	fbb0 f0f3 	udiv	r0, r0, r3
 8004914:	fba7 3000 	umull	r3, r0, r7, r0
 8004918:	0940      	lsrs	r0, r0, #5
 800491a:	fb08 6310 	mls	r3, r8, r0, r6
 800491e:	011b      	lsls	r3, r3, #4
 8004920:	3332      	adds	r3, #50	; 0x32
 8004922:	fba7 7303 	umull	r7, r3, r7, r3
 8004926:	f3c3 1343 	ubfx	r3, r3, #5, #4
 800492a:	6822      	ldr	r2, [r4, #0]
 800492c:	441d      	add	r5, r3
 800492e:	6095      	str	r5, [r2, #8]
  }
#endif /* USART_CR1_OVER8 */
}
 8004930:	e8bd 81f0 	ldmia.w	sp!, {r4, r5, r6, r7, r8, pc}
    huart->Instance->BRR = UART_BRR_SAMPLING16(HAL_RCC_GetPCLK2Freq(), huart->Init.BaudRate);
 8004934:	f7ff fd00 	bl	8004338 <HAL_RCC_GetPCLK2Freq>
 8004938:	eb00 0080 	add.w	r0, r0, r0, lsl #2
 800493c:	eb00 0080 	add.w	r0, r0, r0, lsl #2
 8004940:	6863      	ldr	r3, [r4, #4]
 8004942:	009b      	lsls	r3, r3, #2
 8004944:	fbb0 f5f3 	udiv	r5, r0, r3
 8004948:	4f26      	ldr	r7, [pc, #152]	; (80049e4 <UART_SetConfig+0x1a0>)
 800494a:	fba7 3505 	umull	r3, r5, r7, r5
 800494e:	096d      	lsrs	r5, r5, #5
 8004950:	012e      	lsls	r6, r5, #4
 8004952:	f7ff fcf1 	bl	8004338 <HAL_RCC_GetPCLK2Freq>
 8004956:	eb00 0080 	add.w	r0, r0, r0, lsl #2
 800495a:	eb00 0080 	add.w	r0, r0, r0, lsl #2
 800495e:	6863      	ldr	r3, [r4, #4]
 8004960:	009b      	lsls	r3, r3, #2
 8004962:	fbb0 f5f3 	udiv	r5, r0, r3
 8004966:	f7ff fce7 	bl	8004338 <HAL_RCC_GetPCLK2Freq>
 800496a:	eb00 0080 	add.w	r0, r0, r0, lsl #2
 800496e:	eb00 0080 	add.w	r0, r0, r0, lsl #2
 8004972:	6863      	ldr	r3, [r4, #4]
 8004974:	009b      	lsls	r3, r3, #2
 8004976:	fbb0 f0f3 	udiv	r0, r0, r3
 800497a:	fba7 3000 	umull	r3, r0, r7, r0
 800497e:	0940      	lsrs	r0, r0, #5
 8004980:	f04f 0864 	mov.w	r8, #100	; 0x64
 8004984:	fb08 5310 	mls	r3, r8, r0, r5
 8004988:	011b      	lsls	r3, r3, #4
 800498a:	3332      	adds	r3, #50	; 0x32
 800498c:	fba7 2303 	umull	r2, r3, r7, r3
 8004990:	095b      	lsrs	r3, r3, #5
 8004992:	f003 03f0 	and.w	r3, r3, #240	; 0xf0
 8004996:	18f5      	adds	r5, r6, r3
 8004998:	f7ff fcce 	bl	8004338 <HAL_RCC_GetPCLK2Freq>
 800499c:	eb00 0080 	add.w	r0, r0, r0, lsl #2
 80049a0:	eb00 0080 	add.w	r0, r0, r0, lsl #2
 80049a4:	6863      	ldr	r3, [r4, #4]
 80049a6:	009b      	lsls	r3, r3, #2
 80049a8:	fbb0 f6f3 	udiv	r6, r0, r3
 80049ac:	f7ff fcc4 	bl	8004338 <HAL_RCC_GetPCLK2Freq>
 80049b0:	eb00 0080 	add.w	r0, r0, r0, lsl #2
 80049b4:	eb00 0080 	add.w	r0, r0, r0, lsl #2
 80049b8:	6863      	ldr	r3, [r4, #4]
 80049ba:	009b      	lsls	r3, r3, #2
 80049bc:	fbb0 f0f3 	udiv	r0, r0, r3
 80049c0:	fba7 3000 	umull	r3, r0, r7, r0
 80049c4:	0940      	lsrs	r0, r0, #5
 80049c6:	fb08 6310 	mls	r3, r8, r0, r6
 80049ca:	011b      	lsls	r3, r3, #4
 80049cc:	3332      	adds	r3, #50	; 0x32
 80049ce:	fba7 7303 	umull	r7, r3, r7, r3
 80049d2:	f3c3 1343 	ubfx	r3, r3, #5, #4
 80049d6:	6822      	ldr	r2, [r4, #0]
 80049d8:	441d      	add	r5, r3
 80049da:	6095      	str	r5, [r2, #8]
 80049dc:	e7a8      	b.n	8004930 <UART_SetConfig+0xec>
 80049de:	bf00      	nop
 80049e0:	40013800 	.word	0x40013800
 80049e4:	51eb851f 	.word	0x51eb851f

080049e8 <HAL_UART_Init>:
  if(huart == NULL)
 80049e8:	b358      	cbz	r0, 8004a42 <HAL_UART_Init+0x5a>
{
 80049ea:	b510      	push	{r4, lr}
 80049ec:	4604      	mov	r4, r0
  if(huart->gState == HAL_UART_STATE_RESET)
 80049ee:	f890 3039 	ldrb.w	r3, [r0, #57]	; 0x39
 80049f2:	b30b      	cbz	r3, 8004a38 <HAL_UART_Init+0x50>
  huart->gState = HAL_UART_STATE_BUSY;
 80049f4:	2324      	movs	r3, #36	; 0x24
 80049f6:	f884 3039 	strb.w	r3, [r4, #57]	; 0x39
  __HAL_UART_DISABLE(huart);
 80049fa:	6822      	ldr	r2, [r4, #0]
 80049fc:	68d3      	ldr	r3, [r2, #12]
 80049fe:	f423 5300 	bic.w	r3, r3, #8192	; 0x2000
 8004a02:	60d3      	str	r3, [r2, #12]
  UART_SetConfig(huart);
 8004a04:	4620      	mov	r0, r4
 8004a06:	f7ff ff1d 	bl	8004844 <UART_SetConfig>
  CLEAR_BIT(huart->Instance->CR2, (USART_CR2_LINEN | USART_CR2_CLKEN));
 8004a0a:	6822      	ldr	r2, [r4, #0]
 8004a0c:	6913      	ldr	r3, [r2, #16]
 8004a0e:	f423 4390 	bic.w	r3, r3, #18432	; 0x4800
 8004a12:	6113      	str	r3, [r2, #16]
  CLEAR_BIT(huart->Instance->CR3, (USART_CR3_SCEN | USART_CR3_HDSEL | USART_CR3_IREN));
 8004a14:	6822      	ldr	r2, [r4, #0]
 8004a16:	6953      	ldr	r3, [r2, #20]
 8004a18:	f023 032a 	bic.w	r3, r3, #42	; 0x2a
 8004a1c:	6153      	str	r3, [r2, #20]
  __HAL_UART_ENABLE(huart);
 8004a1e:	6822      	ldr	r2, [r4, #0]
 8004a20:	68d3      	ldr	r3, [r2, #12]
 8004a22:	f443 5300 	orr.w	r3, r3, #8192	; 0x2000
 8004a26:	60d3      	str	r3, [r2, #12]
  huart->ErrorCode = HAL_UART_ERROR_NONE;
 8004a28:	2000      	movs	r0, #0
 8004a2a:	63e0      	str	r0, [r4, #60]	; 0x3c
  huart->gState= HAL_UART_STATE_READY;
 8004a2c:	2320      	movs	r3, #32
 8004a2e:	f884 3039 	strb.w	r3, [r4, #57]	; 0x39
  huart->RxState= HAL_UART_STATE_READY;
 8004a32:	f884 303a 	strb.w	r3, [r4, #58]	; 0x3a
}
 8004a36:	bd10      	pop	{r4, pc}
    huart->Lock = HAL_UNLOCKED;
 8004a38:	f880 3038 	strb.w	r3, [r0, #56]	; 0x38
    HAL_UART_MspInit(huart);
 8004a3c:	f7fd fc9e 	bl	800237c <HAL_UART_MspInit>
 8004a40:	e7d8      	b.n	80049f4 <HAL_UART_Init+0xc>
    return HAL_ERROR;
 8004a42:	2001      	movs	r0, #1
}
 8004a44:	4770      	bx	lr

08004a46 <HAL_UART_Transmit_IT>:
  if(huart->gState == HAL_UART_STATE_READY)
 8004a46:	f890 3039 	ldrb.w	r3, [r0, #57]	; 0x39
 8004a4a:	b2db      	uxtb	r3, r3
 8004a4c:	2b20      	cmp	r3, #32
 8004a4e:	d119      	bne.n	8004a84 <HAL_UART_Transmit_IT+0x3e>
    if((pData == NULL) || (Size == 0U)) 
 8004a50:	b1d1      	cbz	r1, 8004a88 <HAL_UART_Transmit_IT+0x42>
 8004a52:	b1da      	cbz	r2, 8004a8c <HAL_UART_Transmit_IT+0x46>
    __HAL_LOCK(huart);
 8004a54:	f890 3038 	ldrb.w	r3, [r0, #56]	; 0x38
 8004a58:	2b01      	cmp	r3, #1
 8004a5a:	d019      	beq.n	8004a90 <HAL_UART_Transmit_IT+0x4a>
 8004a5c:	2301      	movs	r3, #1
 8004a5e:	f880 3038 	strb.w	r3, [r0, #56]	; 0x38
    huart->pTxBuffPtr = pData;
 8004a62:	6201      	str	r1, [r0, #32]
    huart->TxXferSize = Size;
 8004a64:	8482      	strh	r2, [r0, #36]	; 0x24
    huart->TxXferCount = Size;
 8004a66:	84c2      	strh	r2, [r0, #38]	; 0x26
    huart->ErrorCode = HAL_UART_ERROR_NONE;
 8004a68:	2300      	movs	r3, #0
 8004a6a:	63c3      	str	r3, [r0, #60]	; 0x3c
    huart->gState = HAL_UART_STATE_BUSY_TX;
 8004a6c:	2221      	movs	r2, #33	; 0x21
 8004a6e:	f880 2039 	strb.w	r2, [r0, #57]	; 0x39
    __HAL_UNLOCK(huart);
 8004a72:	f880 3038 	strb.w	r3, [r0, #56]	; 0x38
    __HAL_UART_ENABLE_IT(huart, UART_IT_TXE);
 8004a76:	6801      	ldr	r1, [r0, #0]
 8004a78:	68ca      	ldr	r2, [r1, #12]
 8004a7a:	f042 0280 	orr.w	r2, r2, #128	; 0x80
 8004a7e:	60ca      	str	r2, [r1, #12]
    return HAL_OK;
 8004a80:	4618      	mov	r0, r3
 8004a82:	4770      	bx	lr
    return HAL_BUSY;
 8004a84:	2002      	movs	r0, #2
 8004a86:	4770      	bx	lr
      return HAL_ERROR;
 8004a88:	2001      	movs	r0, #1
 8004a8a:	4770      	bx	lr
 8004a8c:	2001      	movs	r0, #1
 8004a8e:	4770      	bx	lr
    __HAL_LOCK(huart);
 8004a90:	2002      	movs	r0, #2
}
 8004a92:	4770      	bx	lr

08004a94 <HAL_UART_Receive_IT>:
  if(huart->RxState == HAL_UART_STATE_READY)
 8004a94:	f890 303a 	ldrb.w	r3, [r0, #58]	; 0x3a
 8004a98:	b2db      	uxtb	r3, r3
 8004a9a:	2b20      	cmp	r3, #32
 8004a9c:	d123      	bne.n	8004ae6 <HAL_UART_Receive_IT+0x52>
    if((pData == NULL) || (Size == 0U))
 8004a9e:	b321      	cbz	r1, 8004aea <HAL_UART_Receive_IT+0x56>
 8004aa0:	b32a      	cbz	r2, 8004aee <HAL_UART_Receive_IT+0x5a>
    __HAL_LOCK(huart);
 8004aa2:	f890 3038 	ldrb.w	r3, [r0, #56]	; 0x38
 8004aa6:	2b01      	cmp	r3, #1
 8004aa8:	d023      	beq.n	8004af2 <HAL_UART_Receive_IT+0x5e>
 8004aaa:	2301      	movs	r3, #1
 8004aac:	f880 3038 	strb.w	r3, [r0, #56]	; 0x38
    huart->pRxBuffPtr = pData;
 8004ab0:	6281      	str	r1, [r0, #40]	; 0x28
    huart->RxXferSize = Size;
 8004ab2:	8582      	strh	r2, [r0, #44]	; 0x2c
    huart->RxXferCount = Size;
 8004ab4:	85c2      	strh	r2, [r0, #46]	; 0x2e
    huart->ErrorCode = HAL_UART_ERROR_NONE;
 8004ab6:	2300      	movs	r3, #0
 8004ab8:	63c3      	str	r3, [r0, #60]	; 0x3c
    huart->RxState = HAL_UART_STATE_BUSY_RX;
 8004aba:	2222      	movs	r2, #34	; 0x22
 8004abc:	f880 203a 	strb.w	r2, [r0, #58]	; 0x3a
    __HAL_UNLOCK(huart);
 8004ac0:	f880 3038 	strb.w	r3, [r0, #56]	; 0x38
    __HAL_UART_ENABLE_IT(huart, UART_IT_PE);
 8004ac4:	6801      	ldr	r1, [r0, #0]
 8004ac6:	68ca      	ldr	r2, [r1, #12]
 8004ac8:	f442 7280 	orr.w	r2, r2, #256	; 0x100
 8004acc:	60ca      	str	r2, [r1, #12]
    __HAL_UART_ENABLE_IT(huart, UART_IT_ERR);
 8004ace:	6801      	ldr	r1, [r0, #0]
 8004ad0:	694a      	ldr	r2, [r1, #20]
 8004ad2:	f042 0201 	orr.w	r2, r2, #1
 8004ad6:	614a      	str	r2, [r1, #20]
    __HAL_UART_ENABLE_IT(huart, UART_IT_RXNE);
 8004ad8:	6801      	ldr	r1, [r0, #0]
 8004ada:	68ca      	ldr	r2, [r1, #12]
 8004adc:	f042 0220 	orr.w	r2, r2, #32
 8004ae0:	60ca      	str	r2, [r1, #12]
    return HAL_OK;
 8004ae2:	4618      	mov	r0, r3
 8004ae4:	4770      	bx	lr
    return HAL_BUSY;
 8004ae6:	2002      	movs	r0, #2
 8004ae8:	4770      	bx	lr
      return HAL_ERROR;
 8004aea:	2001      	movs	r0, #1
 8004aec:	4770      	bx	lr
 8004aee:	2001      	movs	r0, #1
 8004af0:	4770      	bx	lr
    __HAL_LOCK(huart);
 8004af2:	2002      	movs	r0, #2
}
 8004af4:	4770      	bx	lr

08004af6 <HAL_UART_TxCpltCallback>:
}
 8004af6:	4770      	bx	lr

08004af8 <UART_EndTransmit_IT>:
{
 8004af8:	b508      	push	{r3, lr}
  __HAL_UART_DISABLE_IT(huart, UART_IT_TC);
 8004afa:	6801      	ldr	r1, [r0, #0]
 8004afc:	68ca      	ldr	r2, [r1, #12]
 8004afe:	f022 0240 	bic.w	r2, r2, #64	; 0x40
 8004b02:	60ca      	str	r2, [r1, #12]
  huart->gState = HAL_UART_STATE_READY;
 8004b04:	2220      	movs	r2, #32
 8004b06:	f880 2039 	strb.w	r2, [r0, #57]	; 0x39
  HAL_UART_TxCpltCallback(huart);
 8004b0a:	f7ff fff4 	bl	8004af6 <HAL_UART_TxCpltCallback>
}
 8004b0e:	2000      	movs	r0, #0
 8004b10:	bd08      	pop	{r3, pc}

08004b12 <UART_Receive_IT>:
{
 8004b12:	b508      	push	{r3, lr}
  if(huart->RxState == HAL_UART_STATE_BUSY_RX) 
 8004b14:	f890 303a 	ldrb.w	r3, [r0, #58]	; 0x3a
 8004b18:	b2db      	uxtb	r3, r3
 8004b1a:	2b22      	cmp	r3, #34	; 0x22
 8004b1c:	d146      	bne.n	8004bac <UART_Receive_IT+0x9a>
    if(huart->Init.WordLength == UART_WORDLENGTH_9B)
 8004b1e:	6883      	ldr	r3, [r0, #8]
 8004b20:	f5b3 5f80 	cmp.w	r3, #4096	; 0x1000
 8004b24:	d00f      	beq.n	8004b46 <UART_Receive_IT+0x34>
      if(huart->Init.Parity == UART_PARITY_NONE)
 8004b26:	6903      	ldr	r3, [r0, #16]
 8004b28:	bb0b      	cbnz	r3, 8004b6e <UART_Receive_IT+0x5c>
        *huart->pRxBuffPtr++ = (uint8_t)(huart->Instance->DR & (uint8_t)0x00FF);
 8004b2a:	6803      	ldr	r3, [r0, #0]
 8004b2c:	685a      	ldr	r2, [r3, #4]
 8004b2e:	6a83      	ldr	r3, [r0, #40]	; 0x28
 8004b30:	1c59      	adds	r1, r3, #1
 8004b32:	6281      	str	r1, [r0, #40]	; 0x28
 8004b34:	701a      	strb	r2, [r3, #0]
    if(--huart->RxXferCount == 0U)
 8004b36:	8dc3      	ldrh	r3, [r0, #46]	; 0x2e
 8004b38:	b29b      	uxth	r3, r3
 8004b3a:	3b01      	subs	r3, #1
 8004b3c:	b29b      	uxth	r3, r3
 8004b3e:	85c3      	strh	r3, [r0, #46]	; 0x2e
 8004b40:	b1f3      	cbz	r3, 8004b80 <UART_Receive_IT+0x6e>
    return HAL_OK;
 8004b42:	2000      	movs	r0, #0
}
 8004b44:	bd08      	pop	{r3, pc}
      tmp = (uint16_t*) huart->pRxBuffPtr;
 8004b46:	6a82      	ldr	r2, [r0, #40]	; 0x28
      if(huart->Init.Parity == UART_PARITY_NONE)
 8004b48:	6903      	ldr	r3, [r0, #16]
 8004b4a:	b943      	cbnz	r3, 8004b5e <UART_Receive_IT+0x4c>
        *tmp = (uint16_t)(huart->Instance->DR & (uint16_t)0x01FF);
 8004b4c:	6803      	ldr	r3, [r0, #0]
 8004b4e:	685b      	ldr	r3, [r3, #4]
 8004b50:	f3c3 0308 	ubfx	r3, r3, #0, #9
 8004b54:	8013      	strh	r3, [r2, #0]
        huart->pRxBuffPtr += 2U;
 8004b56:	6a83      	ldr	r3, [r0, #40]	; 0x28
 8004b58:	3302      	adds	r3, #2
 8004b5a:	6283      	str	r3, [r0, #40]	; 0x28
 8004b5c:	e7eb      	b.n	8004b36 <UART_Receive_IT+0x24>
        *tmp = (uint16_t)(huart->Instance->DR & (uint16_t)0x00FF);
 8004b5e:	6803      	ldr	r3, [r0, #0]
 8004b60:	685b      	ldr	r3, [r3, #4]
 8004b62:	b2db      	uxtb	r3, r3
 8004b64:	8013      	strh	r3, [r2, #0]
        huart->pRxBuffPtr += 1U;
 8004b66:	6a83      	ldr	r3, [r0, #40]	; 0x28
 8004b68:	3301      	adds	r3, #1
 8004b6a:	6283      	str	r3, [r0, #40]	; 0x28
 8004b6c:	e7e3      	b.n	8004b36 <UART_Receive_IT+0x24>
        *huart->pRxBuffPtr++ = (uint8_t)(huart->Instance->DR & (uint8_t)0x007F);
 8004b6e:	6803      	ldr	r3, [r0, #0]
 8004b70:	685b      	ldr	r3, [r3, #4]
 8004b72:	6a82      	ldr	r2, [r0, #40]	; 0x28
 8004b74:	1c51      	adds	r1, r2, #1
 8004b76:	6281      	str	r1, [r0, #40]	; 0x28
 8004b78:	f003 037f 	and.w	r3, r3, #127	; 0x7f
 8004b7c:	7013      	strb	r3, [r2, #0]
 8004b7e:	e7da      	b.n	8004b36 <UART_Receive_IT+0x24>
      __HAL_UART_DISABLE_IT(huart, UART_IT_RXNE);
 8004b80:	6802      	ldr	r2, [r0, #0]
 8004b82:	68d3      	ldr	r3, [r2, #12]
 8004b84:	f023 0320 	bic.w	r3, r3, #32
 8004b88:	60d3      	str	r3, [r2, #12]
      __HAL_UART_DISABLE_IT(huart, UART_IT_PE);
 8004b8a:	6802      	ldr	r2, [r0, #0]
 8004b8c:	68d3      	ldr	r3, [r2, #12]
 8004b8e:	f423 7380 	bic.w	r3, r3, #256	; 0x100
 8004b92:	60d3      	str	r3, [r2, #12]
        __HAL_UART_DISABLE_IT(huart, UART_IT_ERR);
 8004b94:	6802      	ldr	r2, [r0, #0]
 8004b96:	6953      	ldr	r3, [r2, #20]
 8004b98:	f023 0301 	bic.w	r3, r3, #1
 8004b9c:	6153      	str	r3, [r2, #20]
      huart->RxState = HAL_UART_STATE_READY;
 8004b9e:	2320      	movs	r3, #32
 8004ba0:	f880 303a 	strb.w	r3, [r0, #58]	; 0x3a
      HAL_UART_RxCpltCallback(huart);
 8004ba4:	f7fd fbb2 	bl	800230c <HAL_UART_RxCpltCallback>
      return HAL_OK;
 8004ba8:	2000      	movs	r0, #0
 8004baa:	e7cb      	b.n	8004b44 <UART_Receive_IT+0x32>
    return HAL_BUSY;
 8004bac:	2002      	movs	r0, #2
 8004bae:	e7c9      	b.n	8004b44 <UART_Receive_IT+0x32>

08004bb0 <HAL_UART_IRQHandler>:
{
 8004bb0:	b510      	push	{r4, lr}
 8004bb2:	4604      	mov	r4, r0
   uint32_t isrflags   = READ_REG(huart->Instance->SR);
 8004bb4:	6802      	ldr	r2, [r0, #0]
 8004bb6:	6813      	ldr	r3, [r2, #0]
   uint32_t cr1its     = READ_REG(huart->Instance->CR1);
 8004bb8:	68d1      	ldr	r1, [r2, #12]
   uint32_t cr3its     = READ_REG(huart->Instance->CR3);
 8004bba:	6952      	ldr	r2, [r2, #20]
  if(errorflags == RESET)
 8004bbc:	f013 000f 	ands.w	r0, r3, #15
 8004bc0:	d105      	bne.n	8004bce <HAL_UART_IRQHandler+0x1e>
    if(((isrflags & USART_SR_RXNE) != RESET) && ((cr1its & USART_CR1_RXNEIE) != RESET))
 8004bc2:	f013 0f20 	tst.w	r3, #32
 8004bc6:	d002      	beq.n	8004bce <HAL_UART_IRQHandler+0x1e>
 8004bc8:	f011 0f20 	tst.w	r1, #32
 8004bcc:	d113      	bne.n	8004bf6 <HAL_UART_IRQHandler+0x46>
  if((errorflags != RESET) && (((cr3its & USART_CR3_EIE) != RESET) || ((cr1its & (USART_CR1_RXNEIE | USART_CR1_PEIE)) != RESET)))
 8004bce:	b128      	cbz	r0, 8004bdc <HAL_UART_IRQHandler+0x2c>
 8004bd0:	f012 0201 	ands.w	r2, r2, #1
 8004bd4:	d113      	bne.n	8004bfe <HAL_UART_IRQHandler+0x4e>
 8004bd6:	f411 7f90 	tst.w	r1, #288	; 0x120
 8004bda:	d110      	bne.n	8004bfe <HAL_UART_IRQHandler+0x4e>
  if(((isrflags & USART_SR_TXE) != RESET) && ((cr1its & USART_CR1_TXEIE) != RESET))
 8004bdc:	f013 0f80 	tst.w	r3, #128	; 0x80
 8004be0:	d002      	beq.n	8004be8 <HAL_UART_IRQHandler+0x38>
 8004be2:	f011 0f80 	tst.w	r1, #128	; 0x80
 8004be6:	d169      	bne.n	8004cbc <HAL_UART_IRQHandler+0x10c>
  if(((isrflags & USART_SR_TC) != RESET) && ((cr1its & USART_CR1_TCIE) != RESET))
 8004be8:	f013 0f40 	tst.w	r3, #64	; 0x40
 8004bec:	d002      	beq.n	8004bf4 <HAL_UART_IRQHandler+0x44>
 8004bee:	f011 0f40 	tst.w	r1, #64	; 0x40
 8004bf2:	d167      	bne.n	8004cc4 <HAL_UART_IRQHandler+0x114>
}
 8004bf4:	bd10      	pop	{r4, pc}
      UART_Receive_IT(huart);
 8004bf6:	4620      	mov	r0, r4
 8004bf8:	f7ff ff8b 	bl	8004b12 <UART_Receive_IT>
      return;
 8004bfc:	e7fa      	b.n	8004bf4 <HAL_UART_IRQHandler+0x44>
    if(((isrflags & USART_SR_PE) != RESET) && ((cr1its & USART_CR1_PEIE) != RESET))
 8004bfe:	f013 0f01 	tst.w	r3, #1
 8004c02:	d006      	beq.n	8004c12 <HAL_UART_IRQHandler+0x62>
 8004c04:	f411 7f80 	tst.w	r1, #256	; 0x100
 8004c08:	d003      	beq.n	8004c12 <HAL_UART_IRQHandler+0x62>
      huart->ErrorCode |= HAL_UART_ERROR_PE;
 8004c0a:	6be0      	ldr	r0, [r4, #60]	; 0x3c
 8004c0c:	f040 0001 	orr.w	r0, r0, #1
 8004c10:	63e0      	str	r0, [r4, #60]	; 0x3c
    if(((isrflags & USART_SR_NE) != RESET) && ((cr3its & USART_CR3_EIE) != RESET))
 8004c12:	f013 0f04 	tst.w	r3, #4
 8004c16:	d004      	beq.n	8004c22 <HAL_UART_IRQHandler+0x72>
 8004c18:	b11a      	cbz	r2, 8004c22 <HAL_UART_IRQHandler+0x72>
      huart->ErrorCode |= HAL_UART_ERROR_NE;
 8004c1a:	6be0      	ldr	r0, [r4, #60]	; 0x3c
 8004c1c:	f040 0002 	orr.w	r0, r0, #2
 8004c20:	63e0      	str	r0, [r4, #60]	; 0x3c
    if(((isrflags & USART_SR_FE) != RESET) && ((cr3its & USART_CR3_EIE) != RESET))
 8004c22:	f013 0f02 	tst.w	r3, #2
 8004c26:	d004      	beq.n	8004c32 <HAL_UART_IRQHandler+0x82>
 8004c28:	b11a      	cbz	r2, 8004c32 <HAL_UART_IRQHandler+0x82>
      huart->ErrorCode |= HAL_UART_ERROR_FE;
 8004c2a:	6be0      	ldr	r0, [r4, #60]	; 0x3c
 8004c2c:	f040 0004 	orr.w	r0, r0, #4
 8004c30:	63e0      	str	r0, [r4, #60]	; 0x3c
    if(((isrflags & USART_SR_ORE) != RESET) && ((cr3its & USART_CR3_EIE) != RESET))
 8004c32:	f013 0f08 	tst.w	r3, #8
 8004c36:	d004      	beq.n	8004c42 <HAL_UART_IRQHandler+0x92>
 8004c38:	b11a      	cbz	r2, 8004c42 <HAL_UART_IRQHandler+0x92>
      huart->ErrorCode |= HAL_UART_ERROR_ORE;
 8004c3a:	6be2      	ldr	r2, [r4, #60]	; 0x3c
 8004c3c:	f042 0208 	orr.w	r2, r2, #8
 8004c40:	63e2      	str	r2, [r4, #60]	; 0x3c
    if(huart->ErrorCode != HAL_UART_ERROR_NONE)
 8004c42:	6be2      	ldr	r2, [r4, #60]	; 0x3c
 8004c44:	2a00      	cmp	r2, #0
 8004c46:	d0d5      	beq.n	8004bf4 <HAL_UART_IRQHandler+0x44>
      if(((isrflags & USART_SR_RXNE) != RESET) && ((cr1its & USART_CR1_RXNEIE) != RESET))
 8004c48:	f013 0f20 	tst.w	r3, #32
 8004c4c:	d002      	beq.n	8004c54 <HAL_UART_IRQHandler+0xa4>
 8004c4e:	f011 0f20 	tst.w	r1, #32
 8004c52:	d121      	bne.n	8004c98 <HAL_UART_IRQHandler+0xe8>
      dmarequest = HAL_IS_BIT_SET(huart->Instance->CR3, USART_CR3_DMAR);
 8004c54:	6823      	ldr	r3, [r4, #0]
 8004c56:	695b      	ldr	r3, [r3, #20]
 8004c58:	f003 0340 	and.w	r3, r3, #64	; 0x40
      if(((huart->ErrorCode & HAL_UART_ERROR_ORE) != RESET) || dmarequest)
 8004c5c:	6be2      	ldr	r2, [r4, #60]	; 0x3c
 8004c5e:	f012 0f08 	tst.w	r2, #8
 8004c62:	d100      	bne.n	8004c66 <HAL_UART_IRQHandler+0xb6>
 8004c64:	b323      	cbz	r3, 8004cb0 <HAL_UART_IRQHandler+0x100>
        UART_EndRxTransfer(huart);
 8004c66:	4620      	mov	r0, r4
 8004c68:	f7ff fdaa 	bl	80047c0 <UART_EndRxTransfer>
        if(HAL_IS_BIT_SET(huart->Instance->CR3, USART_CR3_DMAR))
 8004c6c:	6823      	ldr	r3, [r4, #0]
 8004c6e:	695a      	ldr	r2, [r3, #20]
 8004c70:	f012 0f40 	tst.w	r2, #64	; 0x40
 8004c74:	d018      	beq.n	8004ca8 <HAL_UART_IRQHandler+0xf8>
          CLEAR_BIT(huart->Instance->CR3, USART_CR3_DMAR);
 8004c76:	695a      	ldr	r2, [r3, #20]
 8004c78:	f022 0240 	bic.w	r2, r2, #64	; 0x40
 8004c7c:	615a      	str	r2, [r3, #20]
          if(huart->hdmarx != NULL)
 8004c7e:	6b63      	ldr	r3, [r4, #52]	; 0x34
 8004c80:	b173      	cbz	r3, 8004ca0 <HAL_UART_IRQHandler+0xf0>
            huart->hdmarx->XferAbortCallback = UART_DMAAbortOnError;
 8004c82:	4a12      	ldr	r2, [pc, #72]	; (8004ccc <HAL_UART_IRQHandler+0x11c>)
 8004c84:	635a      	str	r2, [r3, #52]	; 0x34
            if(HAL_DMA_Abort_IT(huart->hdmarx) != HAL_OK)
 8004c86:	6b60      	ldr	r0, [r4, #52]	; 0x34
 8004c88:	f7fe fe2e 	bl	80038e8 <HAL_DMA_Abort_IT>
 8004c8c:	2800      	cmp	r0, #0
 8004c8e:	d0b1      	beq.n	8004bf4 <HAL_UART_IRQHandler+0x44>
              huart->hdmarx->XferAbortCallback(huart->hdmarx);
 8004c90:	6b60      	ldr	r0, [r4, #52]	; 0x34
 8004c92:	6b43      	ldr	r3, [r0, #52]	; 0x34
 8004c94:	4798      	blx	r3
 8004c96:	e7ad      	b.n	8004bf4 <HAL_UART_IRQHandler+0x44>
        UART_Receive_IT(huart);
 8004c98:	4620      	mov	r0, r4
 8004c9a:	f7ff ff3a 	bl	8004b12 <UART_Receive_IT>
 8004c9e:	e7d9      	b.n	8004c54 <HAL_UART_IRQHandler+0xa4>
            HAL_UART_ErrorCallback(huart);
 8004ca0:	4620      	mov	r0, r4
 8004ca2:	f7fd fc05 	bl	80024b0 <HAL_UART_ErrorCallback>
 8004ca6:	e7a5      	b.n	8004bf4 <HAL_UART_IRQHandler+0x44>
          HAL_UART_ErrorCallback(huart);
 8004ca8:	4620      	mov	r0, r4
 8004caa:	f7fd fc01 	bl	80024b0 <HAL_UART_ErrorCallback>
 8004cae:	e7a1      	b.n	8004bf4 <HAL_UART_IRQHandler+0x44>
        HAL_UART_ErrorCallback(huart);
 8004cb0:	4620      	mov	r0, r4
 8004cb2:	f7fd fbfd 	bl	80024b0 <HAL_UART_ErrorCallback>
        huart->ErrorCode = HAL_UART_ERROR_NONE;
 8004cb6:	2300      	movs	r3, #0
 8004cb8:	63e3      	str	r3, [r4, #60]	; 0x3c
    return;
 8004cba:	e79b      	b.n	8004bf4 <HAL_UART_IRQHandler+0x44>
    UART_Transmit_IT(huart);
 8004cbc:	4620      	mov	r0, r4
 8004cbe:	f7ff fd8d 	bl	80047dc <UART_Transmit_IT>
    return;
 8004cc2:	e797      	b.n	8004bf4 <HAL_UART_IRQHandler+0x44>
    UART_EndTransmit_IT(huart);
 8004cc4:	4620      	mov	r0, r4
 8004cc6:	f7ff ff17 	bl	8004af8 <UART_EndTransmit_IT>
    return;
 8004cca:	e793      	b.n	8004bf4 <HAL_UART_IRQHandler+0x44>
 8004ccc:	08004cd1 	.word	0x08004cd1

08004cd0 <UART_DMAAbortOnError>:
{
 8004cd0:	b508      	push	{r3, lr}
  UART_HandleTypeDef* huart = ( UART_HandleTypeDef* )((DMA_HandleTypeDef* )hdma)->Parent;
 8004cd2:	6a40      	ldr	r0, [r0, #36]	; 0x24
  huart->RxXferCount = 0x00U;
 8004cd4:	2300      	movs	r3, #0
 8004cd6:	85c3      	strh	r3, [r0, #46]	; 0x2e
  huart->TxXferCount = 0x00U;
 8004cd8:	84c3      	strh	r3, [r0, #38]	; 0x26
  HAL_UART_ErrorCallback(huart);
 8004cda:	f7fd fbe9 	bl	80024b0 <HAL_UART_ErrorCallback>
}
 8004cde:	bd08      	pop	{r3, pc}

08004ce0 <Reset_Handler>:
  movs r1, #0
 8004ce0:	2100      	movs	r1, #0
  b LoopCopyDataInit
 8004ce2:	e003      	b.n	8004cec <LoopCopyDataInit>

08004ce4 <CopyDataInit>:
  ldr r3, =_sidata
 8004ce4:	4b12      	ldr	r3, [pc, #72]	; (8004d30 <LoopPaintStack+0x20>)
  ldr r3, [r3, r1]
 8004ce6:	585b      	ldr	r3, [r3, r1]
  str r3, [r0, r1]
 8004ce8:	5043      	str	r3, [r0, r1]
  adds r1, r1, #4
 8004cea:	3104      	adds	r1, #4

08004cec <LoopCopyDataInit>:
  ldr r0, =_sdata
 8004cec:	4811      	ldr	r0, [pc, #68]	; (8004d34 <LoopPaintStack+0x24>)
  ldr r3, =_edata
 8004cee:	4b12      	ldr	r3, [pc, #72]	; (8004d38 <LoopPaintStack+0x28>)
  adds r2, r0, r1
 8004cf0:	1842      	adds	r2, r0, r1
  cmp r2, r3
 8004cf2:	429a      	cmp	r2, r3
  bcc CopyDataInit
 8004cf4:	d3f6      	bcc.n	8004ce4 <CopyDataInit>
  ldr r2, =_sbss
 8004cf6:	4a11      	ldr	r2, [pc, #68]	; (8004d3c <LoopPaintStack+0x2c>)
  b LoopFillZerobss
 8004cf8:	e002      	b.n	8004d00 <LoopFillZerobss>

08004cfa <FillZerobss>:
  movs r3, #0
 8004cfa:	2300      	movs	r3, #0
  str r3, [r2], #4
 8004cfc:	f842 3b04 	str.w	r3, [r2], #4

08004d00 <LoopFillZerobss>:
  ldr r3, = _ebss
 8004d00:	4b0f      	ldr	r3, [pc, #60]	; (8004d40 <LoopPaintStack+0x30>)
  cmp r2, r3
 8004d02:	429a      	cmp	r2, r3
  bcc FillZerobss
 8004d04:	d3f9      	bcc.n	8004cfa <FillZerobss>
  ldr r3, =0x55555555
 8004d06:	f04f 3355 	mov.w	r3, #1431655765	; 0x55555555
  sub ip, sp, #4
 8004d0a:	f1ad 0c04 	sub.w	ip, sp, #4
  ldr r2, = _ebss
 8004d0e:	4a0c      	ldr	r2, [pc, #48]	; (8004d40 <LoopPaintStack+0x30>)

08004d10 <LoopPaintStack>:
	str r3, [ip], #-4
 8004d10:	f84c 3904 	str.w	r3, [ip], #-4
	cmp ip, r2
 8004d14:	4594      	cmp	ip, r2
	bne LoopPaintStack
 8004d16:	d1fb      	bne.n	8004d10 <LoopPaintStack>
    bl  SystemInit
 8004d18:	f7fd fd78 	bl	800280c <SystemInit>
    bl  SystemCoreClockUpdate
 8004d1c:	f7fd fd9c 	bl	8002858 <SystemCoreClockUpdate>
    bl  SYS_NVIC_PriorityGrouping
 8004d20:	f7fc fe78 	bl	8001a14 <SYS_NVIC_PriorityGrouping>
    bl __libc_init_array
 8004d24:	f002 fe8c 	bl	8007a40 <__libc_init_array>
  bl main
 8004d28:	f7fc fb60 	bl	80013ec <main>
  b Infinite_Loop
 8004d2c:	f000 b80a 	b.w	8004d44 <Default_Handler>
  ldr r3, =_sidata
 8004d30:	0800c7b4 	.word	0x0800c7b4
  ldr r0, =_sdata
 8004d34:	20000000 	.word	0x20000000
  ldr r3, =_edata
 8004d38:	200006e8 	.word	0x200006e8
  ldr r2, =_sbss
 8004d3c:	200006e8 	.word	0x200006e8
  ldr r3, = _ebss
 8004d40:	2000109c 	.word	0x2000109c

08004d44 <Default_Handler>:
 * @retval : None
*/
    .section .text.Default_Handler,"ax",%progbits
Default_Handler:
Infinite_Loop:
  b Infinite_Loop
 8004d44:	e7fe      	b.n	8004d44 <Default_Handler>
	...

08004d48 <malloc>:
 8004d48:	4b02      	ldr	r3, [pc, #8]	; (8004d54 <malloc+0xc>)
 8004d4a:	4601      	mov	r1, r0
 8004d4c:	6818      	ldr	r0, [r3, #0]
 8004d4e:	f000 b803 	b.w	8004d58 <_malloc_r>
 8004d52:	bf00      	nop
 8004d54:	200006e0 	.word	0x200006e0

08004d58 <_malloc_r>:
 8004d58:	f101 030b 	add.w	r3, r1, #11
 8004d5c:	2b16      	cmp	r3, #22
 8004d5e:	e92d 4ff7 	stmdb	sp!, {r0, r1, r2, r4, r5, r6, r7, r8, r9, sl, fp, lr}
 8004d62:	4605      	mov	r5, r0
 8004d64:	d906      	bls.n	8004d74 <_malloc_r+0x1c>
 8004d66:	f033 0707 	bics.w	r7, r3, #7
 8004d6a:	d504      	bpl.n	8004d76 <_malloc_r+0x1e>
 8004d6c:	230c      	movs	r3, #12
 8004d6e:	602b      	str	r3, [r5, #0]
 8004d70:	2400      	movs	r4, #0
 8004d72:	e1a1      	b.n	80050b8 <_malloc_r+0x360>
 8004d74:	2710      	movs	r7, #16
 8004d76:	42b9      	cmp	r1, r7
 8004d78:	d8f8      	bhi.n	8004d6c <_malloc_r+0x14>
 8004d7a:	4628      	mov	r0, r5
 8004d7c:	f002 f994 	bl	80070a8 <__malloc_lock>
 8004d80:	f5b7 7ffc 	cmp.w	r7, #504	; 0x1f8
 8004d84:	4eae      	ldr	r6, [pc, #696]	; (8005040 <_malloc_r+0x2e8>)
 8004d86:	d237      	bcs.n	8004df8 <_malloc_r+0xa0>
 8004d88:	f107 0208 	add.w	r2, r7, #8
 8004d8c:	4432      	add	r2, r6
 8004d8e:	6854      	ldr	r4, [r2, #4]
 8004d90:	f1a2 0108 	sub.w	r1, r2, #8
 8004d94:	428c      	cmp	r4, r1
 8004d96:	ea4f 03d7 	mov.w	r3, r7, lsr #3
 8004d9a:	d102      	bne.n	8004da2 <_malloc_r+0x4a>
 8004d9c:	68d4      	ldr	r4, [r2, #12]
 8004d9e:	42a2      	cmp	r2, r4
 8004da0:	d010      	beq.n	8004dc4 <_malloc_r+0x6c>
 8004da2:	6863      	ldr	r3, [r4, #4]
 8004da4:	e9d4 1202 	ldrd	r1, r2, [r4, #8]
 8004da8:	f023 0303 	bic.w	r3, r3, #3
 8004dac:	60ca      	str	r2, [r1, #12]
 8004dae:	4423      	add	r3, r4
 8004db0:	6091      	str	r1, [r2, #8]
 8004db2:	685a      	ldr	r2, [r3, #4]
 8004db4:	f042 0201 	orr.w	r2, r2, #1
 8004db8:	605a      	str	r2, [r3, #4]
 8004dba:	4628      	mov	r0, r5
 8004dbc:	f002 f97a 	bl	80070b4 <__malloc_unlock>
 8004dc0:	3408      	adds	r4, #8
 8004dc2:	e179      	b.n	80050b8 <_malloc_r+0x360>
 8004dc4:	3302      	adds	r3, #2
 8004dc6:	6934      	ldr	r4, [r6, #16]
 8004dc8:	499e      	ldr	r1, [pc, #632]	; (8005044 <_malloc_r+0x2ec>)
 8004dca:	428c      	cmp	r4, r1
 8004dcc:	d077      	beq.n	8004ebe <_malloc_r+0x166>
 8004dce:	6862      	ldr	r2, [r4, #4]
 8004dd0:	f022 0c03 	bic.w	ip, r2, #3
 8004dd4:	ebac 0007 	sub.w	r0, ip, r7
 8004dd8:	280f      	cmp	r0, #15
 8004dda:	dd48      	ble.n	8004e6e <_malloc_r+0x116>
 8004ddc:	19e2      	adds	r2, r4, r7
 8004dde:	f040 0301 	orr.w	r3, r0, #1
 8004de2:	f047 0701 	orr.w	r7, r7, #1
 8004de6:	6067      	str	r7, [r4, #4]
 8004de8:	e9c6 2204 	strd	r2, r2, [r6, #16]
 8004dec:	e9c2 1102 	strd	r1, r1, [r2, #8]
 8004df0:	6053      	str	r3, [r2, #4]
 8004df2:	f844 000c 	str.w	r0, [r4, ip]
 8004df6:	e7e0      	b.n	8004dba <_malloc_r+0x62>
 8004df8:	0a7b      	lsrs	r3, r7, #9
 8004dfa:	d02a      	beq.n	8004e52 <_malloc_r+0xfa>
 8004dfc:	2b04      	cmp	r3, #4
 8004dfe:	d812      	bhi.n	8004e26 <_malloc_r+0xce>
 8004e00:	09bb      	lsrs	r3, r7, #6
 8004e02:	3338      	adds	r3, #56	; 0x38
 8004e04:	1c5a      	adds	r2, r3, #1
 8004e06:	eb06 02c2 	add.w	r2, r6, r2, lsl #3
 8004e0a:	6854      	ldr	r4, [r2, #4]
 8004e0c:	f1a2 0c08 	sub.w	ip, r2, #8
 8004e10:	4564      	cmp	r4, ip
 8004e12:	d006      	beq.n	8004e22 <_malloc_r+0xca>
 8004e14:	6862      	ldr	r2, [r4, #4]
 8004e16:	f022 0203 	bic.w	r2, r2, #3
 8004e1a:	1bd0      	subs	r0, r2, r7
 8004e1c:	280f      	cmp	r0, #15
 8004e1e:	dd1c      	ble.n	8004e5a <_malloc_r+0x102>
 8004e20:	3b01      	subs	r3, #1
 8004e22:	3301      	adds	r3, #1
 8004e24:	e7cf      	b.n	8004dc6 <_malloc_r+0x6e>
 8004e26:	2b14      	cmp	r3, #20
 8004e28:	d801      	bhi.n	8004e2e <_malloc_r+0xd6>
 8004e2a:	335b      	adds	r3, #91	; 0x5b
 8004e2c:	e7ea      	b.n	8004e04 <_malloc_r+0xac>
 8004e2e:	2b54      	cmp	r3, #84	; 0x54
 8004e30:	d802      	bhi.n	8004e38 <_malloc_r+0xe0>
 8004e32:	0b3b      	lsrs	r3, r7, #12
 8004e34:	336e      	adds	r3, #110	; 0x6e
 8004e36:	e7e5      	b.n	8004e04 <_malloc_r+0xac>
 8004e38:	f5b3 7faa 	cmp.w	r3, #340	; 0x154
 8004e3c:	d802      	bhi.n	8004e44 <_malloc_r+0xec>
 8004e3e:	0bfb      	lsrs	r3, r7, #15
 8004e40:	3377      	adds	r3, #119	; 0x77
 8004e42:	e7df      	b.n	8004e04 <_malloc_r+0xac>
 8004e44:	f240 5254 	movw	r2, #1364	; 0x554
 8004e48:	4293      	cmp	r3, r2
 8004e4a:	d804      	bhi.n	8004e56 <_malloc_r+0xfe>
 8004e4c:	0cbb      	lsrs	r3, r7, #18
 8004e4e:	337c      	adds	r3, #124	; 0x7c
 8004e50:	e7d8      	b.n	8004e04 <_malloc_r+0xac>
 8004e52:	233f      	movs	r3, #63	; 0x3f
 8004e54:	e7d6      	b.n	8004e04 <_malloc_r+0xac>
 8004e56:	237e      	movs	r3, #126	; 0x7e
 8004e58:	e7d4      	b.n	8004e04 <_malloc_r+0xac>
 8004e5a:	2800      	cmp	r0, #0
 8004e5c:	68e1      	ldr	r1, [r4, #12]
 8004e5e:	db04      	blt.n	8004e6a <_malloc_r+0x112>
 8004e60:	68a3      	ldr	r3, [r4, #8]
 8004e62:	60d9      	str	r1, [r3, #12]
 8004e64:	608b      	str	r3, [r1, #8]
 8004e66:	18a3      	adds	r3, r4, r2
 8004e68:	e7a3      	b.n	8004db2 <_malloc_r+0x5a>
 8004e6a:	460c      	mov	r4, r1
 8004e6c:	e7d0      	b.n	8004e10 <_malloc_r+0xb8>
 8004e6e:	2800      	cmp	r0, #0
 8004e70:	e9c6 1104 	strd	r1, r1, [r6, #16]
 8004e74:	db07      	blt.n	8004e86 <_malloc_r+0x12e>
 8004e76:	44a4      	add	ip, r4
 8004e78:	f8dc 3004 	ldr.w	r3, [ip, #4]
 8004e7c:	f043 0301 	orr.w	r3, r3, #1
 8004e80:	f8cc 3004 	str.w	r3, [ip, #4]
 8004e84:	e799      	b.n	8004dba <_malloc_r+0x62>
 8004e86:	f5bc 7f00 	cmp.w	ip, #512	; 0x200
 8004e8a:	6870      	ldr	r0, [r6, #4]
 8004e8c:	f080 8093 	bcs.w	8004fb6 <_malloc_r+0x25e>
 8004e90:	ea4f 02dc 	mov.w	r2, ip, lsr #3
 8004e94:	ea4f 1e5c 	mov.w	lr, ip, lsr #5
 8004e98:	f04f 0c01 	mov.w	ip, #1
 8004e9c:	fa0c fc0e 	lsl.w	ip, ip, lr
 8004ea0:	ea4c 0000 	orr.w	r0, ip, r0
 8004ea4:	3201      	adds	r2, #1
 8004ea6:	f856 c032 	ldr.w	ip, [r6, r2, lsl #3]
 8004eaa:	6070      	str	r0, [r6, #4]
 8004eac:	eb06 00c2 	add.w	r0, r6, r2, lsl #3
 8004eb0:	3808      	subs	r0, #8
 8004eb2:	e9c4 c002 	strd	ip, r0, [r4, #8]
 8004eb6:	f846 4032 	str.w	r4, [r6, r2, lsl #3]
 8004eba:	f8cc 400c 	str.w	r4, [ip, #12]
 8004ebe:	2201      	movs	r2, #1
 8004ec0:	1098      	asrs	r0, r3, #2
 8004ec2:	4082      	lsls	r2, r0
 8004ec4:	6870      	ldr	r0, [r6, #4]
 8004ec6:	4290      	cmp	r0, r2
 8004ec8:	d326      	bcc.n	8004f18 <_malloc_r+0x1c0>
 8004eca:	4210      	tst	r0, r2
 8004ecc:	d106      	bne.n	8004edc <_malloc_r+0x184>
 8004ece:	f023 0303 	bic.w	r3, r3, #3
 8004ed2:	0052      	lsls	r2, r2, #1
 8004ed4:	4210      	tst	r0, r2
 8004ed6:	f103 0304 	add.w	r3, r3, #4
 8004eda:	d0fa      	beq.n	8004ed2 <_malloc_r+0x17a>
 8004edc:	eb06 08c3 	add.w	r8, r6, r3, lsl #3
 8004ee0:	46c1      	mov	r9, r8
 8004ee2:	469e      	mov	lr, r3
 8004ee4:	f8d9 400c 	ldr.w	r4, [r9, #12]
 8004ee8:	454c      	cmp	r4, r9
 8004eea:	f040 80b7 	bne.w	800505c <_malloc_r+0x304>
 8004eee:	f10e 0e01 	add.w	lr, lr, #1
 8004ef2:	f01e 0f03 	tst.w	lr, #3
 8004ef6:	f109 0908 	add.w	r9, r9, #8
 8004efa:	d1f3      	bne.n	8004ee4 <_malloc_r+0x18c>
 8004efc:	0798      	lsls	r0, r3, #30
 8004efe:	f040 80e1 	bne.w	80050c4 <_malloc_r+0x36c>
 8004f02:	6873      	ldr	r3, [r6, #4]
 8004f04:	ea23 0302 	bic.w	r3, r3, r2
 8004f08:	6073      	str	r3, [r6, #4]
 8004f0a:	6870      	ldr	r0, [r6, #4]
 8004f0c:	0052      	lsls	r2, r2, #1
 8004f0e:	4290      	cmp	r0, r2
 8004f10:	d302      	bcc.n	8004f18 <_malloc_r+0x1c0>
 8004f12:	2a00      	cmp	r2, #0
 8004f14:	f040 80e2 	bne.w	80050dc <_malloc_r+0x384>
 8004f18:	f8d6 a008 	ldr.w	sl, [r6, #8]
 8004f1c:	f8da 3004 	ldr.w	r3, [sl, #4]
 8004f20:	f023 0903 	bic.w	r9, r3, #3
 8004f24:	45b9      	cmp	r9, r7
 8004f26:	d304      	bcc.n	8004f32 <_malloc_r+0x1da>
 8004f28:	eba9 0207 	sub.w	r2, r9, r7
 8004f2c:	2a0f      	cmp	r2, #15
 8004f2e:	f300 8140 	bgt.w	80051b2 <_malloc_r+0x45a>
 8004f32:	4b45      	ldr	r3, [pc, #276]	; (8005048 <_malloc_r+0x2f0>)
 8004f34:	2008      	movs	r0, #8
 8004f36:	6819      	ldr	r1, [r3, #0]
 8004f38:	eb0a 0b09 	add.w	fp, sl, r9
 8004f3c:	3110      	adds	r1, #16
 8004f3e:	4439      	add	r1, r7
 8004f40:	9101      	str	r1, [sp, #4]
 8004f42:	f002 fd71 	bl	8007a28 <sysconf>
 8004f46:	4a41      	ldr	r2, [pc, #260]	; (800504c <_malloc_r+0x2f4>)
 8004f48:	9901      	ldr	r1, [sp, #4]
 8004f4a:	6813      	ldr	r3, [r2, #0]
 8004f4c:	4680      	mov	r8, r0
 8004f4e:	3301      	adds	r3, #1
 8004f50:	bf1f      	itttt	ne
 8004f52:	f101 31ff 	addne.w	r1, r1, #4294967295	; 0xffffffff
 8004f56:	1809      	addne	r1, r1, r0
 8004f58:	4243      	negne	r3, r0
 8004f5a:	4019      	andne	r1, r3
 8004f5c:	4628      	mov	r0, r5
 8004f5e:	9101      	str	r1, [sp, #4]
 8004f60:	f7fc fdd6 	bl	8001b10 <_sbrk_r>
 8004f64:	1c42      	adds	r2, r0, #1
 8004f66:	4604      	mov	r4, r0
 8004f68:	f000 80f6 	beq.w	8005158 <_malloc_r+0x400>
 8004f6c:	4583      	cmp	fp, r0
 8004f6e:	9901      	ldr	r1, [sp, #4]
 8004f70:	4a36      	ldr	r2, [pc, #216]	; (800504c <_malloc_r+0x2f4>)
 8004f72:	d902      	bls.n	8004f7a <_malloc_r+0x222>
 8004f74:	45b2      	cmp	sl, r6
 8004f76:	f040 80ef 	bne.w	8005158 <_malloc_r+0x400>
 8004f7a:	4b35      	ldr	r3, [pc, #212]	; (8005050 <_malloc_r+0x2f8>)
 8004f7c:	45a3      	cmp	fp, r4
 8004f7e:	6818      	ldr	r0, [r3, #0]
 8004f80:	f108 3cff 	add.w	ip, r8, #4294967295	; 0xffffffff
 8004f84:	4408      	add	r0, r1
 8004f86:	6018      	str	r0, [r3, #0]
 8004f88:	f040 80aa 	bne.w	80050e0 <_malloc_r+0x388>
 8004f8c:	ea1b 0f0c 	tst.w	fp, ip
 8004f90:	f040 80a6 	bne.w	80050e0 <_malloc_r+0x388>
 8004f94:	68b2      	ldr	r2, [r6, #8]
 8004f96:	4449      	add	r1, r9
 8004f98:	f041 0101 	orr.w	r1, r1, #1
 8004f9c:	6051      	str	r1, [r2, #4]
 8004f9e:	4a2d      	ldr	r2, [pc, #180]	; (8005054 <_malloc_r+0x2fc>)
 8004fa0:	681b      	ldr	r3, [r3, #0]
 8004fa2:	6811      	ldr	r1, [r2, #0]
 8004fa4:	428b      	cmp	r3, r1
 8004fa6:	bf88      	it	hi
 8004fa8:	6013      	strhi	r3, [r2, #0]
 8004faa:	4a2b      	ldr	r2, [pc, #172]	; (8005058 <_malloc_r+0x300>)
 8004fac:	6811      	ldr	r1, [r2, #0]
 8004fae:	428b      	cmp	r3, r1
 8004fb0:	bf88      	it	hi
 8004fb2:	6013      	strhi	r3, [r2, #0]
 8004fb4:	e0d0      	b.n	8005158 <_malloc_r+0x400>
 8004fb6:	f5bc 6f20 	cmp.w	ip, #2560	; 0xa00
 8004fba:	ea4f 225c 	mov.w	r2, ip, lsr #9
 8004fbe:	d218      	bcs.n	8004ff2 <_malloc_r+0x29a>
 8004fc0:	ea4f 129c 	mov.w	r2, ip, lsr #6
 8004fc4:	3238      	adds	r2, #56	; 0x38
 8004fc6:	f102 0e01 	add.w	lr, r2, #1
 8004fca:	f856 e03e 	ldr.w	lr, [r6, lr, lsl #3]
 8004fce:	eb06 08c2 	add.w	r8, r6, r2, lsl #3
 8004fd2:	45f0      	cmp	r8, lr
 8004fd4:	d12b      	bne.n	800502e <_malloc_r+0x2d6>
 8004fd6:	f04f 0c01 	mov.w	ip, #1
 8004fda:	1092      	asrs	r2, r2, #2
 8004fdc:	fa0c f202 	lsl.w	r2, ip, r2
 8004fe0:	4302      	orrs	r2, r0
 8004fe2:	6072      	str	r2, [r6, #4]
 8004fe4:	e9c4 e802 	strd	lr, r8, [r4, #8]
 8004fe8:	f8c8 4008 	str.w	r4, [r8, #8]
 8004fec:	f8ce 400c 	str.w	r4, [lr, #12]
 8004ff0:	e765      	b.n	8004ebe <_malloc_r+0x166>
 8004ff2:	2a14      	cmp	r2, #20
 8004ff4:	d801      	bhi.n	8004ffa <_malloc_r+0x2a2>
 8004ff6:	325b      	adds	r2, #91	; 0x5b
 8004ff8:	e7e5      	b.n	8004fc6 <_malloc_r+0x26e>
 8004ffa:	2a54      	cmp	r2, #84	; 0x54
 8004ffc:	d803      	bhi.n	8005006 <_malloc_r+0x2ae>
 8004ffe:	ea4f 321c 	mov.w	r2, ip, lsr #12
 8005002:	326e      	adds	r2, #110	; 0x6e
 8005004:	e7df      	b.n	8004fc6 <_malloc_r+0x26e>
 8005006:	f5b2 7faa 	cmp.w	r2, #340	; 0x154
 800500a:	d803      	bhi.n	8005014 <_malloc_r+0x2bc>
 800500c:	ea4f 32dc 	mov.w	r2, ip, lsr #15
 8005010:	3277      	adds	r2, #119	; 0x77
 8005012:	e7d8      	b.n	8004fc6 <_malloc_r+0x26e>
 8005014:	f240 5e54 	movw	lr, #1364	; 0x554
 8005018:	4572      	cmp	r2, lr
 800501a:	bf96      	itet	ls
 800501c:	ea4f 429c 	movls.w	r2, ip, lsr #18
 8005020:	227e      	movhi	r2, #126	; 0x7e
 8005022:	327c      	addls	r2, #124	; 0x7c
 8005024:	e7cf      	b.n	8004fc6 <_malloc_r+0x26e>
 8005026:	f8de e008 	ldr.w	lr, [lr, #8]
 800502a:	45f0      	cmp	r8, lr
 800502c:	d005      	beq.n	800503a <_malloc_r+0x2e2>
 800502e:	f8de 2004 	ldr.w	r2, [lr, #4]
 8005032:	f022 0203 	bic.w	r2, r2, #3
 8005036:	4562      	cmp	r2, ip
 8005038:	d8f5      	bhi.n	8005026 <_malloc_r+0x2ce>
 800503a:	f8de 800c 	ldr.w	r8, [lr, #12]
 800503e:	e7d1      	b.n	8004fe4 <_malloc_r+0x28c>
 8005040:	20000034 	.word	0x20000034
 8005044:	2000003c 	.word	0x2000003c
 8005048:	20000dc0 	.word	0x20000dc0
 800504c:	2000043c 	.word	0x2000043c
 8005050:	20000d90 	.word	0x20000d90
 8005054:	20000db8 	.word	0x20000db8
 8005058:	20000dbc 	.word	0x20000dbc
 800505c:	6860      	ldr	r0, [r4, #4]
 800505e:	f8d4 c00c 	ldr.w	ip, [r4, #12]
 8005062:	f020 0003 	bic.w	r0, r0, #3
 8005066:	eba0 0a07 	sub.w	sl, r0, r7
 800506a:	f1ba 0f0f 	cmp.w	sl, #15
 800506e:	dd12      	ble.n	8005096 <_malloc_r+0x33e>
 8005070:	68a3      	ldr	r3, [r4, #8]
 8005072:	19e2      	adds	r2, r4, r7
 8005074:	f047 0701 	orr.w	r7, r7, #1
 8005078:	6067      	str	r7, [r4, #4]
 800507a:	f8c3 c00c 	str.w	ip, [r3, #12]
 800507e:	f8cc 3008 	str.w	r3, [ip, #8]
 8005082:	f04a 0301 	orr.w	r3, sl, #1
 8005086:	e9c6 2204 	strd	r2, r2, [r6, #16]
 800508a:	e9c2 1102 	strd	r1, r1, [r2, #8]
 800508e:	6053      	str	r3, [r2, #4]
 8005090:	f844 a000 	str.w	sl, [r4, r0]
 8005094:	e691      	b.n	8004dba <_malloc_r+0x62>
 8005096:	f1ba 0f00 	cmp.w	sl, #0
 800509a:	db11      	blt.n	80050c0 <_malloc_r+0x368>
 800509c:	4420      	add	r0, r4
 800509e:	6843      	ldr	r3, [r0, #4]
 80050a0:	f043 0301 	orr.w	r3, r3, #1
 80050a4:	6043      	str	r3, [r0, #4]
 80050a6:	f854 3f08 	ldr.w	r3, [r4, #8]!
 80050aa:	4628      	mov	r0, r5
 80050ac:	f8c3 c00c 	str.w	ip, [r3, #12]
 80050b0:	f8cc 3008 	str.w	r3, [ip, #8]
 80050b4:	f001 fffe 	bl	80070b4 <__malloc_unlock>
 80050b8:	4620      	mov	r0, r4
 80050ba:	b003      	add	sp, #12
 80050bc:	e8bd 8ff0 	ldmia.w	sp!, {r4, r5, r6, r7, r8, r9, sl, fp, pc}
 80050c0:	4664      	mov	r4, ip
 80050c2:	e711      	b.n	8004ee8 <_malloc_r+0x190>
 80050c4:	f858 0908 	ldr.w	r0, [r8], #-8
 80050c8:	3b01      	subs	r3, #1
 80050ca:	4540      	cmp	r0, r8
 80050cc:	f43f af16 	beq.w	8004efc <_malloc_r+0x1a4>
 80050d0:	e71b      	b.n	8004f0a <_malloc_r+0x1b2>
 80050d2:	3304      	adds	r3, #4
 80050d4:	0052      	lsls	r2, r2, #1
 80050d6:	4210      	tst	r0, r2
 80050d8:	d0fb      	beq.n	80050d2 <_malloc_r+0x37a>
 80050da:	e6ff      	b.n	8004edc <_malloc_r+0x184>
 80050dc:	4673      	mov	r3, lr
 80050de:	e7fa      	b.n	80050d6 <_malloc_r+0x37e>
 80050e0:	f8d2 e000 	ldr.w	lr, [r2]
 80050e4:	f1be 3fff 	cmp.w	lr, #4294967295	; 0xffffffff
 80050e8:	bf1b      	ittet	ne
 80050ea:	eba4 0b0b 	subne.w	fp, r4, fp
 80050ee:	eb0b 0200 	addne.w	r2, fp, r0
 80050f2:	6014      	streq	r4, [r2, #0]
 80050f4:	601a      	strne	r2, [r3, #0]
 80050f6:	f014 0b07 	ands.w	fp, r4, #7
 80050fa:	bf0e      	itee	eq
 80050fc:	4658      	moveq	r0, fp
 80050fe:	f1cb 0008 	rsbne	r0, fp, #8
 8005102:	1824      	addne	r4, r4, r0
 8005104:	1862      	adds	r2, r4, r1
 8005106:	ea02 010c 	and.w	r1, r2, ip
 800510a:	4480      	add	r8, r0
 800510c:	eba8 0801 	sub.w	r8, r8, r1
 8005110:	ea08 080c 	and.w	r8, r8, ip
 8005114:	4641      	mov	r1, r8
 8005116:	4628      	mov	r0, r5
 8005118:	9201      	str	r2, [sp, #4]
 800511a:	f7fc fcf9 	bl	8001b10 <_sbrk_r>
 800511e:	1c43      	adds	r3, r0, #1
 8005120:	9a01      	ldr	r2, [sp, #4]
 8005122:	4b29      	ldr	r3, [pc, #164]	; (80051c8 <_malloc_r+0x470>)
 8005124:	d107      	bne.n	8005136 <_malloc_r+0x3de>
 8005126:	f1bb 0f00 	cmp.w	fp, #0
 800512a:	d023      	beq.n	8005174 <_malloc_r+0x41c>
 800512c:	f04f 0800 	mov.w	r8, #0
 8005130:	f1ab 0008 	sub.w	r0, fp, #8
 8005134:	4410      	add	r0, r2
 8005136:	681a      	ldr	r2, [r3, #0]
 8005138:	1b00      	subs	r0, r0, r4
 800513a:	4440      	add	r0, r8
 800513c:	4442      	add	r2, r8
 800513e:	f040 0001 	orr.w	r0, r0, #1
 8005142:	45b2      	cmp	sl, r6
 8005144:	60b4      	str	r4, [r6, #8]
 8005146:	601a      	str	r2, [r3, #0]
 8005148:	6060      	str	r0, [r4, #4]
 800514a:	f43f af28 	beq.w	8004f9e <_malloc_r+0x246>
 800514e:	f1b9 0f0f 	cmp.w	r9, #15
 8005152:	d812      	bhi.n	800517a <_malloc_r+0x422>
 8005154:	2301      	movs	r3, #1
 8005156:	6063      	str	r3, [r4, #4]
 8005158:	68b3      	ldr	r3, [r6, #8]
 800515a:	685b      	ldr	r3, [r3, #4]
 800515c:	f023 0303 	bic.w	r3, r3, #3
 8005160:	42bb      	cmp	r3, r7
 8005162:	eba3 0207 	sub.w	r2, r3, r7
 8005166:	d301      	bcc.n	800516c <_malloc_r+0x414>
 8005168:	2a0f      	cmp	r2, #15
 800516a:	dc22      	bgt.n	80051b2 <_malloc_r+0x45a>
 800516c:	4628      	mov	r0, r5
 800516e:	f001 ffa1 	bl	80070b4 <__malloc_unlock>
 8005172:	e5fd      	b.n	8004d70 <_malloc_r+0x18>
 8005174:	4610      	mov	r0, r2
 8005176:	46d8      	mov	r8, fp
 8005178:	e7dd      	b.n	8005136 <_malloc_r+0x3de>
 800517a:	2105      	movs	r1, #5
 800517c:	f8da 2004 	ldr.w	r2, [sl, #4]
 8005180:	f1a9 090c 	sub.w	r9, r9, #12
 8005184:	f029 0907 	bic.w	r9, r9, #7
 8005188:	f002 0201 	and.w	r2, r2, #1
 800518c:	ea42 0209 	orr.w	r2, r2, r9
 8005190:	f8ca 2004 	str.w	r2, [sl, #4]
 8005194:	f1b9 0f0f 	cmp.w	r9, #15
 8005198:	eb0a 0209 	add.w	r2, sl, r9
 800519c:	e9c2 1101 	strd	r1, r1, [r2, #4]
 80051a0:	f67f aefd 	bls.w	8004f9e <_malloc_r+0x246>
 80051a4:	4628      	mov	r0, r5
 80051a6:	f10a 0108 	add.w	r1, sl, #8
 80051aa:	f003 fb8d 	bl	80088c8 <_free_r>
 80051ae:	4b06      	ldr	r3, [pc, #24]	; (80051c8 <_malloc_r+0x470>)
 80051b0:	e6f5      	b.n	8004f9e <_malloc_r+0x246>
 80051b2:	68b4      	ldr	r4, [r6, #8]
 80051b4:	f047 0301 	orr.w	r3, r7, #1
 80051b8:	f042 0201 	orr.w	r2, r2, #1
 80051bc:	4427      	add	r7, r4
 80051be:	6063      	str	r3, [r4, #4]
 80051c0:	60b7      	str	r7, [r6, #8]
 80051c2:	607a      	str	r2, [r7, #4]
 80051c4:	e5f9      	b.n	8004dba <_malloc_r+0x62>
 80051c6:	bf00      	nop
 80051c8:	20000d90 	.word	0x20000d90

080051cc <printf>:
 80051cc:	b40f      	push	{r0, r1, r2, r3}
 80051ce:	b507      	push	{r0, r1, r2, lr}
 80051d0:	4906      	ldr	r1, [pc, #24]	; (80051ec <printf+0x20>)
 80051d2:	ab04      	add	r3, sp, #16
 80051d4:	6808      	ldr	r0, [r1, #0]
 80051d6:	f853 2b04 	ldr.w	r2, [r3], #4
 80051da:	6881      	ldr	r1, [r0, #8]
 80051dc:	9301      	str	r3, [sp, #4]
 80051de:	f000 f807 	bl	80051f0 <_vfprintf_r>
 80051e2:	b003      	add	sp, #12
 80051e4:	f85d eb04 	ldr.w	lr, [sp], #4
 80051e8:	b004      	add	sp, #16
 80051ea:	4770      	bx	lr
 80051ec:	200006e0 	.word	0x200006e0

080051f0 <_vfprintf_r>:
 80051f0:	e92d 4ff0 	stmdb	sp!, {r4, r5, r6, r7, r8, r9, sl, fp, lr}
 80051f4:	b0d3      	sub	sp, #332	; 0x14c
 80051f6:	468a      	mov	sl, r1
 80051f8:	4691      	mov	r9, r2
 80051fa:	461c      	mov	r4, r3
 80051fc:	461d      	mov	r5, r3
 80051fe:	4683      	mov	fp, r0
 8005200:	f002 fc08 	bl	8007a14 <_localeconv_r>
 8005204:	6803      	ldr	r3, [r0, #0]
 8005206:	4618      	mov	r0, r3
 8005208:	9317      	str	r3, [sp, #92]	; 0x5c
 800520a:	f7fa ffb2 	bl	8000172 <strlen>
 800520e:	900f      	str	r0, [sp, #60]	; 0x3c
 8005210:	f1bb 0f00 	cmp.w	fp, #0
 8005214:	d005      	beq.n	8005222 <_vfprintf_r+0x32>
 8005216:	f8db 3034 	ldr.w	r3, [fp, #52]	; 0x34
 800521a:	b913      	cbnz	r3, 8005222 <_vfprintf_r+0x32>
 800521c:	4658      	mov	r0, fp
 800521e:	f002 f941 	bl	80074a4 <__sinit>
 8005222:	f8da 3064 	ldr.w	r3, [sl, #100]	; 0x64
 8005226:	07d8      	lsls	r0, r3, #31
 8005228:	d407      	bmi.n	800523a <_vfprintf_r+0x4a>
 800522a:	f8ba 300c 	ldrh.w	r3, [sl, #12]
 800522e:	0599      	lsls	r1, r3, #22
 8005230:	d403      	bmi.n	800523a <_vfprintf_r+0x4a>
 8005232:	f8da 0058 	ldr.w	r0, [sl, #88]	; 0x58
 8005236:	f002 fc29 	bl	8007a8c <__retarget_lock_acquire_recursive>
 800523a:	f9ba 300c 	ldrsh.w	r3, [sl, #12]
 800523e:	049a      	lsls	r2, r3, #18
 8005240:	d409      	bmi.n	8005256 <_vfprintf_r+0x66>
 8005242:	f443 5300 	orr.w	r3, r3, #8192	; 0x2000
 8005246:	f8aa 300c 	strh.w	r3, [sl, #12]
 800524a:	f8da 3064 	ldr.w	r3, [sl, #100]	; 0x64
 800524e:	f423 5300 	bic.w	r3, r3, #8192	; 0x2000
 8005252:	f8ca 3064 	str.w	r3, [sl, #100]	; 0x64
 8005256:	f8ba 300c 	ldrh.w	r3, [sl, #12]
 800525a:	071b      	lsls	r3, r3, #28
 800525c:	d502      	bpl.n	8005264 <_vfprintf_r+0x74>
 800525e:	f8da 3010 	ldr.w	r3, [sl, #16]
 8005262:	b9c3      	cbnz	r3, 8005296 <_vfprintf_r+0xa6>
 8005264:	4651      	mov	r1, sl
 8005266:	4658      	mov	r0, fp
 8005268:	f002 fad6 	bl	8007818 <__swsetup_r>
 800526c:	b198      	cbz	r0, 8005296 <_vfprintf_r+0xa6>
 800526e:	f8da 3064 	ldr.w	r3, [sl, #100]	; 0x64
 8005272:	07df      	lsls	r7, r3, #31
 8005274:	d506      	bpl.n	8005284 <_vfprintf_r+0x94>
 8005276:	f04f 33ff 	mov.w	r3, #4294967295	; 0xffffffff
 800527a:	9312      	str	r3, [sp, #72]	; 0x48
 800527c:	9812      	ldr	r0, [sp, #72]	; 0x48
 800527e:	b053      	add	sp, #332	; 0x14c
 8005280:	e8bd 8ff0 	ldmia.w	sp!, {r4, r5, r6, r7, r8, r9, sl, fp, pc}
 8005284:	f8ba 300c 	ldrh.w	r3, [sl, #12]
 8005288:	059e      	lsls	r6, r3, #22
 800528a:	d4f4      	bmi.n	8005276 <_vfprintf_r+0x86>
 800528c:	f8da 0058 	ldr.w	r0, [sl, #88]	; 0x58
 8005290:	f002 fbfd 	bl	8007a8e <__retarget_lock_release_recursive>
 8005294:	e7ef      	b.n	8005276 <_vfprintf_r+0x86>
 8005296:	f8ba 300c 	ldrh.w	r3, [sl, #12]
 800529a:	f003 021a 	and.w	r2, r3, #26
 800529e:	2a0a      	cmp	r2, #10
 80052a0:	d116      	bne.n	80052d0 <_vfprintf_r+0xe0>
 80052a2:	f9ba 200e 	ldrsh.w	r2, [sl, #14]
 80052a6:	2a00      	cmp	r2, #0
 80052a8:	db12      	blt.n	80052d0 <_vfprintf_r+0xe0>
 80052aa:	f8da 2064 	ldr.w	r2, [sl, #100]	; 0x64
 80052ae:	07d5      	lsls	r5, r2, #31
 80052b0:	d405      	bmi.n	80052be <_vfprintf_r+0xce>
 80052b2:	0598      	lsls	r0, r3, #22
 80052b4:	d403      	bmi.n	80052be <_vfprintf_r+0xce>
 80052b6:	f8da 0058 	ldr.w	r0, [sl, #88]	; 0x58
 80052ba:	f002 fbe8 	bl	8007a8e <__retarget_lock_release_recursive>
 80052be:	4623      	mov	r3, r4
 80052c0:	464a      	mov	r2, r9
 80052c2:	4651      	mov	r1, sl
 80052c4:	4658      	mov	r0, fp
 80052c6:	b053      	add	sp, #332	; 0x14c
 80052c8:	e8bd 4ff0 	ldmia.w	sp!, {r4, r5, r6, r7, r8, r9, sl, fp, lr}
 80052cc:	f001 b9ac 	b.w	8006628 <__sbprintf>
 80052d0:	2300      	movs	r3, #0
 80052d2:	2200      	movs	r2, #0
 80052d4:	e9cd 3327 	strd	r3, r3, [sp, #156]	; 0x9c
 80052d8:	9309      	str	r3, [sp, #36]	; 0x24
 80052da:	2300      	movs	r3, #0
 80052dc:	e9cd 2310 	strd	r2, r3, [sp, #64]	; 0x40
 80052e0:	2300      	movs	r3, #0
 80052e2:	e9cd 3319 	strd	r3, r3, [sp, #100]	; 0x64
 80052e6:	ac29      	add	r4, sp, #164	; 0xa4
 80052e8:	9426      	str	r4, [sp, #152]	; 0x98
 80052ea:	930d      	str	r3, [sp, #52]	; 0x34
 80052ec:	9315      	str	r3, [sp, #84]	; 0x54
 80052ee:	9318      	str	r3, [sp, #96]	; 0x60
 80052f0:	9312      	str	r3, [sp, #72]	; 0x48
 80052f2:	464b      	mov	r3, r9
 80052f4:	461e      	mov	r6, r3
 80052f6:	f813 2b01 	ldrb.w	r2, [r3], #1
 80052fa:	b10a      	cbz	r2, 8005300 <_vfprintf_r+0x110>
 80052fc:	2a25      	cmp	r2, #37	; 0x25
 80052fe:	d1f9      	bne.n	80052f4 <_vfprintf_r+0x104>
 8005300:	ebb6 0709 	subs.w	r7, r6, r9
 8005304:	d00d      	beq.n	8005322 <_vfprintf_r+0x132>
 8005306:	9b28      	ldr	r3, [sp, #160]	; 0xa0
 8005308:	e9c4 9700 	strd	r9, r7, [r4]
 800530c:	443b      	add	r3, r7
 800530e:	9328      	str	r3, [sp, #160]	; 0xa0
 8005310:	9b27      	ldr	r3, [sp, #156]	; 0x9c
 8005312:	3301      	adds	r3, #1
 8005314:	2b07      	cmp	r3, #7
 8005316:	9327      	str	r3, [sp, #156]	; 0x9c
 8005318:	dc79      	bgt.n	800540e <_vfprintf_r+0x21e>
 800531a:	3408      	adds	r4, #8
 800531c:	9b12      	ldr	r3, [sp, #72]	; 0x48
 800531e:	443b      	add	r3, r7
 8005320:	9312      	str	r3, [sp, #72]	; 0x48
 8005322:	7833      	ldrb	r3, [r6, #0]
 8005324:	2b00      	cmp	r3, #0
 8005326:	f001 8139 	beq.w	800659c <_vfprintf_r+0x13ac>
 800532a:	2300      	movs	r3, #0
 800532c:	f04f 32ff 	mov.w	r2, #4294967295	; 0xffffffff
 8005330:	4698      	mov	r8, r3
 8005332:	270a      	movs	r7, #10
 8005334:	212b      	movs	r1, #43	; 0x2b
 8005336:	3601      	adds	r6, #1
 8005338:	f88d 307b 	strb.w	r3, [sp, #123]	; 0x7b
 800533c:	9207      	str	r2, [sp, #28]
 800533e:	9313      	str	r3, [sp, #76]	; 0x4c
 8005340:	4633      	mov	r3, r6
 8005342:	f813 2b01 	ldrb.w	r2, [r3], #1
 8005346:	920b      	str	r2, [sp, #44]	; 0x2c
 8005348:	930e      	str	r3, [sp, #56]	; 0x38
 800534a:	9b0b      	ldr	r3, [sp, #44]	; 0x2c
 800534c:	3b20      	subs	r3, #32
 800534e:	2b5a      	cmp	r3, #90	; 0x5a
 8005350:	f200 85ae 	bhi.w	8005eb0 <_vfprintf_r+0xcc0>
 8005354:	e8df f013 	tbh	[pc, r3, lsl #1]
 8005358:	05ac007e 	.word	0x05ac007e
 800535c:	008605ac 	.word	0x008605ac
 8005360:	05ac05ac 	.word	0x05ac05ac
 8005364:	006505ac 	.word	0x006505ac
 8005368:	05ac05ac 	.word	0x05ac05ac
 800536c:	00930089 	.word	0x00930089
 8005370:	009005ac 	.word	0x009005ac
 8005374:	05ac0096 	.word	0x05ac0096
 8005378:	00b500b2 	.word	0x00b500b2
 800537c:	00b500b5 	.word	0x00b500b5
 8005380:	00b500b5 	.word	0x00b500b5
 8005384:	00b500b5 	.word	0x00b500b5
 8005388:	00b500b5 	.word	0x00b500b5
 800538c:	05ac05ac 	.word	0x05ac05ac
 8005390:	05ac05ac 	.word	0x05ac05ac
 8005394:	05ac05ac 	.word	0x05ac05ac
 8005398:	012405ac 	.word	0x012405ac
 800539c:	00e205ac 	.word	0x00e205ac
 80053a0:	012400f5 	.word	0x012400f5
 80053a4:	01240124 	.word	0x01240124
 80053a8:	05ac05ac 	.word	0x05ac05ac
 80053ac:	05ac05ac 	.word	0x05ac05ac
 80053b0:	05ac00c5 	.word	0x05ac00c5
 80053b4:	048b05ac 	.word	0x048b05ac
 80053b8:	05ac05ac 	.word	0x05ac05ac
 80053bc:	04d505ac 	.word	0x04d505ac
 80053c0:	04f605ac 	.word	0x04f605ac
 80053c4:	05ac05ac 	.word	0x05ac05ac
 80053c8:	05ac0518 	.word	0x05ac0518
 80053cc:	05ac05ac 	.word	0x05ac05ac
 80053d0:	05ac05ac 	.word	0x05ac05ac
 80053d4:	05ac05ac 	.word	0x05ac05ac
 80053d8:	012405ac 	.word	0x012405ac
 80053dc:	00e205ac 	.word	0x00e205ac
 80053e0:	012400f7 	.word	0x012400f7
 80053e4:	01240124 	.word	0x01240124
 80053e8:	00f700c8 	.word	0x00f700c8
 80053ec:	05ac00dc 	.word	0x05ac00dc
 80053f0:	05ac00d5 	.word	0x05ac00d5
 80053f4:	048d0466 	.word	0x048d0466
 80053f8:	00dc04c4 	.word	0x00dc04c4
 80053fc:	04d505ac 	.word	0x04d505ac
 8005400:	04f8007c 	.word	0x04f8007c
 8005404:	05ac05ac 	.word	0x05ac05ac
 8005408:	05ac0537 	.word	0x05ac0537
 800540c:	007c      	.short	0x007c
 800540e:	4651      	mov	r1, sl
 8005410:	4658      	mov	r0, fp
 8005412:	aa26      	add	r2, sp, #152	; 0x98
 8005414:	f001 f948 	bl	80066a8 <__sprint_r>
 8005418:	2800      	cmp	r0, #0
 800541a:	f040 812d 	bne.w	8005678 <_vfprintf_r+0x488>
 800541e:	ac29      	add	r4, sp, #164	; 0xa4
 8005420:	e77c      	b.n	800531c <_vfprintf_r+0x12c>
 8005422:	4658      	mov	r0, fp
 8005424:	f002 faf6 	bl	8007a14 <_localeconv_r>
 8005428:	6843      	ldr	r3, [r0, #4]
 800542a:	4618      	mov	r0, r3
 800542c:	9318      	str	r3, [sp, #96]	; 0x60
 800542e:	f7fa fea0 	bl	8000172 <strlen>
 8005432:	9015      	str	r0, [sp, #84]	; 0x54
 8005434:	4658      	mov	r0, fp
 8005436:	f002 faed 	bl	8007a14 <_localeconv_r>
 800543a:	6883      	ldr	r3, [r0, #8]
 800543c:	212b      	movs	r1, #43	; 0x2b
 800543e:	930d      	str	r3, [sp, #52]	; 0x34
 8005440:	9b15      	ldr	r3, [sp, #84]	; 0x54
 8005442:	b12b      	cbz	r3, 8005450 <_vfprintf_r+0x260>
 8005444:	9b0d      	ldr	r3, [sp, #52]	; 0x34
 8005446:	b11b      	cbz	r3, 8005450 <_vfprintf_r+0x260>
 8005448:	781b      	ldrb	r3, [r3, #0]
 800544a:	b10b      	cbz	r3, 8005450 <_vfprintf_r+0x260>
 800544c:	f448 6880 	orr.w	r8, r8, #1024	; 0x400
 8005450:	9e0e      	ldr	r6, [sp, #56]	; 0x38
 8005452:	e775      	b.n	8005340 <_vfprintf_r+0x150>
 8005454:	f89d 307b 	ldrb.w	r3, [sp, #123]	; 0x7b
 8005458:	2b00      	cmp	r3, #0
 800545a:	d1f9      	bne.n	8005450 <_vfprintf_r+0x260>
 800545c:	2320      	movs	r3, #32
 800545e:	f88d 307b 	strb.w	r3, [sp, #123]	; 0x7b
 8005462:	e7f5      	b.n	8005450 <_vfprintf_r+0x260>
 8005464:	f048 0801 	orr.w	r8, r8, #1
 8005468:	e7f2      	b.n	8005450 <_vfprintf_r+0x260>
 800546a:	f855 3b04 	ldr.w	r3, [r5], #4
 800546e:	2b00      	cmp	r3, #0
 8005470:	9313      	str	r3, [sp, #76]	; 0x4c
 8005472:	daed      	bge.n	8005450 <_vfprintf_r+0x260>
 8005474:	425b      	negs	r3, r3
 8005476:	9313      	str	r3, [sp, #76]	; 0x4c
 8005478:	f048 0804 	orr.w	r8, r8, #4
 800547c:	e7e8      	b.n	8005450 <_vfprintf_r+0x260>
 800547e:	f88d 107b 	strb.w	r1, [sp, #123]	; 0x7b
 8005482:	e7e5      	b.n	8005450 <_vfprintf_r+0x260>
 8005484:	9b0e      	ldr	r3, [sp, #56]	; 0x38
 8005486:	f813 2b01 	ldrb.w	r2, [r3], #1
 800548a:	2a2a      	cmp	r2, #42	; 0x2a
 800548c:	920b      	str	r2, [sp, #44]	; 0x2c
 800548e:	d112      	bne.n	80054b6 <_vfprintf_r+0x2c6>
 8005490:	f855 2b04 	ldr.w	r2, [r5], #4
 8005494:	930e      	str	r3, [sp, #56]	; 0x38
 8005496:	ea42 72e2 	orr.w	r2, r2, r2, asr #31
 800549a:	9207      	str	r2, [sp, #28]
 800549c:	e7d8      	b.n	8005450 <_vfprintf_r+0x260>
 800549e:	9807      	ldr	r0, [sp, #28]
 80054a0:	fb07 2200 	mla	r2, r7, r0, r2
 80054a4:	9207      	str	r2, [sp, #28]
 80054a6:	f813 2b01 	ldrb.w	r2, [r3], #1
 80054aa:	920b      	str	r2, [sp, #44]	; 0x2c
 80054ac:	9a0b      	ldr	r2, [sp, #44]	; 0x2c
 80054ae:	3a30      	subs	r2, #48	; 0x30
 80054b0:	2a09      	cmp	r2, #9
 80054b2:	d9f4      	bls.n	800549e <_vfprintf_r+0x2ae>
 80054b4:	e748      	b.n	8005348 <_vfprintf_r+0x158>
 80054b6:	2200      	movs	r2, #0
 80054b8:	9207      	str	r2, [sp, #28]
 80054ba:	e7f7      	b.n	80054ac <_vfprintf_r+0x2bc>
 80054bc:	f048 0880 	orr.w	r8, r8, #128	; 0x80
 80054c0:	e7c6      	b.n	8005450 <_vfprintf_r+0x260>
 80054c2:	2200      	movs	r2, #0
 80054c4:	9b0e      	ldr	r3, [sp, #56]	; 0x38
 80054c6:	9213      	str	r2, [sp, #76]	; 0x4c
 80054c8:	9a0b      	ldr	r2, [sp, #44]	; 0x2c
 80054ca:	9813      	ldr	r0, [sp, #76]	; 0x4c
 80054cc:	3a30      	subs	r2, #48	; 0x30
 80054ce:	fb07 2200 	mla	r2, r7, r0, r2
 80054d2:	9213      	str	r2, [sp, #76]	; 0x4c
 80054d4:	f813 2b01 	ldrb.w	r2, [r3], #1
 80054d8:	920b      	str	r2, [sp, #44]	; 0x2c
 80054da:	3a30      	subs	r2, #48	; 0x30
 80054dc:	2a09      	cmp	r2, #9
 80054de:	d9f3      	bls.n	80054c8 <_vfprintf_r+0x2d8>
 80054e0:	e732      	b.n	8005348 <_vfprintf_r+0x158>
 80054e2:	f048 0808 	orr.w	r8, r8, #8
 80054e6:	e7b3      	b.n	8005450 <_vfprintf_r+0x260>
 80054e8:	9b0e      	ldr	r3, [sp, #56]	; 0x38
 80054ea:	781b      	ldrb	r3, [r3, #0]
 80054ec:	2b68      	cmp	r3, #104	; 0x68
 80054ee:	bf01      	itttt	eq
 80054f0:	9b0e      	ldreq	r3, [sp, #56]	; 0x38
 80054f2:	f448 7800 	orreq.w	r8, r8, #512	; 0x200
 80054f6:	3301      	addeq	r3, #1
 80054f8:	930e      	streq	r3, [sp, #56]	; 0x38
 80054fa:	bf18      	it	ne
 80054fc:	f048 0840 	orrne.w	r8, r8, #64	; 0x40
 8005500:	e7a6      	b.n	8005450 <_vfprintf_r+0x260>
 8005502:	9b0e      	ldr	r3, [sp, #56]	; 0x38
 8005504:	781b      	ldrb	r3, [r3, #0]
 8005506:	2b6c      	cmp	r3, #108	; 0x6c
 8005508:	d105      	bne.n	8005516 <_vfprintf_r+0x326>
 800550a:	9b0e      	ldr	r3, [sp, #56]	; 0x38
 800550c:	3301      	adds	r3, #1
 800550e:	930e      	str	r3, [sp, #56]	; 0x38
 8005510:	f048 0820 	orr.w	r8, r8, #32
 8005514:	e79c      	b.n	8005450 <_vfprintf_r+0x260>
 8005516:	f048 0810 	orr.w	r8, r8, #16
 800551a:	e799      	b.n	8005450 <_vfprintf_r+0x260>
 800551c:	462a      	mov	r2, r5
 800551e:	f852 3b04 	ldr.w	r3, [r2], #4
 8005522:	f88d 30e4 	strb.w	r3, [sp, #228]	; 0xe4
 8005526:	2300      	movs	r3, #0
 8005528:	920a      	str	r2, [sp, #40]	; 0x28
 800552a:	f88d 307b 	strb.w	r3, [sp, #123]	; 0x7b
 800552e:	2700      	movs	r7, #0
 8005530:	9308      	str	r3, [sp, #32]
 8005532:	2301      	movs	r3, #1
 8005534:	463e      	mov	r6, r7
 8005536:	463d      	mov	r5, r7
 8005538:	9307      	str	r3, [sp, #28]
 800553a:	970c      	str	r7, [sp, #48]	; 0x30
 800553c:	f10d 09e4 	add.w	r9, sp, #228	; 0xe4
 8005540:	e1b8      	b.n	80058b4 <_vfprintf_r+0x6c4>
 8005542:	f048 0810 	orr.w	r8, r8, #16
 8005546:	f018 0f20 	tst.w	r8, #32
 800554a:	d011      	beq.n	8005570 <_vfprintf_r+0x380>
 800554c:	3507      	adds	r5, #7
 800554e:	f025 0307 	bic.w	r3, r5, #7
 8005552:	461a      	mov	r2, r3
 8005554:	f852 5b08 	ldr.w	r5, [r2], #8
 8005558:	685e      	ldr	r6, [r3, #4]
 800555a:	920a      	str	r2, [sp, #40]	; 0x28
 800555c:	2e00      	cmp	r6, #0
 800555e:	da05      	bge.n	800556c <_vfprintf_r+0x37c>
 8005560:	232d      	movs	r3, #45	; 0x2d
 8005562:	426d      	negs	r5, r5
 8005564:	eb66 0646 	sbc.w	r6, r6, r6, lsl #1
 8005568:	f88d 307b 	strb.w	r3, [sp, #123]	; 0x7b
 800556c:	2301      	movs	r3, #1
 800556e:	e391      	b.n	8005c94 <_vfprintf_r+0xaa4>
 8005570:	462b      	mov	r3, r5
 8005572:	f853 6b04 	ldr.w	r6, [r3], #4
 8005576:	f018 0f10 	tst.w	r8, #16
 800557a:	930a      	str	r3, [sp, #40]	; 0x28
 800557c:	d002      	beq.n	8005584 <_vfprintf_r+0x394>
 800557e:	4635      	mov	r5, r6
 8005580:	17f6      	asrs	r6, r6, #31
 8005582:	e7eb      	b.n	800555c <_vfprintf_r+0x36c>
 8005584:	f018 0f40 	tst.w	r8, #64	; 0x40
 8005588:	d003      	beq.n	8005592 <_vfprintf_r+0x3a2>
 800558a:	b235      	sxth	r5, r6
 800558c:	f346 36c0 	sbfx	r6, r6, #15, #1
 8005590:	e7e4      	b.n	800555c <_vfprintf_r+0x36c>
 8005592:	f418 7f00 	tst.w	r8, #512	; 0x200
 8005596:	d0f2      	beq.n	800557e <_vfprintf_r+0x38e>
 8005598:	b275      	sxtb	r5, r6
 800559a:	f346 16c0 	sbfx	r6, r6, #7, #1
 800559e:	e7dd      	b.n	800555c <_vfprintf_r+0x36c>
 80055a0:	3507      	adds	r5, #7
 80055a2:	f025 0307 	bic.w	r3, r5, #7
 80055a6:	4619      	mov	r1, r3
 80055a8:	e8f1 2302 	ldrd	r2, r3, [r1], #8
 80055ac:	e9cd 2310 	strd	r2, r3, [sp, #64]	; 0x40
 80055b0:	e9dd 6310 	ldrd	r6, r3, [sp, #64]	; 0x40
 80055b4:	f023 4500 	bic.w	r5, r3, #2147483648	; 0x80000000
 80055b8:	910a      	str	r1, [sp, #40]	; 0x28
 80055ba:	f04f 32ff 	mov.w	r2, #4294967295	; 0xffffffff
 80055be:	4630      	mov	r0, r6
 80055c0:	4629      	mov	r1, r5
 80055c2:	4b3e      	ldr	r3, [pc, #248]	; (80056bc <_vfprintf_r+0x4cc>)
 80055c4:	f7fb fa34 	bl	8000a30 <__aeabi_dcmpun>
 80055c8:	bb18      	cbnz	r0, 8005612 <_vfprintf_r+0x422>
 80055ca:	f04f 32ff 	mov.w	r2, #4294967295	; 0xffffffff
 80055ce:	4630      	mov	r0, r6
 80055d0:	4629      	mov	r1, r5
 80055d2:	4b3a      	ldr	r3, [pc, #232]	; (80056bc <_vfprintf_r+0x4cc>)
 80055d4:	f7fb fa0e 	bl	80009f4 <__aeabi_dcmple>
 80055d8:	b9d8      	cbnz	r0, 8005612 <_vfprintf_r+0x422>
 80055da:	e9dd 0110 	ldrd	r0, r1, [sp, #64]	; 0x40
 80055de:	2200      	movs	r2, #0
 80055e0:	2300      	movs	r3, #0
 80055e2:	f7fb f9fd 	bl	80009e0 <__aeabi_dcmplt>
 80055e6:	b110      	cbz	r0, 80055ee <_vfprintf_r+0x3fe>
 80055e8:	232d      	movs	r3, #45	; 0x2d
 80055ea:	f88d 307b 	strb.w	r3, [sp, #123]	; 0x7b
 80055ee:	4a34      	ldr	r2, [pc, #208]	; (80056c0 <_vfprintf_r+0x4d0>)
 80055f0:	4b34      	ldr	r3, [pc, #208]	; (80056c4 <_vfprintf_r+0x4d4>)
 80055f2:	990b      	ldr	r1, [sp, #44]	; 0x2c
 80055f4:	f028 0880 	bic.w	r8, r8, #128	; 0x80
 80055f8:	2947      	cmp	r1, #71	; 0x47
 80055fa:	bfd4      	ite	le
 80055fc:	4691      	movle	r9, r2
 80055fe:	4699      	movgt	r9, r3
 8005600:	2303      	movs	r3, #3
 8005602:	2100      	movs	r1, #0
 8005604:	e9cd 3107 	strd	r3, r1, [sp, #28]
 8005608:	2700      	movs	r7, #0
 800560a:	463e      	mov	r6, r7
 800560c:	463b      	mov	r3, r7
 800560e:	f001 b803 	b.w	8006618 <_vfprintf_r+0x1428>
 8005612:	e9dd 2310 	ldrd	r2, r3, [sp, #64]	; 0x40
 8005616:	4610      	mov	r0, r2
 8005618:	4619      	mov	r1, r3
 800561a:	f7fb fa09 	bl	8000a30 <__aeabi_dcmpun>
 800561e:	b140      	cbz	r0, 8005632 <_vfprintf_r+0x442>
 8005620:	9b11      	ldr	r3, [sp, #68]	; 0x44
 8005622:	4a29      	ldr	r2, [pc, #164]	; (80056c8 <_vfprintf_r+0x4d8>)
 8005624:	2b00      	cmp	r3, #0
 8005626:	bfbc      	itt	lt
 8005628:	232d      	movlt	r3, #45	; 0x2d
 800562a:	f88d 307b 	strblt.w	r3, [sp, #123]	; 0x7b
 800562e:	4b27      	ldr	r3, [pc, #156]	; (80056cc <_vfprintf_r+0x4dc>)
 8005630:	e7df      	b.n	80055f2 <_vfprintf_r+0x402>
 8005632:	9b0b      	ldr	r3, [sp, #44]	; 0x2c
 8005634:	f023 0320 	bic.w	r3, r3, #32
 8005638:	2b41      	cmp	r3, #65	; 0x41
 800563a:	930c      	str	r3, [sp, #48]	; 0x30
 800563c:	d12e      	bne.n	800569c <_vfprintf_r+0x4ac>
 800563e:	2330      	movs	r3, #48	; 0x30
 8005640:	f88d 307c 	strb.w	r3, [sp, #124]	; 0x7c
 8005644:	9b0b      	ldr	r3, [sp, #44]	; 0x2c
 8005646:	f048 0802 	orr.w	r8, r8, #2
 800564a:	2b61      	cmp	r3, #97	; 0x61
 800564c:	bf0c      	ite	eq
 800564e:	2378      	moveq	r3, #120	; 0x78
 8005650:	2358      	movne	r3, #88	; 0x58
 8005652:	f88d 307d 	strb.w	r3, [sp, #125]	; 0x7d
 8005656:	9b07      	ldr	r3, [sp, #28]
 8005658:	2b63      	cmp	r3, #99	; 0x63
 800565a:	dd39      	ble.n	80056d0 <_vfprintf_r+0x4e0>
 800565c:	4658      	mov	r0, fp
 800565e:	1c59      	adds	r1, r3, #1
 8005660:	f7ff fb7a 	bl	8004d58 <_malloc_r>
 8005664:	4681      	mov	r9, r0
 8005666:	2800      	cmp	r0, #0
 8005668:	f040 8200 	bne.w	8005a6c <_vfprintf_r+0x87c>
 800566c:	f8ba 300c 	ldrh.w	r3, [sl, #12]
 8005670:	f043 0340 	orr.w	r3, r3, #64	; 0x40
 8005674:	f8aa 300c 	strh.w	r3, [sl, #12]
 8005678:	f8da 3064 	ldr.w	r3, [sl, #100]	; 0x64
 800567c:	07d9      	lsls	r1, r3, #31
 800567e:	d407      	bmi.n	8005690 <_vfprintf_r+0x4a0>
 8005680:	f8ba 300c 	ldrh.w	r3, [sl, #12]
 8005684:	059a      	lsls	r2, r3, #22
 8005686:	d403      	bmi.n	8005690 <_vfprintf_r+0x4a0>
 8005688:	f8da 0058 	ldr.w	r0, [sl, #88]	; 0x58
 800568c:	f002 f9ff 	bl	8007a8e <__retarget_lock_release_recursive>
 8005690:	f8ba 300c 	ldrh.w	r3, [sl, #12]
 8005694:	065b      	lsls	r3, r3, #25
 8005696:	f57f adf1 	bpl.w	800527c <_vfprintf_r+0x8c>
 800569a:	e5ec      	b.n	8005276 <_vfprintf_r+0x86>
 800569c:	9b07      	ldr	r3, [sp, #28]
 800569e:	3301      	adds	r3, #1
 80056a0:	f000 81e6 	beq.w	8005a70 <_vfprintf_r+0x880>
 80056a4:	9b0c      	ldr	r3, [sp, #48]	; 0x30
 80056a6:	2b47      	cmp	r3, #71	; 0x47
 80056a8:	f040 81e5 	bne.w	8005a76 <_vfprintf_r+0x886>
 80056ac:	9b07      	ldr	r3, [sp, #28]
 80056ae:	2b00      	cmp	r3, #0
 80056b0:	f040 81e1 	bne.w	8005a76 <_vfprintf_r+0x886>
 80056b4:	9308      	str	r3, [sp, #32]
 80056b6:	2301      	movs	r3, #1
 80056b8:	9307      	str	r3, [sp, #28]
 80056ba:	e00c      	b.n	80056d6 <_vfprintf_r+0x4e6>
 80056bc:	7fefffff 	.word	0x7fefffff
 80056c0:	0800c3f9 	.word	0x0800c3f9
 80056c4:	0800c3fd 	.word	0x0800c3fd
 80056c8:	0800c401 	.word	0x0800c401
 80056cc:	0800c405 	.word	0x0800c405
 80056d0:	9008      	str	r0, [sp, #32]
 80056d2:	f10d 09e4 	add.w	r9, sp, #228	; 0xe4
 80056d6:	f448 7380 	orr.w	r3, r8, #256	; 0x100
 80056da:	9314      	str	r3, [sp, #80]	; 0x50
 80056dc:	e9dd 7310 	ldrd	r7, r3, [sp, #64]	; 0x40
 80056e0:	1e1d      	subs	r5, r3, #0
 80056e2:	bfae      	itee	ge
 80056e4:	2300      	movge	r3, #0
 80056e6:	f103 4500 	addlt.w	r5, r3, #2147483648	; 0x80000000
 80056ea:	232d      	movlt	r3, #45	; 0x2d
 80056ec:	931c      	str	r3, [sp, #112]	; 0x70
 80056ee:	9b0c      	ldr	r3, [sp, #48]	; 0x30
 80056f0:	2b41      	cmp	r3, #65	; 0x41
 80056f2:	f040 81d8 	bne.w	8005aa6 <_vfprintf_r+0x8b6>
 80056f6:	4638      	mov	r0, r7
 80056f8:	aa20      	add	r2, sp, #128	; 0x80
 80056fa:	4629      	mov	r1, r5
 80056fc:	f002 f9fa 	bl	8007af4 <frexp>
 8005700:	2200      	movs	r2, #0
 8005702:	f04f 537f 	mov.w	r3, #1069547520	; 0x3fc00000
 8005706:	f7fa fef9 	bl	80004fc <__aeabi_dmul>
 800570a:	2200      	movs	r2, #0
 800570c:	2300      	movs	r3, #0
 800570e:	4606      	mov	r6, r0
 8005710:	460f      	mov	r7, r1
 8005712:	f7fb f95b 	bl	80009cc <__aeabi_dcmpeq>
 8005716:	b108      	cbz	r0, 800571c <_vfprintf_r+0x52c>
 8005718:	2301      	movs	r3, #1
 800571a:	9320      	str	r3, [sp, #128]	; 0x80
 800571c:	4bad      	ldr	r3, [pc, #692]	; (80059d4 <_vfprintf_r+0x7e4>)
 800571e:	4aae      	ldr	r2, [pc, #696]	; (80059d8 <_vfprintf_r+0x7e8>)
 8005720:	990b      	ldr	r1, [sp, #44]	; 0x2c
 8005722:	464d      	mov	r5, r9
 8005724:	2961      	cmp	r1, #97	; 0x61
 8005726:	bf18      	it	ne
 8005728:	461a      	movne	r2, r3
 800572a:	9b07      	ldr	r3, [sp, #28]
 800572c:	921b      	str	r2, [sp, #108]	; 0x6c
 800572e:	3b01      	subs	r3, #1
 8005730:	9309      	str	r3, [sp, #36]	; 0x24
 8005732:	2200      	movs	r2, #0
 8005734:	4ba9      	ldr	r3, [pc, #676]	; (80059dc <_vfprintf_r+0x7ec>)
 8005736:	4630      	mov	r0, r6
 8005738:	4639      	mov	r1, r7
 800573a:	f7fa fedf 	bl	80004fc <__aeabi_dmul>
 800573e:	460f      	mov	r7, r1
 8005740:	4606      	mov	r6, r0
 8005742:	f7fb f98b 	bl	8000a5c <__aeabi_d2iz>
 8005746:	901d      	str	r0, [sp, #116]	; 0x74
 8005748:	f7fa fe6e 	bl	8000428 <__aeabi_i2d>
 800574c:	4602      	mov	r2, r0
 800574e:	460b      	mov	r3, r1
 8005750:	4630      	mov	r0, r6
 8005752:	4639      	mov	r1, r7
 8005754:	f7fa fd1a 	bl	800018c <__aeabi_dsub>
 8005758:	9a1d      	ldr	r2, [sp, #116]	; 0x74
 800575a:	9b1b      	ldr	r3, [sp, #108]	; 0x6c
 800575c:	4606      	mov	r6, r0
 800575e:	5c9b      	ldrb	r3, [r3, r2]
 8005760:	460f      	mov	r7, r1
 8005762:	f805 3b01 	strb.w	r3, [r5], #1
 8005766:	9b09      	ldr	r3, [sp, #36]	; 0x24
 8005768:	1c5a      	adds	r2, r3, #1
 800576a:	9316      	str	r3, [sp, #88]	; 0x58
 800576c:	d007      	beq.n	800577e <_vfprintf_r+0x58e>
 800576e:	3b01      	subs	r3, #1
 8005770:	9309      	str	r3, [sp, #36]	; 0x24
 8005772:	2200      	movs	r2, #0
 8005774:	2300      	movs	r3, #0
 8005776:	f7fb f929 	bl	80009cc <__aeabi_dcmpeq>
 800577a:	2800      	cmp	r0, #0
 800577c:	d0d9      	beq.n	8005732 <_vfprintf_r+0x542>
 800577e:	2200      	movs	r2, #0
 8005780:	4630      	mov	r0, r6
 8005782:	4639      	mov	r1, r7
 8005784:	4b96      	ldr	r3, [pc, #600]	; (80059e0 <_vfprintf_r+0x7f0>)
 8005786:	f7fb f949 	bl	8000a1c <__aeabi_dcmpgt>
 800578a:	b960      	cbnz	r0, 80057a6 <_vfprintf_r+0x5b6>
 800578c:	2200      	movs	r2, #0
 800578e:	4630      	mov	r0, r6
 8005790:	4639      	mov	r1, r7
 8005792:	4b93      	ldr	r3, [pc, #588]	; (80059e0 <_vfprintf_r+0x7f0>)
 8005794:	f7fb f91a 	bl	80009cc <__aeabi_dcmpeq>
 8005798:	2800      	cmp	r0, #0
 800579a:	f000 817f 	beq.w	8005a9c <_vfprintf_r+0x8ac>
 800579e:	9b1d      	ldr	r3, [sp, #116]	; 0x74
 80057a0:	07da      	lsls	r2, r3, #31
 80057a2:	f140 817b 	bpl.w	8005a9c <_vfprintf_r+0x8ac>
 80057a6:	2030      	movs	r0, #48	; 0x30
 80057a8:	9b1b      	ldr	r3, [sp, #108]	; 0x6c
 80057aa:	9524      	str	r5, [sp, #144]	; 0x90
 80057ac:	7bd9      	ldrb	r1, [r3, #15]
 80057ae:	9a24      	ldr	r2, [sp, #144]	; 0x90
 80057b0:	1e53      	subs	r3, r2, #1
 80057b2:	9324      	str	r3, [sp, #144]	; 0x90
 80057b4:	f812 3c01 	ldrb.w	r3, [r2, #-1]
 80057b8:	428b      	cmp	r3, r1
 80057ba:	f000 815e 	beq.w	8005a7a <_vfprintf_r+0x88a>
 80057be:	2b39      	cmp	r3, #57	; 0x39
 80057c0:	bf0b      	itete	eq
 80057c2:	9b1b      	ldreq	r3, [sp, #108]	; 0x6c
 80057c4:	3301      	addne	r3, #1
 80057c6:	7a9b      	ldrbeq	r3, [r3, #10]
 80057c8:	b2db      	uxtbne	r3, r3
 80057ca:	f802 3c01 	strb.w	r3, [r2, #-1]
 80057ce:	eba5 0309 	sub.w	r3, r5, r9
 80057d2:	9309      	str	r3, [sp, #36]	; 0x24
 80057d4:	9b0c      	ldr	r3, [sp, #48]	; 0x30
 80057d6:	9d20      	ldr	r5, [sp, #128]	; 0x80
 80057d8:	2b47      	cmp	r3, #71	; 0x47
 80057da:	f040 81b3 	bne.w	8005b44 <_vfprintf_r+0x954>
 80057de:	1ceb      	adds	r3, r5, #3
 80057e0:	db03      	blt.n	80057ea <_vfprintf_r+0x5fa>
 80057e2:	9b07      	ldr	r3, [sp, #28]
 80057e4:	42ab      	cmp	r3, r5
 80057e6:	f280 81d3 	bge.w	8005b90 <_vfprintf_r+0x9a0>
 80057ea:	9b0b      	ldr	r3, [sp, #44]	; 0x2c
 80057ec:	3b02      	subs	r3, #2
 80057ee:	930b      	str	r3, [sp, #44]	; 0x2c
 80057f0:	990b      	ldr	r1, [sp, #44]	; 0x2c
 80057f2:	f89d 202c 	ldrb.w	r2, [sp, #44]	; 0x2c
 80057f6:	f021 0120 	bic.w	r1, r1, #32
 80057fa:	2941      	cmp	r1, #65	; 0x41
 80057fc:	bf08      	it	eq
 80057fe:	320f      	addeq	r2, #15
 8005800:	f105 33ff 	add.w	r3, r5, #4294967295	; 0xffffffff
 8005804:	bf06      	itte	eq
 8005806:	b2d2      	uxtbeq	r2, r2
 8005808:	2101      	moveq	r1, #1
 800580a:	2100      	movne	r1, #0
 800580c:	2b00      	cmp	r3, #0
 800580e:	f88d 2088 	strb.w	r2, [sp, #136]	; 0x88
 8005812:	bfb4      	ite	lt
 8005814:	222d      	movlt	r2, #45	; 0x2d
 8005816:	222b      	movge	r2, #43	; 0x2b
 8005818:	9320      	str	r3, [sp, #128]	; 0x80
 800581a:	bfb8      	it	lt
 800581c:	f1c5 0301 	rsblt	r3, r5, #1
 8005820:	2b09      	cmp	r3, #9
 8005822:	f88d 2089 	strb.w	r2, [sp, #137]	; 0x89
 8005826:	f340 81a6 	ble.w	8005b76 <_vfprintf_r+0x986>
 800582a:	260a      	movs	r6, #10
 800582c:	f10d 0097 	add.w	r0, sp, #151	; 0x97
 8005830:	fb93 f5f6 	sdiv	r5, r3, r6
 8005834:	4602      	mov	r2, r0
 8005836:	fb06 3115 	mls	r1, r6, r5, r3
 800583a:	3130      	adds	r1, #48	; 0x30
 800583c:	f802 1c01 	strb.w	r1, [r2, #-1]
 8005840:	4619      	mov	r1, r3
 8005842:	2963      	cmp	r1, #99	; 0x63
 8005844:	462b      	mov	r3, r5
 8005846:	f100 30ff 	add.w	r0, r0, #4294967295	; 0xffffffff
 800584a:	dcf1      	bgt.n	8005830 <_vfprintf_r+0x640>
 800584c:	3330      	adds	r3, #48	; 0x30
 800584e:	1e91      	subs	r1, r2, #2
 8005850:	f800 3c01 	strb.w	r3, [r0, #-1]
 8005854:	460b      	mov	r3, r1
 8005856:	f10d 0589 	add.w	r5, sp, #137	; 0x89
 800585a:	f10d 0097 	add.w	r0, sp, #151	; 0x97
 800585e:	4283      	cmp	r3, r0
 8005860:	f0c0 8184 	bcc.w	8005b6c <_vfprintf_r+0x97c>
 8005864:	f10d 0399 	add.w	r3, sp, #153	; 0x99
 8005868:	1a9b      	subs	r3, r3, r2
 800586a:	4281      	cmp	r1, r0
 800586c:	bf88      	it	hi
 800586e:	2300      	movhi	r3, #0
 8005870:	f10d 028a 	add.w	r2, sp, #138	; 0x8a
 8005874:	441a      	add	r2, r3
 8005876:	ab22      	add	r3, sp, #136	; 0x88
 8005878:	1ad3      	subs	r3, r2, r3
 800587a:	9a09      	ldr	r2, [sp, #36]	; 0x24
 800587c:	9319      	str	r3, [sp, #100]	; 0x64
 800587e:	2a01      	cmp	r2, #1
 8005880:	4413      	add	r3, r2
 8005882:	9307      	str	r3, [sp, #28]
 8005884:	dc02      	bgt.n	800588c <_vfprintf_r+0x69c>
 8005886:	f018 0f01 	tst.w	r8, #1
 800588a:	d003      	beq.n	8005894 <_vfprintf_r+0x6a4>
 800588c:	9b07      	ldr	r3, [sp, #28]
 800588e:	9a0f      	ldr	r2, [sp, #60]	; 0x3c
 8005890:	4413      	add	r3, r2
 8005892:	9307      	str	r3, [sp, #28]
 8005894:	2600      	movs	r6, #0
 8005896:	4635      	mov	r5, r6
 8005898:	f428 6380 	bic.w	r3, r8, #1024	; 0x400
 800589c:	f443 7380 	orr.w	r3, r3, #256	; 0x100
 80058a0:	9314      	str	r3, [sp, #80]	; 0x50
 80058a2:	960c      	str	r6, [sp, #48]	; 0x30
 80058a4:	9b1c      	ldr	r3, [sp, #112]	; 0x70
 80058a6:	b113      	cbz	r3, 80058ae <_vfprintf_r+0x6be>
 80058a8:	232d      	movs	r3, #45	; 0x2d
 80058aa:	f88d 307b 	strb.w	r3, [sp, #123]	; 0x7b
 80058ae:	2700      	movs	r7, #0
 80058b0:	f8dd 8050 	ldr.w	r8, [sp, #80]	; 0x50
 80058b4:	9b07      	ldr	r3, [sp, #28]
 80058b6:	42bb      	cmp	r3, r7
 80058b8:	bfb8      	it	lt
 80058ba:	463b      	movlt	r3, r7
 80058bc:	9314      	str	r3, [sp, #80]	; 0x50
 80058be:	f89d 307b 	ldrb.w	r3, [sp, #123]	; 0x7b
 80058c2:	b113      	cbz	r3, 80058ca <_vfprintf_r+0x6da>
 80058c4:	9b14      	ldr	r3, [sp, #80]	; 0x50
 80058c6:	3301      	adds	r3, #1
 80058c8:	9314      	str	r3, [sp, #80]	; 0x50
 80058ca:	f018 0302 	ands.w	r3, r8, #2
 80058ce:	931b      	str	r3, [sp, #108]	; 0x6c
 80058d0:	bf1e      	ittt	ne
 80058d2:	9b14      	ldrne	r3, [sp, #80]	; 0x50
 80058d4:	3302      	addne	r3, #2
 80058d6:	9314      	strne	r3, [sp, #80]	; 0x50
 80058d8:	f018 0384 	ands.w	r3, r8, #132	; 0x84
 80058dc:	931c      	str	r3, [sp, #112]	; 0x70
 80058de:	d121      	bne.n	8005924 <_vfprintf_r+0x734>
 80058e0:	e9dd 3213 	ldrd	r3, r2, [sp, #76]	; 0x4c
 80058e4:	1a9b      	subs	r3, r3, r2
 80058e6:	2b00      	cmp	r3, #0
 80058e8:	9316      	str	r3, [sp, #88]	; 0x58
 80058ea:	dd1b      	ble.n	8005924 <_vfprintf_r+0x734>
 80058ec:	e9dd 2327 	ldrd	r2, r3, [sp, #156]	; 0x9c
 80058f0:	9816      	ldr	r0, [sp, #88]	; 0x58
 80058f2:	3201      	adds	r2, #1
 80058f4:	2810      	cmp	r0, #16
 80058f6:	483b      	ldr	r0, [pc, #236]	; (80059e4 <_vfprintf_r+0x7f4>)
 80058f8:	f104 0108 	add.w	r1, r4, #8
 80058fc:	6020      	str	r0, [r4, #0]
 80058fe:	f300 82e6 	bgt.w	8005ece <_vfprintf_r+0xcde>
 8005902:	9816      	ldr	r0, [sp, #88]	; 0x58
 8005904:	2a07      	cmp	r2, #7
 8005906:	4403      	add	r3, r0
 8005908:	e9cd 2327 	strd	r2, r3, [sp, #156]	; 0x9c
 800590c:	6060      	str	r0, [r4, #4]
 800590e:	f340 82f3 	ble.w	8005ef8 <_vfprintf_r+0xd08>
 8005912:	4651      	mov	r1, sl
 8005914:	4658      	mov	r0, fp
 8005916:	aa26      	add	r2, sp, #152	; 0x98
 8005918:	f000 fec6 	bl	80066a8 <__sprint_r>
 800591c:	2800      	cmp	r0, #0
 800591e:	f040 861b 	bne.w	8006558 <_vfprintf_r+0x1368>
 8005922:	ac29      	add	r4, sp, #164	; 0xa4
 8005924:	f89d 207b 	ldrb.w	r2, [sp, #123]	; 0x7b
 8005928:	9b28      	ldr	r3, [sp, #160]	; 0xa0
 800592a:	b16a      	cbz	r2, 8005948 <_vfprintf_r+0x758>
 800592c:	f10d 027b 	add.w	r2, sp, #123	; 0x7b
 8005930:	6022      	str	r2, [r4, #0]
 8005932:	2201      	movs	r2, #1
 8005934:	4413      	add	r3, r2
 8005936:	9328      	str	r3, [sp, #160]	; 0xa0
 8005938:	9b27      	ldr	r3, [sp, #156]	; 0x9c
 800593a:	6062      	str	r2, [r4, #4]
 800593c:	4413      	add	r3, r2
 800593e:	2b07      	cmp	r3, #7
 8005940:	9327      	str	r3, [sp, #156]	; 0x9c
 8005942:	f300 82db 	bgt.w	8005efc <_vfprintf_r+0xd0c>
 8005946:	3408      	adds	r4, #8
 8005948:	9a1b      	ldr	r2, [sp, #108]	; 0x6c
 800594a:	9b28      	ldr	r3, [sp, #160]	; 0xa0
 800594c:	b162      	cbz	r2, 8005968 <_vfprintf_r+0x778>
 800594e:	aa1f      	add	r2, sp, #124	; 0x7c
 8005950:	6022      	str	r2, [r4, #0]
 8005952:	2202      	movs	r2, #2
 8005954:	4413      	add	r3, r2
 8005956:	9328      	str	r3, [sp, #160]	; 0xa0
 8005958:	9b27      	ldr	r3, [sp, #156]	; 0x9c
 800595a:	6062      	str	r2, [r4, #4]
 800595c:	3301      	adds	r3, #1
 800595e:	2b07      	cmp	r3, #7
 8005960:	9327      	str	r3, [sp, #156]	; 0x9c
 8005962:	f300 82d5 	bgt.w	8005f10 <_vfprintf_r+0xd20>
 8005966:	3408      	adds	r4, #8
 8005968:	9b1c      	ldr	r3, [sp, #112]	; 0x70
 800596a:	2b80      	cmp	r3, #128	; 0x80
 800596c:	d121      	bne.n	80059b2 <_vfprintf_r+0x7c2>
 800596e:	e9dd 3213 	ldrd	r3, r2, [sp, #76]	; 0x4c
 8005972:	1a9b      	subs	r3, r3, r2
 8005974:	2b00      	cmp	r3, #0
 8005976:	9316      	str	r3, [sp, #88]	; 0x58
 8005978:	dd1b      	ble.n	80059b2 <_vfprintf_r+0x7c2>
 800597a:	e9dd 2327 	ldrd	r2, r3, [sp, #156]	; 0x9c
 800597e:	9816      	ldr	r0, [sp, #88]	; 0x58
 8005980:	3201      	adds	r2, #1
 8005982:	2810      	cmp	r0, #16
 8005984:	4818      	ldr	r0, [pc, #96]	; (80059e8 <_vfprintf_r+0x7f8>)
 8005986:	f104 0108 	add.w	r1, r4, #8
 800598a:	6020      	str	r0, [r4, #0]
 800598c:	f300 82ca 	bgt.w	8005f24 <_vfprintf_r+0xd34>
 8005990:	9816      	ldr	r0, [sp, #88]	; 0x58
 8005992:	2a07      	cmp	r2, #7
 8005994:	4403      	add	r3, r0
 8005996:	e9cd 2327 	strd	r2, r3, [sp, #156]	; 0x9c
 800599a:	6060      	str	r0, [r4, #4]
 800599c:	f340 82d7 	ble.w	8005f4e <_vfprintf_r+0xd5e>
 80059a0:	4651      	mov	r1, sl
 80059a2:	4658      	mov	r0, fp
 80059a4:	aa26      	add	r2, sp, #152	; 0x98
 80059a6:	f000 fe7f 	bl	80066a8 <__sprint_r>
 80059aa:	2800      	cmp	r0, #0
 80059ac:	f040 85d4 	bne.w	8006558 <_vfprintf_r+0x1368>
 80059b0:	ac29      	add	r4, sp, #164	; 0xa4
 80059b2:	9b07      	ldr	r3, [sp, #28]
 80059b4:	1aff      	subs	r7, r7, r3
 80059b6:	2f00      	cmp	r7, #0
 80059b8:	dd28      	ble.n	8005a0c <_vfprintf_r+0x81c>
 80059ba:	e9dd 3227 	ldrd	r3, r2, [sp, #156]	; 0x9c
 80059be:	480a      	ldr	r0, [pc, #40]	; (80059e8 <_vfprintf_r+0x7f8>)
 80059c0:	2f10      	cmp	r7, #16
 80059c2:	f103 0301 	add.w	r3, r3, #1
 80059c6:	f104 0108 	add.w	r1, r4, #8
 80059ca:	6020      	str	r0, [r4, #0]
 80059cc:	f300 82c1 	bgt.w	8005f52 <_vfprintf_r+0xd62>
 80059d0:	e00c      	b.n	80059ec <_vfprintf_r+0x7fc>
 80059d2:	bf00      	nop
 80059d4:	0800c41a 	.word	0x0800c41a
 80059d8:	0800c409 	.word	0x0800c409
 80059dc:	40300000 	.word	0x40300000
 80059e0:	3fe00000 	.word	0x3fe00000
 80059e4:	0800c42d 	.word	0x0800c42d
 80059e8:	0800c43d 	.word	0x0800c43d
 80059ec:	6067      	str	r7, [r4, #4]
 80059ee:	2b07      	cmp	r3, #7
 80059f0:	4417      	add	r7, r2
 80059f2:	e9cd 3727 	strd	r3, r7, [sp, #156]	; 0x9c
 80059f6:	f340 82bf 	ble.w	8005f78 <_vfprintf_r+0xd88>
 80059fa:	4651      	mov	r1, sl
 80059fc:	4658      	mov	r0, fp
 80059fe:	aa26      	add	r2, sp, #152	; 0x98
 8005a00:	f000 fe52 	bl	80066a8 <__sprint_r>
 8005a04:	2800      	cmp	r0, #0
 8005a06:	f040 85a7 	bne.w	8006558 <_vfprintf_r+0x1368>
 8005a0a:	ac29      	add	r4, sp, #164	; 0xa4
 8005a0c:	f418 7f80 	tst.w	r8, #256	; 0x100
 8005a10:	9f28      	ldr	r7, [sp, #160]	; 0xa0
 8005a12:	f040 82b7 	bne.w	8005f84 <_vfprintf_r+0xd94>
 8005a16:	9b07      	ldr	r3, [sp, #28]
 8005a18:	f8c4 9000 	str.w	r9, [r4]
 8005a1c:	441f      	add	r7, r3
 8005a1e:	6063      	str	r3, [r4, #4]
 8005a20:	9728      	str	r7, [sp, #160]	; 0xa0
 8005a22:	9b27      	ldr	r3, [sp, #156]	; 0x9c
 8005a24:	3301      	adds	r3, #1
 8005a26:	2b07      	cmp	r3, #7
 8005a28:	9327      	str	r3, [sp, #156]	; 0x9c
 8005a2a:	f300 82f0 	bgt.w	800600e <_vfprintf_r+0xe1e>
 8005a2e:	3408      	adds	r4, #8
 8005a30:	f018 0f04 	tst.w	r8, #4
 8005a34:	f040 8572 	bne.w	800651c <_vfprintf_r+0x132c>
 8005a38:	e9dd 3212 	ldrd	r3, r2, [sp, #72]	; 0x48
 8005a3c:	9914      	ldr	r1, [sp, #80]	; 0x50
 8005a3e:	428a      	cmp	r2, r1
 8005a40:	bfac      	ite	ge
 8005a42:	189b      	addge	r3, r3, r2
 8005a44:	185b      	addlt	r3, r3, r1
 8005a46:	9312      	str	r3, [sp, #72]	; 0x48
 8005a48:	9b28      	ldr	r3, [sp, #160]	; 0xa0
 8005a4a:	b13b      	cbz	r3, 8005a5c <_vfprintf_r+0x86c>
 8005a4c:	4651      	mov	r1, sl
 8005a4e:	4658      	mov	r0, fp
 8005a50:	aa26      	add	r2, sp, #152	; 0x98
 8005a52:	f000 fe29 	bl	80066a8 <__sprint_r>
 8005a56:	2800      	cmp	r0, #0
 8005a58:	f040 857e 	bne.w	8006558 <_vfprintf_r+0x1368>
 8005a5c:	2300      	movs	r3, #0
 8005a5e:	9327      	str	r3, [sp, #156]	; 0x9c
 8005a60:	9b08      	ldr	r3, [sp, #32]
 8005a62:	2b00      	cmp	r3, #0
 8005a64:	f040 8594 	bne.w	8006590 <_vfprintf_r+0x13a0>
 8005a68:	ac29      	add	r4, sp, #164	; 0xa4
 8005a6a:	e0e6      	b.n	8005c3a <_vfprintf_r+0xa4a>
 8005a6c:	9008      	str	r0, [sp, #32]
 8005a6e:	e632      	b.n	80056d6 <_vfprintf_r+0x4e6>
 8005a70:	2306      	movs	r3, #6
 8005a72:	9008      	str	r0, [sp, #32]
 8005a74:	e620      	b.n	80056b8 <_vfprintf_r+0x4c8>
 8005a76:	9008      	str	r0, [sp, #32]
 8005a78:	e62d      	b.n	80056d6 <_vfprintf_r+0x4e6>
 8005a7a:	f802 0c01 	strb.w	r0, [r2, #-1]
 8005a7e:	e696      	b.n	80057ae <_vfprintf_r+0x5be>
 8005a80:	f803 0b01 	strb.w	r0, [r3], #1
 8005a84:	1aca      	subs	r2, r1, r3
 8005a86:	2a00      	cmp	r2, #0
 8005a88:	dafa      	bge.n	8005a80 <_vfprintf_r+0x890>
 8005a8a:	9a16      	ldr	r2, [sp, #88]	; 0x58
 8005a8c:	9b16      	ldr	r3, [sp, #88]	; 0x58
 8005a8e:	3201      	adds	r2, #1
 8005a90:	f103 0301 	add.w	r3, r3, #1
 8005a94:	bfb8      	it	lt
 8005a96:	2300      	movlt	r3, #0
 8005a98:	441d      	add	r5, r3
 8005a9a:	e698      	b.n	80057ce <_vfprintf_r+0x5de>
 8005a9c:	9a16      	ldr	r2, [sp, #88]	; 0x58
 8005a9e:	462b      	mov	r3, r5
 8005aa0:	2030      	movs	r0, #48	; 0x30
 8005aa2:	18a9      	adds	r1, r5, r2
 8005aa4:	e7ee      	b.n	8005a84 <_vfprintf_r+0x894>
 8005aa6:	9b0c      	ldr	r3, [sp, #48]	; 0x30
 8005aa8:	2b46      	cmp	r3, #70	; 0x46
 8005aaa:	d005      	beq.n	8005ab8 <_vfprintf_r+0x8c8>
 8005aac:	2b45      	cmp	r3, #69	; 0x45
 8005aae:	d11d      	bne.n	8005aec <_vfprintf_r+0x8fc>
 8005ab0:	9b07      	ldr	r3, [sp, #28]
 8005ab2:	1c5e      	adds	r6, r3, #1
 8005ab4:	2302      	movs	r3, #2
 8005ab6:	e001      	b.n	8005abc <_vfprintf_r+0x8cc>
 8005ab8:	2303      	movs	r3, #3
 8005aba:	9e07      	ldr	r6, [sp, #28]
 8005abc:	aa24      	add	r2, sp, #144	; 0x90
 8005abe:	9204      	str	r2, [sp, #16]
 8005ac0:	aa21      	add	r2, sp, #132	; 0x84
 8005ac2:	9203      	str	r2, [sp, #12]
 8005ac4:	aa20      	add	r2, sp, #128	; 0x80
 8005ac6:	e9cd 6201 	strd	r6, r2, [sp, #4]
 8005aca:	9300      	str	r3, [sp, #0]
 8005acc:	463a      	mov	r2, r7
 8005ace:	462b      	mov	r3, r5
 8005ad0:	4658      	mov	r0, fp
 8005ad2:	f002 f8dd 	bl	8007c90 <_dtoa_r>
 8005ad6:	9b0c      	ldr	r3, [sp, #48]	; 0x30
 8005ad8:	4681      	mov	r9, r0
 8005ada:	2b47      	cmp	r3, #71	; 0x47
 8005adc:	d108      	bne.n	8005af0 <_vfprintf_r+0x900>
 8005ade:	f018 0f01 	tst.w	r8, #1
 8005ae2:	d105      	bne.n	8005af0 <_vfprintf_r+0x900>
 8005ae4:	9b24      	ldr	r3, [sp, #144]	; 0x90
 8005ae6:	eba3 0309 	sub.w	r3, r3, r9
 8005aea:	e672      	b.n	80057d2 <_vfprintf_r+0x5e2>
 8005aec:	9e07      	ldr	r6, [sp, #28]
 8005aee:	e7e1      	b.n	8005ab4 <_vfprintf_r+0x8c4>
 8005af0:	eb09 0306 	add.w	r3, r9, r6
 8005af4:	9309      	str	r3, [sp, #36]	; 0x24
 8005af6:	9b0c      	ldr	r3, [sp, #48]	; 0x30
 8005af8:	2b46      	cmp	r3, #70	; 0x46
 8005afa:	d111      	bne.n	8005b20 <_vfprintf_r+0x930>
 8005afc:	f899 3000 	ldrb.w	r3, [r9]
 8005b00:	2b30      	cmp	r3, #48	; 0x30
 8005b02:	d109      	bne.n	8005b18 <_vfprintf_r+0x928>
 8005b04:	2200      	movs	r2, #0
 8005b06:	2300      	movs	r3, #0
 8005b08:	4638      	mov	r0, r7
 8005b0a:	4629      	mov	r1, r5
 8005b0c:	f7fa ff5e 	bl	80009cc <__aeabi_dcmpeq>
 8005b10:	b910      	cbnz	r0, 8005b18 <_vfprintf_r+0x928>
 8005b12:	f1c6 0601 	rsb	r6, r6, #1
 8005b16:	9620      	str	r6, [sp, #128]	; 0x80
 8005b18:	9a09      	ldr	r2, [sp, #36]	; 0x24
 8005b1a:	9b20      	ldr	r3, [sp, #128]	; 0x80
 8005b1c:	441a      	add	r2, r3
 8005b1e:	9209      	str	r2, [sp, #36]	; 0x24
 8005b20:	2200      	movs	r2, #0
 8005b22:	2300      	movs	r3, #0
 8005b24:	4638      	mov	r0, r7
 8005b26:	4629      	mov	r1, r5
 8005b28:	f7fa ff50 	bl	80009cc <__aeabi_dcmpeq>
 8005b2c:	b108      	cbz	r0, 8005b32 <_vfprintf_r+0x942>
 8005b2e:	9b09      	ldr	r3, [sp, #36]	; 0x24
 8005b30:	9324      	str	r3, [sp, #144]	; 0x90
 8005b32:	2230      	movs	r2, #48	; 0x30
 8005b34:	9b24      	ldr	r3, [sp, #144]	; 0x90
 8005b36:	9909      	ldr	r1, [sp, #36]	; 0x24
 8005b38:	4299      	cmp	r1, r3
 8005b3a:	d9d3      	bls.n	8005ae4 <_vfprintf_r+0x8f4>
 8005b3c:	1c59      	adds	r1, r3, #1
 8005b3e:	9124      	str	r1, [sp, #144]	; 0x90
 8005b40:	701a      	strb	r2, [r3, #0]
 8005b42:	e7f7      	b.n	8005b34 <_vfprintf_r+0x944>
 8005b44:	9b0c      	ldr	r3, [sp, #48]	; 0x30
 8005b46:	2b46      	cmp	r3, #70	; 0x46
 8005b48:	f47f ae52 	bne.w	80057f0 <_vfprintf_r+0x600>
 8005b4c:	9a07      	ldr	r2, [sp, #28]
 8005b4e:	f008 0301 	and.w	r3, r8, #1
 8005b52:	2d00      	cmp	r5, #0
 8005b54:	ea43 0302 	orr.w	r3, r3, r2
 8005b58:	dd29      	ble.n	8005bae <_vfprintf_r+0x9be>
 8005b5a:	2b00      	cmp	r3, #0
 8005b5c:	d034      	beq.n	8005bc8 <_vfprintf_r+0x9d8>
 8005b5e:	9b0f      	ldr	r3, [sp, #60]	; 0x3c
 8005b60:	18eb      	adds	r3, r5, r3
 8005b62:	441a      	add	r2, r3
 8005b64:	9207      	str	r2, [sp, #28]
 8005b66:	2366      	movs	r3, #102	; 0x66
 8005b68:	930b      	str	r3, [sp, #44]	; 0x2c
 8005b6a:	e033      	b.n	8005bd4 <_vfprintf_r+0x9e4>
 8005b6c:	f813 6b01 	ldrb.w	r6, [r3], #1
 8005b70:	f805 6f01 	strb.w	r6, [r5, #1]!
 8005b74:	e673      	b.n	800585e <_vfprintf_r+0x66e>
 8005b76:	b941      	cbnz	r1, 8005b8a <_vfprintf_r+0x99a>
 8005b78:	2230      	movs	r2, #48	; 0x30
 8005b7a:	f88d 208a 	strb.w	r2, [sp, #138]	; 0x8a
 8005b7e:	f10d 028b 	add.w	r2, sp, #139	; 0x8b
 8005b82:	3330      	adds	r3, #48	; 0x30
 8005b84:	f802 3b01 	strb.w	r3, [r2], #1
 8005b88:	e675      	b.n	8005876 <_vfprintf_r+0x686>
 8005b8a:	f10d 028a 	add.w	r2, sp, #138	; 0x8a
 8005b8e:	e7f8      	b.n	8005b82 <_vfprintf_r+0x992>
 8005b90:	9b09      	ldr	r3, [sp, #36]	; 0x24
 8005b92:	42ab      	cmp	r3, r5
 8005b94:	dd10      	ble.n	8005bb8 <_vfprintf_r+0x9c8>
 8005b96:	9b09      	ldr	r3, [sp, #36]	; 0x24
 8005b98:	9a0f      	ldr	r2, [sp, #60]	; 0x3c
 8005b9a:	2d00      	cmp	r5, #0
 8005b9c:	4413      	add	r3, r2
 8005b9e:	9307      	str	r3, [sp, #28]
 8005ba0:	dc10      	bgt.n	8005bc4 <_vfprintf_r+0x9d4>
 8005ba2:	9a07      	ldr	r2, [sp, #28]
 8005ba4:	f1c5 0301 	rsb	r3, r5, #1
 8005ba8:	441a      	add	r2, r3
 8005baa:	9207      	str	r2, [sp, #28]
 8005bac:	e00a      	b.n	8005bc4 <_vfprintf_r+0x9d4>
 8005bae:	b16b      	cbz	r3, 8005bcc <_vfprintf_r+0x9dc>
 8005bb0:	9b0f      	ldr	r3, [sp, #60]	; 0x3c
 8005bb2:	9a07      	ldr	r2, [sp, #28]
 8005bb4:	3301      	adds	r3, #1
 8005bb6:	e7d4      	b.n	8005b62 <_vfprintf_r+0x972>
 8005bb8:	f018 0f01 	tst.w	r8, #1
 8005bbc:	d01f      	beq.n	8005bfe <_vfprintf_r+0xa0e>
 8005bbe:	9b0f      	ldr	r3, [sp, #60]	; 0x3c
 8005bc0:	18eb      	adds	r3, r5, r3
 8005bc2:	9307      	str	r3, [sp, #28]
 8005bc4:	2367      	movs	r3, #103	; 0x67
 8005bc6:	e7cf      	b.n	8005b68 <_vfprintf_r+0x978>
 8005bc8:	9507      	str	r5, [sp, #28]
 8005bca:	e7cc      	b.n	8005b66 <_vfprintf_r+0x976>
 8005bcc:	2366      	movs	r3, #102	; 0x66
 8005bce:	930b      	str	r3, [sp, #44]	; 0x2c
 8005bd0:	2301      	movs	r3, #1
 8005bd2:	9307      	str	r3, [sp, #28]
 8005bd4:	f418 6380 	ands.w	r3, r8, #1024	; 0x400
 8005bd8:	930c      	str	r3, [sp, #48]	; 0x30
 8005bda:	d021      	beq.n	8005c20 <_vfprintf_r+0xa30>
 8005bdc:	2600      	movs	r6, #0
 8005bde:	2d00      	cmp	r5, #0
 8005be0:	960c      	str	r6, [sp, #48]	; 0x30
 8005be2:	f77f ae5f 	ble.w	80058a4 <_vfprintf_r+0x6b4>
 8005be6:	9b0d      	ldr	r3, [sp, #52]	; 0x34
 8005be8:	781b      	ldrb	r3, [r3, #0]
 8005bea:	2bff      	cmp	r3, #255	; 0xff
 8005bec:	d109      	bne.n	8005c02 <_vfprintf_r+0xa12>
 8005bee:	9b0c      	ldr	r3, [sp, #48]	; 0x30
 8005bf0:	9a07      	ldr	r2, [sp, #28]
 8005bf2:	9915      	ldr	r1, [sp, #84]	; 0x54
 8005bf4:	4433      	add	r3, r6
 8005bf6:	fb01 2303 	mla	r3, r1, r3, r2
 8005bfa:	9307      	str	r3, [sp, #28]
 8005bfc:	e652      	b.n	80058a4 <_vfprintf_r+0x6b4>
 8005bfe:	9507      	str	r5, [sp, #28]
 8005c00:	e7e0      	b.n	8005bc4 <_vfprintf_r+0x9d4>
 8005c02:	42ab      	cmp	r3, r5
 8005c04:	daf3      	bge.n	8005bee <_vfprintf_r+0x9fe>
 8005c06:	1aed      	subs	r5, r5, r3
 8005c08:	9b0d      	ldr	r3, [sp, #52]	; 0x34
 8005c0a:	785b      	ldrb	r3, [r3, #1]
 8005c0c:	b133      	cbz	r3, 8005c1c <_vfprintf_r+0xa2c>
 8005c0e:	9b0c      	ldr	r3, [sp, #48]	; 0x30
 8005c10:	3301      	adds	r3, #1
 8005c12:	930c      	str	r3, [sp, #48]	; 0x30
 8005c14:	9b0d      	ldr	r3, [sp, #52]	; 0x34
 8005c16:	3301      	adds	r3, #1
 8005c18:	930d      	str	r3, [sp, #52]	; 0x34
 8005c1a:	e7e4      	b.n	8005be6 <_vfprintf_r+0x9f6>
 8005c1c:	3601      	adds	r6, #1
 8005c1e:	e7e2      	b.n	8005be6 <_vfprintf_r+0x9f6>
 8005c20:	9e0c      	ldr	r6, [sp, #48]	; 0x30
 8005c22:	e63f      	b.n	80058a4 <_vfprintf_r+0x6b4>
 8005c24:	1d2b      	adds	r3, r5, #4
 8005c26:	f018 0f20 	tst.w	r8, #32
 8005c2a:	930a      	str	r3, [sp, #40]	; 0x28
 8005c2c:	d00a      	beq.n	8005c44 <_vfprintf_r+0xa54>
 8005c2e:	9a12      	ldr	r2, [sp, #72]	; 0x48
 8005c30:	682b      	ldr	r3, [r5, #0]
 8005c32:	9912      	ldr	r1, [sp, #72]	; 0x48
 8005c34:	17d2      	asrs	r2, r2, #31
 8005c36:	e9c3 1200 	strd	r1, r2, [r3]
 8005c3a:	9d0a      	ldr	r5, [sp, #40]	; 0x28
 8005c3c:	f8dd 9038 	ldr.w	r9, [sp, #56]	; 0x38
 8005c40:	f7ff bb57 	b.w	80052f2 <_vfprintf_r+0x102>
 8005c44:	f018 0f10 	tst.w	r8, #16
 8005c48:	d003      	beq.n	8005c52 <_vfprintf_r+0xa62>
 8005c4a:	682b      	ldr	r3, [r5, #0]
 8005c4c:	9a12      	ldr	r2, [sp, #72]	; 0x48
 8005c4e:	601a      	str	r2, [r3, #0]
 8005c50:	e7f3      	b.n	8005c3a <_vfprintf_r+0xa4a>
 8005c52:	f018 0f40 	tst.w	r8, #64	; 0x40
 8005c56:	d003      	beq.n	8005c60 <_vfprintf_r+0xa70>
 8005c58:	682b      	ldr	r3, [r5, #0]
 8005c5a:	9a12      	ldr	r2, [sp, #72]	; 0x48
 8005c5c:	801a      	strh	r2, [r3, #0]
 8005c5e:	e7ec      	b.n	8005c3a <_vfprintf_r+0xa4a>
 8005c60:	f418 7f00 	tst.w	r8, #512	; 0x200
 8005c64:	d0f1      	beq.n	8005c4a <_vfprintf_r+0xa5a>
 8005c66:	682b      	ldr	r3, [r5, #0]
 8005c68:	9a12      	ldr	r2, [sp, #72]	; 0x48
 8005c6a:	701a      	strb	r2, [r3, #0]
 8005c6c:	e7e5      	b.n	8005c3a <_vfprintf_r+0xa4a>
 8005c6e:	f048 0810 	orr.w	r8, r8, #16
 8005c72:	f018 0320 	ands.w	r3, r8, #32
 8005c76:	d020      	beq.n	8005cba <_vfprintf_r+0xaca>
 8005c78:	3507      	adds	r5, #7
 8005c7a:	f025 0307 	bic.w	r3, r5, #7
 8005c7e:	461a      	mov	r2, r3
 8005c80:	f852 5b08 	ldr.w	r5, [r2], #8
 8005c84:	685e      	ldr	r6, [r3, #4]
 8005c86:	920a      	str	r2, [sp, #40]	; 0x28
 8005c88:	2300      	movs	r3, #0
 8005c8a:	f428 6880 	bic.w	r8, r8, #1024	; 0x400
 8005c8e:	2200      	movs	r2, #0
 8005c90:	f88d 207b 	strb.w	r2, [sp, #123]	; 0x7b
 8005c94:	9a07      	ldr	r2, [sp, #28]
 8005c96:	3201      	adds	r2, #1
 8005c98:	f000 848f 	beq.w	80065ba <_vfprintf_r+0x13ca>
 8005c9c:	f028 0280 	bic.w	r2, r8, #128	; 0x80
 8005ca0:	9208      	str	r2, [sp, #32]
 8005ca2:	ea55 0206 	orrs.w	r2, r5, r6
 8005ca6:	f040 848e 	bne.w	80065c6 <_vfprintf_r+0x13d6>
 8005caa:	9a07      	ldr	r2, [sp, #28]
 8005cac:	2a00      	cmp	r2, #0
 8005cae:	f000 80f4 	beq.w	8005e9a <_vfprintf_r+0xcaa>
 8005cb2:	2b01      	cmp	r3, #1
 8005cb4:	f040 848a 	bne.w	80065cc <_vfprintf_r+0x13dc>
 8005cb8:	e09e      	b.n	8005df8 <_vfprintf_r+0xc08>
 8005cba:	462a      	mov	r2, r5
 8005cbc:	f852 5b04 	ldr.w	r5, [r2], #4
 8005cc0:	f018 0610 	ands.w	r6, r8, #16
 8005cc4:	920a      	str	r2, [sp, #40]	; 0x28
 8005cc6:	d001      	beq.n	8005ccc <_vfprintf_r+0xadc>
 8005cc8:	461e      	mov	r6, r3
 8005cca:	e7dd      	b.n	8005c88 <_vfprintf_r+0xa98>
 8005ccc:	f018 0340 	ands.w	r3, r8, #64	; 0x40
 8005cd0:	d001      	beq.n	8005cd6 <_vfprintf_r+0xae6>
 8005cd2:	b2ad      	uxth	r5, r5
 8005cd4:	e7d8      	b.n	8005c88 <_vfprintf_r+0xa98>
 8005cd6:	f418 7600 	ands.w	r6, r8, #512	; 0x200
 8005cda:	d0d5      	beq.n	8005c88 <_vfprintf_r+0xa98>
 8005cdc:	b2ed      	uxtb	r5, r5
 8005cde:	e7f3      	b.n	8005cc8 <_vfprintf_r+0xad8>
 8005ce0:	462b      	mov	r3, r5
 8005ce2:	f853 5b04 	ldr.w	r5, [r3], #4
 8005ce6:	2278      	movs	r2, #120	; 0x78
 8005ce8:	930a      	str	r3, [sp, #40]	; 0x28
 8005cea:	f647 0330 	movw	r3, #30768	; 0x7830
 8005cee:	f8ad 307c 	strh.w	r3, [sp, #124]	; 0x7c
 8005cf2:	4ba2      	ldr	r3, [pc, #648]	; (8005f7c <_vfprintf_r+0xd8c>)
 8005cf4:	2600      	movs	r6, #0
 8005cf6:	931a      	str	r3, [sp, #104]	; 0x68
 8005cf8:	f048 0802 	orr.w	r8, r8, #2
 8005cfc:	2302      	movs	r3, #2
 8005cfe:	920b      	str	r2, [sp, #44]	; 0x2c
 8005d00:	e7c5      	b.n	8005c8e <_vfprintf_r+0xa9e>
 8005d02:	462b      	mov	r3, r5
 8005d04:	2500      	movs	r5, #0
 8005d06:	f853 9b04 	ldr.w	r9, [r3], #4
 8005d0a:	f88d 507b 	strb.w	r5, [sp, #123]	; 0x7b
 8005d0e:	930a      	str	r3, [sp, #40]	; 0x28
 8005d10:	9b07      	ldr	r3, [sp, #28]
 8005d12:	1c5e      	adds	r6, r3, #1
 8005d14:	d010      	beq.n	8005d38 <_vfprintf_r+0xb48>
 8005d16:	461a      	mov	r2, r3
 8005d18:	4629      	mov	r1, r5
 8005d1a:	4648      	mov	r0, r9
 8005d1c:	f001 feb8 	bl	8007a90 <memchr>
 8005d20:	9008      	str	r0, [sp, #32]
 8005d22:	2800      	cmp	r0, #0
 8005d24:	f000 80d0 	beq.w	8005ec8 <_vfprintf_r+0xcd8>
 8005d28:	eba0 0309 	sub.w	r3, r0, r9
 8005d2c:	462f      	mov	r7, r5
 8005d2e:	462e      	mov	r6, r5
 8005d30:	e9cd 3507 	strd	r3, r5, [sp, #28]
 8005d34:	950c      	str	r5, [sp, #48]	; 0x30
 8005d36:	e5bd      	b.n	80058b4 <_vfprintf_r+0x6c4>
 8005d38:	4648      	mov	r0, r9
 8005d3a:	f7fa fa1a 	bl	8000172 <strlen>
 8005d3e:	e9cd 0507 	strd	r0, r5, [sp, #28]
 8005d42:	e461      	b.n	8005608 <_vfprintf_r+0x418>
 8005d44:	f048 0810 	orr.w	r8, r8, #16
 8005d48:	f018 0320 	ands.w	r3, r8, #32
 8005d4c:	d009      	beq.n	8005d62 <_vfprintf_r+0xb72>
 8005d4e:	3507      	adds	r5, #7
 8005d50:	f025 0307 	bic.w	r3, r5, #7
 8005d54:	461a      	mov	r2, r3
 8005d56:	f852 5b08 	ldr.w	r5, [r2], #8
 8005d5a:	685e      	ldr	r6, [r3, #4]
 8005d5c:	920a      	str	r2, [sp, #40]	; 0x28
 8005d5e:	2301      	movs	r3, #1
 8005d60:	e795      	b.n	8005c8e <_vfprintf_r+0xa9e>
 8005d62:	462a      	mov	r2, r5
 8005d64:	f852 5b04 	ldr.w	r5, [r2], #4
 8005d68:	f018 0610 	ands.w	r6, r8, #16
 8005d6c:	920a      	str	r2, [sp, #40]	; 0x28
 8005d6e:	d001      	beq.n	8005d74 <_vfprintf_r+0xb84>
 8005d70:	461e      	mov	r6, r3
 8005d72:	e7f4      	b.n	8005d5e <_vfprintf_r+0xb6e>
 8005d74:	f018 0340 	ands.w	r3, r8, #64	; 0x40
 8005d78:	d001      	beq.n	8005d7e <_vfprintf_r+0xb8e>
 8005d7a:	b2ad      	uxth	r5, r5
 8005d7c:	e7ef      	b.n	8005d5e <_vfprintf_r+0xb6e>
 8005d7e:	f418 7600 	ands.w	r6, r8, #512	; 0x200
 8005d82:	d0ec      	beq.n	8005d5e <_vfprintf_r+0xb6e>
 8005d84:	b2ed      	uxtb	r5, r5
 8005d86:	e7f3      	b.n	8005d70 <_vfprintf_r+0xb80>
 8005d88:	4b7d      	ldr	r3, [pc, #500]	; (8005f80 <_vfprintf_r+0xd90>)
 8005d8a:	931a      	str	r3, [sp, #104]	; 0x68
 8005d8c:	f018 0320 	ands.w	r3, r8, #32
 8005d90:	d01b      	beq.n	8005dca <_vfprintf_r+0xbda>
 8005d92:	3507      	adds	r5, #7
 8005d94:	f025 0307 	bic.w	r3, r5, #7
 8005d98:	461a      	mov	r2, r3
 8005d9a:	f852 5b08 	ldr.w	r5, [r2], #8
 8005d9e:	685e      	ldr	r6, [r3, #4]
 8005da0:	920a      	str	r2, [sp, #40]	; 0x28
 8005da2:	f018 0f01 	tst.w	r8, #1
 8005da6:	d00a      	beq.n	8005dbe <_vfprintf_r+0xbce>
 8005da8:	ea55 0306 	orrs.w	r3, r5, r6
 8005dac:	d007      	beq.n	8005dbe <_vfprintf_r+0xbce>
 8005dae:	2330      	movs	r3, #48	; 0x30
 8005db0:	f88d 307c 	strb.w	r3, [sp, #124]	; 0x7c
 8005db4:	9b0b      	ldr	r3, [sp, #44]	; 0x2c
 8005db6:	f048 0802 	orr.w	r8, r8, #2
 8005dba:	f88d 307d 	strb.w	r3, [sp, #125]	; 0x7d
 8005dbe:	2302      	movs	r3, #2
 8005dc0:	f428 6880 	bic.w	r8, r8, #1024	; 0x400
 8005dc4:	e763      	b.n	8005c8e <_vfprintf_r+0xa9e>
 8005dc6:	4b6d      	ldr	r3, [pc, #436]	; (8005f7c <_vfprintf_r+0xd8c>)
 8005dc8:	e7df      	b.n	8005d8a <_vfprintf_r+0xb9a>
 8005dca:	462a      	mov	r2, r5
 8005dcc:	f852 5b04 	ldr.w	r5, [r2], #4
 8005dd0:	f018 0610 	ands.w	r6, r8, #16
 8005dd4:	920a      	str	r2, [sp, #40]	; 0x28
 8005dd6:	d001      	beq.n	8005ddc <_vfprintf_r+0xbec>
 8005dd8:	461e      	mov	r6, r3
 8005dda:	e7e2      	b.n	8005da2 <_vfprintf_r+0xbb2>
 8005ddc:	f018 0340 	ands.w	r3, r8, #64	; 0x40
 8005de0:	d001      	beq.n	8005de6 <_vfprintf_r+0xbf6>
 8005de2:	b2ad      	uxth	r5, r5
 8005de4:	e7dd      	b.n	8005da2 <_vfprintf_r+0xbb2>
 8005de6:	f418 7600 	ands.w	r6, r8, #512	; 0x200
 8005dea:	d0da      	beq.n	8005da2 <_vfprintf_r+0xbb2>
 8005dec:	b2ed      	uxtb	r5, r5
 8005dee:	e7f3      	b.n	8005dd8 <_vfprintf_r+0xbe8>
 8005df0:	2d0a      	cmp	r5, #10
 8005df2:	f176 0300 	sbcs.w	r3, r6, #0
 8005df6:	d205      	bcs.n	8005e04 <_vfprintf_r+0xc14>
 8005df8:	3530      	adds	r5, #48	; 0x30
 8005dfa:	f88d 5147 	strb.w	r5, [sp, #327]	; 0x147
 8005dfe:	f20d 1947 	addw	r9, sp, #327	; 0x147
 8005e02:	e3ff      	b.n	8006604 <_vfprintf_r+0x1414>
 8005e04:	2300      	movs	r3, #0
 8005e06:	9309      	str	r3, [sp, #36]	; 0x24
 8005e08:	9b08      	ldr	r3, [sp, #32]
 8005e0a:	af52      	add	r7, sp, #328	; 0x148
 8005e0c:	f403 6380 	and.w	r3, r3, #1024	; 0x400
 8005e10:	930c      	str	r3, [sp, #48]	; 0x30
 8005e12:	220a      	movs	r2, #10
 8005e14:	2300      	movs	r3, #0
 8005e16:	4628      	mov	r0, r5
 8005e18:	4631      	mov	r1, r6
 8005e1a:	f7fa fff5 	bl	8000e08 <__aeabi_uldivmod>
 8005e1e:	9b09      	ldr	r3, [sp, #36]	; 0x24
 8005e20:	3230      	adds	r2, #48	; 0x30
 8005e22:	3301      	adds	r3, #1
 8005e24:	9309      	str	r3, [sp, #36]	; 0x24
 8005e26:	9b0c      	ldr	r3, [sp, #48]	; 0x30
 8005e28:	4688      	mov	r8, r1
 8005e2a:	9014      	str	r0, [sp, #80]	; 0x50
 8005e2c:	f107 39ff 	add.w	r9, r7, #4294967295	; 0xffffffff
 8005e30:	f807 2c01 	strb.w	r2, [r7, #-1]
 8005e34:	b1d3      	cbz	r3, 8005e6c <_vfprintf_r+0xc7c>
 8005e36:	9b0d      	ldr	r3, [sp, #52]	; 0x34
 8005e38:	9a09      	ldr	r2, [sp, #36]	; 0x24
 8005e3a:	781b      	ldrb	r3, [r3, #0]
 8005e3c:	429a      	cmp	r2, r3
 8005e3e:	d115      	bne.n	8005e6c <_vfprintf_r+0xc7c>
 8005e40:	2aff      	cmp	r2, #255	; 0xff
 8005e42:	d013      	beq.n	8005e6c <_vfprintf_r+0xc7c>
 8005e44:	2d0a      	cmp	r5, #10
 8005e46:	f176 0300 	sbcs.w	r3, r6, #0
 8005e4a:	d30f      	bcc.n	8005e6c <_vfprintf_r+0xc7c>
 8005e4c:	9b15      	ldr	r3, [sp, #84]	; 0x54
 8005e4e:	9918      	ldr	r1, [sp, #96]	; 0x60
 8005e50:	eba9 0903 	sub.w	r9, r9, r3
 8005e54:	461a      	mov	r2, r3
 8005e56:	4648      	mov	r0, r9
 8005e58:	f001 fdc2 	bl	80079e0 <strncpy>
 8005e5c:	9b0d      	ldr	r3, [sp, #52]	; 0x34
 8005e5e:	785b      	ldrb	r3, [r3, #1]
 8005e60:	b11b      	cbz	r3, 8005e6a <_vfprintf_r+0xc7a>
 8005e62:	9b0d      	ldr	r3, [sp, #52]	; 0x34
 8005e64:	3301      	adds	r3, #1
 8005e66:	930d      	str	r3, [sp, #52]	; 0x34
 8005e68:	2300      	movs	r3, #0
 8005e6a:	9309      	str	r3, [sp, #36]	; 0x24
 8005e6c:	2d0a      	cmp	r5, #10
 8005e6e:	f176 0600 	sbcs.w	r6, r6, #0
 8005e72:	f0c0 83c7 	bcc.w	8006604 <_vfprintf_r+0x1414>
 8005e76:	4646      	mov	r6, r8
 8005e78:	464f      	mov	r7, r9
 8005e7a:	9d14      	ldr	r5, [sp, #80]	; 0x50
 8005e7c:	e7c9      	b.n	8005e12 <_vfprintf_r+0xc22>
 8005e7e:	9a1a      	ldr	r2, [sp, #104]	; 0x68
 8005e80:	f005 030f 	and.w	r3, r5, #15
 8005e84:	5cd3      	ldrb	r3, [r2, r3]
 8005e86:	092d      	lsrs	r5, r5, #4
 8005e88:	ea45 7506 	orr.w	r5, r5, r6, lsl #28
 8005e8c:	0936      	lsrs	r6, r6, #4
 8005e8e:	f809 3d01 	strb.w	r3, [r9, #-1]!
 8005e92:	ea55 0306 	orrs.w	r3, r5, r6
 8005e96:	d1f2      	bne.n	8005e7e <_vfprintf_r+0xc8e>
 8005e98:	e3b4      	b.n	8006604 <_vfprintf_r+0x1414>
 8005e9a:	b933      	cbnz	r3, 8005eaa <_vfprintf_r+0xcba>
 8005e9c:	f018 0f01 	tst.w	r8, #1
 8005ea0:	d003      	beq.n	8005eaa <_vfprintf_r+0xcba>
 8005ea2:	2330      	movs	r3, #48	; 0x30
 8005ea4:	f88d 3147 	strb.w	r3, [sp, #327]	; 0x147
 8005ea8:	e7a9      	b.n	8005dfe <_vfprintf_r+0xc0e>
 8005eaa:	f50d 79a4 	add.w	r9, sp, #328	; 0x148
 8005eae:	e3a9      	b.n	8006604 <_vfprintf_r+0x1414>
 8005eb0:	9b0b      	ldr	r3, [sp, #44]	; 0x2c
 8005eb2:	2b00      	cmp	r3, #0
 8005eb4:	f000 8372 	beq.w	800659c <_vfprintf_r+0x13ac>
 8005eb8:	f88d 30e4 	strb.w	r3, [sp, #228]	; 0xe4
 8005ebc:	2300      	movs	r3, #0
 8005ebe:	950a      	str	r5, [sp, #40]	; 0x28
 8005ec0:	f88d 307b 	strb.w	r3, [sp, #123]	; 0x7b
 8005ec4:	f7ff bb33 	b.w	800552e <_vfprintf_r+0x33e>
 8005ec8:	9f08      	ldr	r7, [sp, #32]
 8005eca:	f7ff bb9e 	b.w	800560a <_vfprintf_r+0x41a>
 8005ece:	2010      	movs	r0, #16
 8005ed0:	2a07      	cmp	r2, #7
 8005ed2:	4403      	add	r3, r0
 8005ed4:	e9cd 2327 	strd	r2, r3, [sp, #156]	; 0x9c
 8005ed8:	6060      	str	r0, [r4, #4]
 8005eda:	dd08      	ble.n	8005eee <_vfprintf_r+0xcfe>
 8005edc:	4651      	mov	r1, sl
 8005ede:	4658      	mov	r0, fp
 8005ee0:	aa26      	add	r2, sp, #152	; 0x98
 8005ee2:	f000 fbe1 	bl	80066a8 <__sprint_r>
 8005ee6:	2800      	cmp	r0, #0
 8005ee8:	f040 8336 	bne.w	8006558 <_vfprintf_r+0x1368>
 8005eec:	a929      	add	r1, sp, #164	; 0xa4
 8005eee:	9b16      	ldr	r3, [sp, #88]	; 0x58
 8005ef0:	460c      	mov	r4, r1
 8005ef2:	3b10      	subs	r3, #16
 8005ef4:	9316      	str	r3, [sp, #88]	; 0x58
 8005ef6:	e4f9      	b.n	80058ec <_vfprintf_r+0x6fc>
 8005ef8:	460c      	mov	r4, r1
 8005efa:	e513      	b.n	8005924 <_vfprintf_r+0x734>
 8005efc:	4651      	mov	r1, sl
 8005efe:	4658      	mov	r0, fp
 8005f00:	aa26      	add	r2, sp, #152	; 0x98
 8005f02:	f000 fbd1 	bl	80066a8 <__sprint_r>
 8005f06:	2800      	cmp	r0, #0
 8005f08:	f040 8326 	bne.w	8006558 <_vfprintf_r+0x1368>
 8005f0c:	ac29      	add	r4, sp, #164	; 0xa4
 8005f0e:	e51b      	b.n	8005948 <_vfprintf_r+0x758>
 8005f10:	4651      	mov	r1, sl
 8005f12:	4658      	mov	r0, fp
 8005f14:	aa26      	add	r2, sp, #152	; 0x98
 8005f16:	f000 fbc7 	bl	80066a8 <__sprint_r>
 8005f1a:	2800      	cmp	r0, #0
 8005f1c:	f040 831c 	bne.w	8006558 <_vfprintf_r+0x1368>
 8005f20:	ac29      	add	r4, sp, #164	; 0xa4
 8005f22:	e521      	b.n	8005968 <_vfprintf_r+0x778>
 8005f24:	2010      	movs	r0, #16
 8005f26:	2a07      	cmp	r2, #7
 8005f28:	4403      	add	r3, r0
 8005f2a:	e9cd 2327 	strd	r2, r3, [sp, #156]	; 0x9c
 8005f2e:	6060      	str	r0, [r4, #4]
 8005f30:	dd08      	ble.n	8005f44 <_vfprintf_r+0xd54>
 8005f32:	4651      	mov	r1, sl
 8005f34:	4658      	mov	r0, fp
 8005f36:	aa26      	add	r2, sp, #152	; 0x98
 8005f38:	f000 fbb6 	bl	80066a8 <__sprint_r>
 8005f3c:	2800      	cmp	r0, #0
 8005f3e:	f040 830b 	bne.w	8006558 <_vfprintf_r+0x1368>
 8005f42:	a929      	add	r1, sp, #164	; 0xa4
 8005f44:	9b16      	ldr	r3, [sp, #88]	; 0x58
 8005f46:	460c      	mov	r4, r1
 8005f48:	3b10      	subs	r3, #16
 8005f4a:	9316      	str	r3, [sp, #88]	; 0x58
 8005f4c:	e515      	b.n	800597a <_vfprintf_r+0x78a>
 8005f4e:	460c      	mov	r4, r1
 8005f50:	e52f      	b.n	80059b2 <_vfprintf_r+0x7c2>
 8005f52:	2010      	movs	r0, #16
 8005f54:	2b07      	cmp	r3, #7
 8005f56:	4402      	add	r2, r0
 8005f58:	e9cd 3227 	strd	r3, r2, [sp, #156]	; 0x9c
 8005f5c:	6060      	str	r0, [r4, #4]
 8005f5e:	dd08      	ble.n	8005f72 <_vfprintf_r+0xd82>
 8005f60:	4651      	mov	r1, sl
 8005f62:	4658      	mov	r0, fp
 8005f64:	aa26      	add	r2, sp, #152	; 0x98
 8005f66:	f000 fb9f 	bl	80066a8 <__sprint_r>
 8005f6a:	2800      	cmp	r0, #0
 8005f6c:	f040 82f4 	bne.w	8006558 <_vfprintf_r+0x1368>
 8005f70:	a929      	add	r1, sp, #164	; 0xa4
 8005f72:	460c      	mov	r4, r1
 8005f74:	3f10      	subs	r7, #16
 8005f76:	e520      	b.n	80059ba <_vfprintf_r+0x7ca>
 8005f78:	460c      	mov	r4, r1
 8005f7a:	e547      	b.n	8005a0c <_vfprintf_r+0x81c>
 8005f7c:	0800c409 	.word	0x0800c409
 8005f80:	0800c41a 	.word	0x0800c41a
 8005f84:	9b0b      	ldr	r3, [sp, #44]	; 0x2c
 8005f86:	2b65      	cmp	r3, #101	; 0x65
 8005f88:	f340 822e 	ble.w	80063e8 <_vfprintf_r+0x11f8>
 8005f8c:	e9dd 0110 	ldrd	r0, r1, [sp, #64]	; 0x40
 8005f90:	2200      	movs	r2, #0
 8005f92:	2300      	movs	r3, #0
 8005f94:	f7fa fd1a 	bl	80009cc <__aeabi_dcmpeq>
 8005f98:	2800      	cmp	r0, #0
 8005f9a:	d068      	beq.n	800606e <_vfprintf_r+0xe7e>
 8005f9c:	4b6d      	ldr	r3, [pc, #436]	; (8006154 <_vfprintf_r+0xf64>)
 8005f9e:	6023      	str	r3, [r4, #0]
 8005fa0:	2301      	movs	r3, #1
 8005fa2:	441f      	add	r7, r3
 8005fa4:	6063      	str	r3, [r4, #4]
 8005fa6:	9b27      	ldr	r3, [sp, #156]	; 0x9c
 8005fa8:	9728      	str	r7, [sp, #160]	; 0xa0
 8005faa:	3301      	adds	r3, #1
 8005fac:	2b07      	cmp	r3, #7
 8005fae:	9327      	str	r3, [sp, #156]	; 0x9c
 8005fb0:	dc37      	bgt.n	8006022 <_vfprintf_r+0xe32>
 8005fb2:	3408      	adds	r4, #8
 8005fb4:	9b20      	ldr	r3, [sp, #128]	; 0x80
 8005fb6:	9a09      	ldr	r2, [sp, #36]	; 0x24
 8005fb8:	4293      	cmp	r3, r2
 8005fba:	db03      	blt.n	8005fc4 <_vfprintf_r+0xdd4>
 8005fbc:	f018 0f01 	tst.w	r8, #1
 8005fc0:	f43f ad36 	beq.w	8005a30 <_vfprintf_r+0x840>
 8005fc4:	9b17      	ldr	r3, [sp, #92]	; 0x5c
 8005fc6:	9a0f      	ldr	r2, [sp, #60]	; 0x3c
 8005fc8:	6023      	str	r3, [r4, #0]
 8005fca:	9b0f      	ldr	r3, [sp, #60]	; 0x3c
 8005fcc:	6063      	str	r3, [r4, #4]
 8005fce:	9b28      	ldr	r3, [sp, #160]	; 0xa0
 8005fd0:	4413      	add	r3, r2
 8005fd2:	9328      	str	r3, [sp, #160]	; 0xa0
 8005fd4:	9b27      	ldr	r3, [sp, #156]	; 0x9c
 8005fd6:	3301      	adds	r3, #1
 8005fd8:	2b07      	cmp	r3, #7
 8005fda:	9327      	str	r3, [sp, #156]	; 0x9c
 8005fdc:	dc2b      	bgt.n	8006036 <_vfprintf_r+0xe46>
 8005fde:	3408      	adds	r4, #8
 8005fe0:	9b09      	ldr	r3, [sp, #36]	; 0x24
 8005fe2:	1e5d      	subs	r5, r3, #1
 8005fe4:	2d00      	cmp	r5, #0
 8005fe6:	f77f ad23 	ble.w	8005a30 <_vfprintf_r+0x840>
 8005fea:	2710      	movs	r7, #16
 8005fec:	4e5a      	ldr	r6, [pc, #360]	; (8006158 <_vfprintf_r+0xf68>)
 8005fee:	2d10      	cmp	r5, #16
 8005ff0:	e9dd 3227 	ldrd	r3, r2, [sp, #156]	; 0x9c
 8005ff4:	f104 0108 	add.w	r1, r4, #8
 8005ff8:	f103 0301 	add.w	r3, r3, #1
 8005ffc:	6026      	str	r6, [r4, #0]
 8005ffe:	dc24      	bgt.n	800604a <_vfprintf_r+0xe5a>
 8006000:	6065      	str	r5, [r4, #4]
 8006002:	2b07      	cmp	r3, #7
 8006004:	4415      	add	r5, r2
 8006006:	e9cd 3527 	strd	r3, r5, [sp, #156]	; 0x9c
 800600a:	f340 8284 	ble.w	8006516 <_vfprintf_r+0x1326>
 800600e:	4651      	mov	r1, sl
 8006010:	4658      	mov	r0, fp
 8006012:	aa26      	add	r2, sp, #152	; 0x98
 8006014:	f000 fb48 	bl	80066a8 <__sprint_r>
 8006018:	2800      	cmp	r0, #0
 800601a:	f040 829d 	bne.w	8006558 <_vfprintf_r+0x1368>
 800601e:	ac29      	add	r4, sp, #164	; 0xa4
 8006020:	e506      	b.n	8005a30 <_vfprintf_r+0x840>
 8006022:	4651      	mov	r1, sl
 8006024:	4658      	mov	r0, fp
 8006026:	aa26      	add	r2, sp, #152	; 0x98
 8006028:	f000 fb3e 	bl	80066a8 <__sprint_r>
 800602c:	2800      	cmp	r0, #0
 800602e:	f040 8293 	bne.w	8006558 <_vfprintf_r+0x1368>
 8006032:	ac29      	add	r4, sp, #164	; 0xa4
 8006034:	e7be      	b.n	8005fb4 <_vfprintf_r+0xdc4>
 8006036:	4651      	mov	r1, sl
 8006038:	4658      	mov	r0, fp
 800603a:	aa26      	add	r2, sp, #152	; 0x98
 800603c:	f000 fb34 	bl	80066a8 <__sprint_r>
 8006040:	2800      	cmp	r0, #0
 8006042:	f040 8289 	bne.w	8006558 <_vfprintf_r+0x1368>
 8006046:	ac29      	add	r4, sp, #164	; 0xa4
 8006048:	e7ca      	b.n	8005fe0 <_vfprintf_r+0xdf0>
 800604a:	3210      	adds	r2, #16
 800604c:	2b07      	cmp	r3, #7
 800604e:	e9cd 3227 	strd	r3, r2, [sp, #156]	; 0x9c
 8006052:	6067      	str	r7, [r4, #4]
 8006054:	dd08      	ble.n	8006068 <_vfprintf_r+0xe78>
 8006056:	4651      	mov	r1, sl
 8006058:	4658      	mov	r0, fp
 800605a:	aa26      	add	r2, sp, #152	; 0x98
 800605c:	f000 fb24 	bl	80066a8 <__sprint_r>
 8006060:	2800      	cmp	r0, #0
 8006062:	f040 8279 	bne.w	8006558 <_vfprintf_r+0x1368>
 8006066:	a929      	add	r1, sp, #164	; 0xa4
 8006068:	460c      	mov	r4, r1
 800606a:	3d10      	subs	r5, #16
 800606c:	e7bf      	b.n	8005fee <_vfprintf_r+0xdfe>
 800606e:	9b20      	ldr	r3, [sp, #128]	; 0x80
 8006070:	2b00      	cmp	r3, #0
 8006072:	dc73      	bgt.n	800615c <_vfprintf_r+0xf6c>
 8006074:	4b37      	ldr	r3, [pc, #220]	; (8006154 <_vfprintf_r+0xf64>)
 8006076:	6023      	str	r3, [r4, #0]
 8006078:	2301      	movs	r3, #1
 800607a:	441f      	add	r7, r3
 800607c:	6063      	str	r3, [r4, #4]
 800607e:	9b27      	ldr	r3, [sp, #156]	; 0x9c
 8006080:	9728      	str	r7, [sp, #160]	; 0xa0
 8006082:	3301      	adds	r3, #1
 8006084:	2b07      	cmp	r3, #7
 8006086:	9327      	str	r3, [sp, #156]	; 0x9c
 8006088:	dc3d      	bgt.n	8006106 <_vfprintf_r+0xf16>
 800608a:	3408      	adds	r4, #8
 800608c:	9909      	ldr	r1, [sp, #36]	; 0x24
 800608e:	9b20      	ldr	r3, [sp, #128]	; 0x80
 8006090:	9a28      	ldr	r2, [sp, #160]	; 0xa0
 8006092:	430b      	orrs	r3, r1
 8006094:	f008 0101 	and.w	r1, r8, #1
 8006098:	430b      	orrs	r3, r1
 800609a:	f43f acc9 	beq.w	8005a30 <_vfprintf_r+0x840>
 800609e:	9b17      	ldr	r3, [sp, #92]	; 0x5c
 80060a0:	6023      	str	r3, [r4, #0]
 80060a2:	9b0f      	ldr	r3, [sp, #60]	; 0x3c
 80060a4:	441a      	add	r2, r3
 80060a6:	6063      	str	r3, [r4, #4]
 80060a8:	9b27      	ldr	r3, [sp, #156]	; 0x9c
 80060aa:	9228      	str	r2, [sp, #160]	; 0xa0
 80060ac:	3301      	adds	r3, #1
 80060ae:	2b07      	cmp	r3, #7
 80060b0:	9327      	str	r3, [sp, #156]	; 0x9c
 80060b2:	dc32      	bgt.n	800611a <_vfprintf_r+0xf2a>
 80060b4:	3408      	adds	r4, #8
 80060b6:	9d20      	ldr	r5, [sp, #128]	; 0x80
 80060b8:	2d00      	cmp	r5, #0
 80060ba:	da1b      	bge.n	80060f4 <_vfprintf_r+0xf04>
 80060bc:	4623      	mov	r3, r4
 80060be:	2710      	movs	r7, #16
 80060c0:	4e25      	ldr	r6, [pc, #148]	; (8006158 <_vfprintf_r+0xf68>)
 80060c2:	426d      	negs	r5, r5
 80060c4:	2d10      	cmp	r5, #16
 80060c6:	e9dd 2127 	ldrd	r2, r1, [sp, #156]	; 0x9c
 80060ca:	f104 0408 	add.w	r4, r4, #8
 80060ce:	f102 0201 	add.w	r2, r2, #1
 80060d2:	601e      	str	r6, [r3, #0]
 80060d4:	dc2b      	bgt.n	800612e <_vfprintf_r+0xf3e>
 80060d6:	605d      	str	r5, [r3, #4]
 80060d8:	2a07      	cmp	r2, #7
 80060da:	440d      	add	r5, r1
 80060dc:	e9cd 2527 	strd	r2, r5, [sp, #156]	; 0x9c
 80060e0:	dd08      	ble.n	80060f4 <_vfprintf_r+0xf04>
 80060e2:	4651      	mov	r1, sl
 80060e4:	4658      	mov	r0, fp
 80060e6:	aa26      	add	r2, sp, #152	; 0x98
 80060e8:	f000 fade 	bl	80066a8 <__sprint_r>
 80060ec:	2800      	cmp	r0, #0
 80060ee:	f040 8233 	bne.w	8006558 <_vfprintf_r+0x1368>
 80060f2:	ac29      	add	r4, sp, #164	; 0xa4
 80060f4:	9b09      	ldr	r3, [sp, #36]	; 0x24
 80060f6:	9a09      	ldr	r2, [sp, #36]	; 0x24
 80060f8:	6063      	str	r3, [r4, #4]
 80060fa:	9b28      	ldr	r3, [sp, #160]	; 0xa0
 80060fc:	f8c4 9000 	str.w	r9, [r4]
 8006100:	4413      	add	r3, r2
 8006102:	9328      	str	r3, [sp, #160]	; 0xa0
 8006104:	e48d      	b.n	8005a22 <_vfprintf_r+0x832>
 8006106:	4651      	mov	r1, sl
 8006108:	4658      	mov	r0, fp
 800610a:	aa26      	add	r2, sp, #152	; 0x98
 800610c:	f000 facc 	bl	80066a8 <__sprint_r>
 8006110:	2800      	cmp	r0, #0
 8006112:	f040 8221 	bne.w	8006558 <_vfprintf_r+0x1368>
 8006116:	ac29      	add	r4, sp, #164	; 0xa4
 8006118:	e7b8      	b.n	800608c <_vfprintf_r+0xe9c>
 800611a:	4651      	mov	r1, sl
 800611c:	4658      	mov	r0, fp
 800611e:	aa26      	add	r2, sp, #152	; 0x98
 8006120:	f000 fac2 	bl	80066a8 <__sprint_r>
 8006124:	2800      	cmp	r0, #0
 8006126:	f040 8217 	bne.w	8006558 <_vfprintf_r+0x1368>
 800612a:	ac29      	add	r4, sp, #164	; 0xa4
 800612c:	e7c3      	b.n	80060b6 <_vfprintf_r+0xec6>
 800612e:	3110      	adds	r1, #16
 8006130:	2a07      	cmp	r2, #7
 8006132:	e9cd 2127 	strd	r2, r1, [sp, #156]	; 0x9c
 8006136:	605f      	str	r7, [r3, #4]
 8006138:	dd08      	ble.n	800614c <_vfprintf_r+0xf5c>
 800613a:	4651      	mov	r1, sl
 800613c:	4658      	mov	r0, fp
 800613e:	aa26      	add	r2, sp, #152	; 0x98
 8006140:	f000 fab2 	bl	80066a8 <__sprint_r>
 8006144:	2800      	cmp	r0, #0
 8006146:	f040 8207 	bne.w	8006558 <_vfprintf_r+0x1368>
 800614a:	ac29      	add	r4, sp, #164	; 0xa4
 800614c:	4623      	mov	r3, r4
 800614e:	3d10      	subs	r5, #16
 8006150:	e7b8      	b.n	80060c4 <_vfprintf_r+0xed4>
 8006152:	bf00      	nop
 8006154:	0800c42b 	.word	0x0800c42b
 8006158:	0800c43d 	.word	0x0800c43d
 800615c:	9b09      	ldr	r3, [sp, #36]	; 0x24
 800615e:	42ab      	cmp	r3, r5
 8006160:	bfa8      	it	ge
 8006162:	462b      	movge	r3, r5
 8006164:	2b00      	cmp	r3, #0
 8006166:	9307      	str	r3, [sp, #28]
 8006168:	dd0a      	ble.n	8006180 <_vfprintf_r+0xf90>
 800616a:	441f      	add	r7, r3
 800616c:	e9c4 9300 	strd	r9, r3, [r4]
 8006170:	9b27      	ldr	r3, [sp, #156]	; 0x9c
 8006172:	9728      	str	r7, [sp, #160]	; 0xa0
 8006174:	3301      	adds	r3, #1
 8006176:	2b07      	cmp	r3, #7
 8006178:	9327      	str	r3, [sp, #156]	; 0x9c
 800617a:	f300 8084 	bgt.w	8006286 <_vfprintf_r+0x1096>
 800617e:	3408      	adds	r4, #8
 8006180:	9b07      	ldr	r3, [sp, #28]
 8006182:	2b00      	cmp	r3, #0
 8006184:	bfb4      	ite	lt
 8006186:	462f      	movlt	r7, r5
 8006188:	1aef      	subge	r7, r5, r3
 800618a:	2f00      	cmp	r7, #0
 800618c:	dd19      	ble.n	80061c2 <_vfprintf_r+0xfd2>
 800618e:	e9dd 3227 	ldrd	r3, r2, [sp, #156]	; 0x9c
 8006192:	4894      	ldr	r0, [pc, #592]	; (80063e4 <_vfprintf_r+0x11f4>)
 8006194:	2f10      	cmp	r7, #16
 8006196:	f103 0301 	add.w	r3, r3, #1
 800619a:	f104 0108 	add.w	r1, r4, #8
 800619e:	6020      	str	r0, [r4, #0]
 80061a0:	dc7b      	bgt.n	800629a <_vfprintf_r+0x10aa>
 80061a2:	6067      	str	r7, [r4, #4]
 80061a4:	2b07      	cmp	r3, #7
 80061a6:	4417      	add	r7, r2
 80061a8:	e9cd 3727 	strd	r3, r7, [sp, #156]	; 0x9c
 80061ac:	f340 8088 	ble.w	80062c0 <_vfprintf_r+0x10d0>
 80061b0:	4651      	mov	r1, sl
 80061b2:	4658      	mov	r0, fp
 80061b4:	aa26      	add	r2, sp, #152	; 0x98
 80061b6:	f000 fa77 	bl	80066a8 <__sprint_r>
 80061ba:	2800      	cmp	r0, #0
 80061bc:	f040 81cc 	bne.w	8006558 <_vfprintf_r+0x1368>
 80061c0:	ac29      	add	r4, sp, #164	; 0xa4
 80061c2:	f418 6f80 	tst.w	r8, #1024	; 0x400
 80061c6:	444d      	add	r5, r9
 80061c8:	d009      	beq.n	80061de <_vfprintf_r+0xfee>
 80061ca:	9b0c      	ldr	r3, [sp, #48]	; 0x30
 80061cc:	2b00      	cmp	r3, #0
 80061ce:	d179      	bne.n	80062c4 <_vfprintf_r+0x10d4>
 80061d0:	2e00      	cmp	r6, #0
 80061d2:	d179      	bne.n	80062c8 <_vfprintf_r+0x10d8>
 80061d4:	9b09      	ldr	r3, [sp, #36]	; 0x24
 80061d6:	444b      	add	r3, r9
 80061d8:	429d      	cmp	r5, r3
 80061da:	bf28      	it	cs
 80061dc:	461d      	movcs	r5, r3
 80061de:	9b20      	ldr	r3, [sp, #128]	; 0x80
 80061e0:	9a09      	ldr	r2, [sp, #36]	; 0x24
 80061e2:	4293      	cmp	r3, r2
 80061e4:	db02      	blt.n	80061ec <_vfprintf_r+0xffc>
 80061e6:	f018 0f01 	tst.w	r8, #1
 80061ea:	d00e      	beq.n	800620a <_vfprintf_r+0x101a>
 80061ec:	9b17      	ldr	r3, [sp, #92]	; 0x5c
 80061ee:	9a0f      	ldr	r2, [sp, #60]	; 0x3c
 80061f0:	6023      	str	r3, [r4, #0]
 80061f2:	9b0f      	ldr	r3, [sp, #60]	; 0x3c
 80061f4:	6063      	str	r3, [r4, #4]
 80061f6:	9b28      	ldr	r3, [sp, #160]	; 0xa0
 80061f8:	4413      	add	r3, r2
 80061fa:	9328      	str	r3, [sp, #160]	; 0xa0
 80061fc:	9b27      	ldr	r3, [sp, #156]	; 0x9c
 80061fe:	3301      	adds	r3, #1
 8006200:	2b07      	cmp	r3, #7
 8006202:	9327      	str	r3, [sp, #156]	; 0x9c
 8006204:	f300 80da 	bgt.w	80063bc <_vfprintf_r+0x11cc>
 8006208:	3408      	adds	r4, #8
 800620a:	9b09      	ldr	r3, [sp, #36]	; 0x24
 800620c:	9e20      	ldr	r6, [sp, #128]	; 0x80
 800620e:	1b9e      	subs	r6, r3, r6
 8006210:	444b      	add	r3, r9
 8006212:	1b5b      	subs	r3, r3, r5
 8006214:	429e      	cmp	r6, r3
 8006216:	bfa8      	it	ge
 8006218:	461e      	movge	r6, r3
 800621a:	2e00      	cmp	r6, #0
 800621c:	9b28      	ldr	r3, [sp, #160]	; 0xa0
 800621e:	dd0a      	ble.n	8006236 <_vfprintf_r+0x1046>
 8006220:	4433      	add	r3, r6
 8006222:	9328      	str	r3, [sp, #160]	; 0xa0
 8006224:	9b27      	ldr	r3, [sp, #156]	; 0x9c
 8006226:	e9c4 5600 	strd	r5, r6, [r4]
 800622a:	3301      	adds	r3, #1
 800622c:	2b07      	cmp	r3, #7
 800622e:	9327      	str	r3, [sp, #156]	; 0x9c
 8006230:	f300 80ce 	bgt.w	80063d0 <_vfprintf_r+0x11e0>
 8006234:	3408      	adds	r4, #8
 8006236:	9d20      	ldr	r5, [sp, #128]	; 0x80
 8006238:	9b09      	ldr	r3, [sp, #36]	; 0x24
 800623a:	2e00      	cmp	r6, #0
 800623c:	eba3 0505 	sub.w	r5, r3, r5
 8006240:	bfa8      	it	ge
 8006242:	1bad      	subge	r5, r5, r6
 8006244:	2d00      	cmp	r5, #0
 8006246:	f77f abf3 	ble.w	8005a30 <_vfprintf_r+0x840>
 800624a:	2710      	movs	r7, #16
 800624c:	4e65      	ldr	r6, [pc, #404]	; (80063e4 <_vfprintf_r+0x11f4>)
 800624e:	2d10      	cmp	r5, #16
 8006250:	e9dd 3227 	ldrd	r3, r2, [sp, #156]	; 0x9c
 8006254:	f104 0108 	add.w	r1, r4, #8
 8006258:	f103 0301 	add.w	r3, r3, #1
 800625c:	6026      	str	r6, [r4, #0]
 800625e:	f77f aecf 	ble.w	8006000 <_vfprintf_r+0xe10>
 8006262:	3210      	adds	r2, #16
 8006264:	2b07      	cmp	r3, #7
 8006266:	e9cd 3227 	strd	r3, r2, [sp, #156]	; 0x9c
 800626a:	6067      	str	r7, [r4, #4]
 800626c:	dd08      	ble.n	8006280 <_vfprintf_r+0x1090>
 800626e:	4651      	mov	r1, sl
 8006270:	4658      	mov	r0, fp
 8006272:	aa26      	add	r2, sp, #152	; 0x98
 8006274:	f000 fa18 	bl	80066a8 <__sprint_r>
 8006278:	2800      	cmp	r0, #0
 800627a:	f040 816d 	bne.w	8006558 <_vfprintf_r+0x1368>
 800627e:	a929      	add	r1, sp, #164	; 0xa4
 8006280:	460c      	mov	r4, r1
 8006282:	3d10      	subs	r5, #16
 8006284:	e7e3      	b.n	800624e <_vfprintf_r+0x105e>
 8006286:	4651      	mov	r1, sl
 8006288:	4658      	mov	r0, fp
 800628a:	aa26      	add	r2, sp, #152	; 0x98
 800628c:	f000 fa0c 	bl	80066a8 <__sprint_r>
 8006290:	2800      	cmp	r0, #0
 8006292:	f040 8161 	bne.w	8006558 <_vfprintf_r+0x1368>
 8006296:	ac29      	add	r4, sp, #164	; 0xa4
 8006298:	e772      	b.n	8006180 <_vfprintf_r+0xf90>
 800629a:	2010      	movs	r0, #16
 800629c:	2b07      	cmp	r3, #7
 800629e:	4402      	add	r2, r0
 80062a0:	e9cd 3227 	strd	r3, r2, [sp, #156]	; 0x9c
 80062a4:	6060      	str	r0, [r4, #4]
 80062a6:	dd08      	ble.n	80062ba <_vfprintf_r+0x10ca>
 80062a8:	4651      	mov	r1, sl
 80062aa:	4658      	mov	r0, fp
 80062ac:	aa26      	add	r2, sp, #152	; 0x98
 80062ae:	f000 f9fb 	bl	80066a8 <__sprint_r>
 80062b2:	2800      	cmp	r0, #0
 80062b4:	f040 8150 	bne.w	8006558 <_vfprintf_r+0x1368>
 80062b8:	a929      	add	r1, sp, #164	; 0xa4
 80062ba:	460c      	mov	r4, r1
 80062bc:	3f10      	subs	r7, #16
 80062be:	e766      	b.n	800618e <_vfprintf_r+0xf9e>
 80062c0:	460c      	mov	r4, r1
 80062c2:	e77e      	b.n	80061c2 <_vfprintf_r+0xfd2>
 80062c4:	2e00      	cmp	r6, #0
 80062c6:	d049      	beq.n	800635c <_vfprintf_r+0x116c>
 80062c8:	3e01      	subs	r6, #1
 80062ca:	9b18      	ldr	r3, [sp, #96]	; 0x60
 80062cc:	9a15      	ldr	r2, [sp, #84]	; 0x54
 80062ce:	6023      	str	r3, [r4, #0]
 80062d0:	9b15      	ldr	r3, [sp, #84]	; 0x54
 80062d2:	6063      	str	r3, [r4, #4]
 80062d4:	9b28      	ldr	r3, [sp, #160]	; 0xa0
 80062d6:	4413      	add	r3, r2
 80062d8:	9328      	str	r3, [sp, #160]	; 0xa0
 80062da:	9b27      	ldr	r3, [sp, #156]	; 0x9c
 80062dc:	3301      	adds	r3, #1
 80062de:	2b07      	cmp	r3, #7
 80062e0:	9327      	str	r3, [sp, #156]	; 0x9c
 80062e2:	dc42      	bgt.n	800636a <_vfprintf_r+0x117a>
 80062e4:	3408      	adds	r4, #8
 80062e6:	9b09      	ldr	r3, [sp, #36]	; 0x24
 80062e8:	444b      	add	r3, r9
 80062ea:	1b5a      	subs	r2, r3, r5
 80062ec:	9b0d      	ldr	r3, [sp, #52]	; 0x34
 80062ee:	781b      	ldrb	r3, [r3, #0]
 80062f0:	429a      	cmp	r2, r3
 80062f2:	bfa8      	it	ge
 80062f4:	461a      	movge	r2, r3
 80062f6:	2a00      	cmp	r2, #0
 80062f8:	9b28      	ldr	r3, [sp, #160]	; 0xa0
 80062fa:	9207      	str	r2, [sp, #28]
 80062fc:	dd09      	ble.n	8006312 <_vfprintf_r+0x1122>
 80062fe:	4413      	add	r3, r2
 8006300:	9328      	str	r3, [sp, #160]	; 0xa0
 8006302:	9b27      	ldr	r3, [sp, #156]	; 0x9c
 8006304:	e9c4 5200 	strd	r5, r2, [r4]
 8006308:	3301      	adds	r3, #1
 800630a:	2b07      	cmp	r3, #7
 800630c:	9327      	str	r3, [sp, #156]	; 0x9c
 800630e:	dc36      	bgt.n	800637e <_vfprintf_r+0x118e>
 8006310:	3408      	adds	r4, #8
 8006312:	9b0d      	ldr	r3, [sp, #52]	; 0x34
 8006314:	781f      	ldrb	r7, [r3, #0]
 8006316:	9b07      	ldr	r3, [sp, #28]
 8006318:	2b00      	cmp	r3, #0
 800631a:	bfa8      	it	ge
 800631c:	1aff      	subge	r7, r7, r3
 800631e:	2f00      	cmp	r7, #0
 8006320:	dd18      	ble.n	8006354 <_vfprintf_r+0x1164>
 8006322:	e9dd 3227 	ldrd	r3, r2, [sp, #156]	; 0x9c
 8006326:	482f      	ldr	r0, [pc, #188]	; (80063e4 <_vfprintf_r+0x11f4>)
 8006328:	2f10      	cmp	r7, #16
 800632a:	f103 0301 	add.w	r3, r3, #1
 800632e:	f104 0108 	add.w	r1, r4, #8
 8006332:	6020      	str	r0, [r4, #0]
 8006334:	dc2d      	bgt.n	8006392 <_vfprintf_r+0x11a2>
 8006336:	6067      	str	r7, [r4, #4]
 8006338:	2b07      	cmp	r3, #7
 800633a:	4417      	add	r7, r2
 800633c:	e9cd 3727 	strd	r3, r7, [sp, #156]	; 0x9c
 8006340:	dd3a      	ble.n	80063b8 <_vfprintf_r+0x11c8>
 8006342:	4651      	mov	r1, sl
 8006344:	4658      	mov	r0, fp
 8006346:	aa26      	add	r2, sp, #152	; 0x98
 8006348:	f000 f9ae 	bl	80066a8 <__sprint_r>
 800634c:	2800      	cmp	r0, #0
 800634e:	f040 8103 	bne.w	8006558 <_vfprintf_r+0x1368>
 8006352:	ac29      	add	r4, sp, #164	; 0xa4
 8006354:	9b0d      	ldr	r3, [sp, #52]	; 0x34
 8006356:	781b      	ldrb	r3, [r3, #0]
 8006358:	441d      	add	r5, r3
 800635a:	e736      	b.n	80061ca <_vfprintf_r+0xfda>
 800635c:	9b0d      	ldr	r3, [sp, #52]	; 0x34
 800635e:	3b01      	subs	r3, #1
 8006360:	930d      	str	r3, [sp, #52]	; 0x34
 8006362:	9b0c      	ldr	r3, [sp, #48]	; 0x30
 8006364:	3b01      	subs	r3, #1
 8006366:	930c      	str	r3, [sp, #48]	; 0x30
 8006368:	e7af      	b.n	80062ca <_vfprintf_r+0x10da>
 800636a:	4651      	mov	r1, sl
 800636c:	4658      	mov	r0, fp
 800636e:	aa26      	add	r2, sp, #152	; 0x98
 8006370:	f000 f99a 	bl	80066a8 <__sprint_r>
 8006374:	2800      	cmp	r0, #0
 8006376:	f040 80ef 	bne.w	8006558 <_vfprintf_r+0x1368>
 800637a:	ac29      	add	r4, sp, #164	; 0xa4
 800637c:	e7b3      	b.n	80062e6 <_vfprintf_r+0x10f6>
 800637e:	4651      	mov	r1, sl
 8006380:	4658      	mov	r0, fp
 8006382:	aa26      	add	r2, sp, #152	; 0x98
 8006384:	f000 f990 	bl	80066a8 <__sprint_r>
 8006388:	2800      	cmp	r0, #0
 800638a:	f040 80e5 	bne.w	8006558 <_vfprintf_r+0x1368>
 800638e:	ac29      	add	r4, sp, #164	; 0xa4
 8006390:	e7bf      	b.n	8006312 <_vfprintf_r+0x1122>
 8006392:	2010      	movs	r0, #16
 8006394:	2b07      	cmp	r3, #7
 8006396:	4402      	add	r2, r0
 8006398:	e9cd 3227 	strd	r3, r2, [sp, #156]	; 0x9c
 800639c:	6060      	str	r0, [r4, #4]
 800639e:	dd08      	ble.n	80063b2 <_vfprintf_r+0x11c2>
 80063a0:	4651      	mov	r1, sl
 80063a2:	4658      	mov	r0, fp
 80063a4:	aa26      	add	r2, sp, #152	; 0x98
 80063a6:	f000 f97f 	bl	80066a8 <__sprint_r>
 80063aa:	2800      	cmp	r0, #0
 80063ac:	f040 80d4 	bne.w	8006558 <_vfprintf_r+0x1368>
 80063b0:	a929      	add	r1, sp, #164	; 0xa4
 80063b2:	460c      	mov	r4, r1
 80063b4:	3f10      	subs	r7, #16
 80063b6:	e7b4      	b.n	8006322 <_vfprintf_r+0x1132>
 80063b8:	460c      	mov	r4, r1
 80063ba:	e7cb      	b.n	8006354 <_vfprintf_r+0x1164>
 80063bc:	4651      	mov	r1, sl
 80063be:	4658      	mov	r0, fp
 80063c0:	aa26      	add	r2, sp, #152	; 0x98
 80063c2:	f000 f971 	bl	80066a8 <__sprint_r>
 80063c6:	2800      	cmp	r0, #0
 80063c8:	f040 80c6 	bne.w	8006558 <_vfprintf_r+0x1368>
 80063cc:	ac29      	add	r4, sp, #164	; 0xa4
 80063ce:	e71c      	b.n	800620a <_vfprintf_r+0x101a>
 80063d0:	4651      	mov	r1, sl
 80063d2:	4658      	mov	r0, fp
 80063d4:	aa26      	add	r2, sp, #152	; 0x98
 80063d6:	f000 f967 	bl	80066a8 <__sprint_r>
 80063da:	2800      	cmp	r0, #0
 80063dc:	f040 80bc 	bne.w	8006558 <_vfprintf_r+0x1368>
 80063e0:	ac29      	add	r4, sp, #164	; 0xa4
 80063e2:	e728      	b.n	8006236 <_vfprintf_r+0x1046>
 80063e4:	0800c43d 	.word	0x0800c43d
 80063e8:	9a09      	ldr	r2, [sp, #36]	; 0x24
 80063ea:	9b27      	ldr	r3, [sp, #156]	; 0x9c
 80063ec:	2a01      	cmp	r2, #1
 80063ee:	f107 0701 	add.w	r7, r7, #1
 80063f2:	f103 0301 	add.w	r3, r3, #1
 80063f6:	f104 0508 	add.w	r5, r4, #8
 80063fa:	dc02      	bgt.n	8006402 <_vfprintf_r+0x1212>
 80063fc:	f018 0f01 	tst.w	r8, #1
 8006400:	d07e      	beq.n	8006500 <_vfprintf_r+0x1310>
 8006402:	2201      	movs	r2, #1
 8006404:	2b07      	cmp	r3, #7
 8006406:	e9cd 3727 	strd	r3, r7, [sp, #156]	; 0x9c
 800640a:	f8c4 9000 	str.w	r9, [r4]
 800640e:	6062      	str	r2, [r4, #4]
 8006410:	dd08      	ble.n	8006424 <_vfprintf_r+0x1234>
 8006412:	4651      	mov	r1, sl
 8006414:	4658      	mov	r0, fp
 8006416:	aa26      	add	r2, sp, #152	; 0x98
 8006418:	f000 f946 	bl	80066a8 <__sprint_r>
 800641c:	2800      	cmp	r0, #0
 800641e:	f040 809b 	bne.w	8006558 <_vfprintf_r+0x1368>
 8006422:	ad29      	add	r5, sp, #164	; 0xa4
 8006424:	9b17      	ldr	r3, [sp, #92]	; 0x5c
 8006426:	9a0f      	ldr	r2, [sp, #60]	; 0x3c
 8006428:	602b      	str	r3, [r5, #0]
 800642a:	9b0f      	ldr	r3, [sp, #60]	; 0x3c
 800642c:	606b      	str	r3, [r5, #4]
 800642e:	9b28      	ldr	r3, [sp, #160]	; 0xa0
 8006430:	4413      	add	r3, r2
 8006432:	9328      	str	r3, [sp, #160]	; 0xa0
 8006434:	9b27      	ldr	r3, [sp, #156]	; 0x9c
 8006436:	3301      	adds	r3, #1
 8006438:	2b07      	cmp	r3, #7
 800643a:	9327      	str	r3, [sp, #156]	; 0x9c
 800643c:	dc32      	bgt.n	80064a4 <_vfprintf_r+0x12b4>
 800643e:	3508      	adds	r5, #8
 8006440:	9b09      	ldr	r3, [sp, #36]	; 0x24
 8006442:	2200      	movs	r2, #0
 8006444:	e9dd 0110 	ldrd	r0, r1, [sp, #64]	; 0x40
 8006448:	e9dd 7627 	ldrd	r7, r6, [sp, #156]	; 0x9c
 800644c:	1e5c      	subs	r4, r3, #1
 800644e:	2300      	movs	r3, #0
 8006450:	f7fa fabc 	bl	80009cc <__aeabi_dcmpeq>
 8006454:	2800      	cmp	r0, #0
 8006456:	d12e      	bne.n	80064b6 <_vfprintf_r+0x12c6>
 8006458:	f109 0301 	add.w	r3, r9, #1
 800645c:	e9c5 3400 	strd	r3, r4, [r5]
 8006460:	9b09      	ldr	r3, [sp, #36]	; 0x24
 8006462:	3701      	adds	r7, #1
 8006464:	3e01      	subs	r6, #1
 8006466:	441e      	add	r6, r3
 8006468:	2f07      	cmp	r7, #7
 800646a:	e9cd 7627 	strd	r7, r6, [sp, #156]	; 0x9c
 800646e:	dd50      	ble.n	8006512 <_vfprintf_r+0x1322>
 8006470:	4651      	mov	r1, sl
 8006472:	4658      	mov	r0, fp
 8006474:	aa26      	add	r2, sp, #152	; 0x98
 8006476:	f000 f917 	bl	80066a8 <__sprint_r>
 800647a:	2800      	cmp	r0, #0
 800647c:	d16c      	bne.n	8006558 <_vfprintf_r+0x1368>
 800647e:	ad29      	add	r5, sp, #164	; 0xa4
 8006480:	ab22      	add	r3, sp, #136	; 0x88
 8006482:	602b      	str	r3, [r5, #0]
 8006484:	9b19      	ldr	r3, [sp, #100]	; 0x64
 8006486:	9a19      	ldr	r2, [sp, #100]	; 0x64
 8006488:	606b      	str	r3, [r5, #4]
 800648a:	9b28      	ldr	r3, [sp, #160]	; 0xa0
 800648c:	4413      	add	r3, r2
 800648e:	9328      	str	r3, [sp, #160]	; 0xa0
 8006490:	9b27      	ldr	r3, [sp, #156]	; 0x9c
 8006492:	3301      	adds	r3, #1
 8006494:	2b07      	cmp	r3, #7
 8006496:	9327      	str	r3, [sp, #156]	; 0x9c
 8006498:	f73f adb9 	bgt.w	800600e <_vfprintf_r+0xe1e>
 800649c:	f105 0408 	add.w	r4, r5, #8
 80064a0:	f7ff bac6 	b.w	8005a30 <_vfprintf_r+0x840>
 80064a4:	4651      	mov	r1, sl
 80064a6:	4658      	mov	r0, fp
 80064a8:	aa26      	add	r2, sp, #152	; 0x98
 80064aa:	f000 f8fd 	bl	80066a8 <__sprint_r>
 80064ae:	2800      	cmp	r0, #0
 80064b0:	d152      	bne.n	8006558 <_vfprintf_r+0x1368>
 80064b2:	ad29      	add	r5, sp, #164	; 0xa4
 80064b4:	e7c4      	b.n	8006440 <_vfprintf_r+0x1250>
 80064b6:	2c00      	cmp	r4, #0
 80064b8:	dde2      	ble.n	8006480 <_vfprintf_r+0x1290>
 80064ba:	2710      	movs	r7, #16
 80064bc:	4e58      	ldr	r6, [pc, #352]	; (8006620 <_vfprintf_r+0x1430>)
 80064be:	2c10      	cmp	r4, #16
 80064c0:	e9dd 3227 	ldrd	r3, r2, [sp, #156]	; 0x9c
 80064c4:	f105 0108 	add.w	r1, r5, #8
 80064c8:	f103 0301 	add.w	r3, r3, #1
 80064cc:	602e      	str	r6, [r5, #0]
 80064ce:	dc07      	bgt.n	80064e0 <_vfprintf_r+0x12f0>
 80064d0:	606c      	str	r4, [r5, #4]
 80064d2:	2b07      	cmp	r3, #7
 80064d4:	4414      	add	r4, r2
 80064d6:	e9cd 3427 	strd	r3, r4, [sp, #156]	; 0x9c
 80064da:	dcc9      	bgt.n	8006470 <_vfprintf_r+0x1280>
 80064dc:	460d      	mov	r5, r1
 80064de:	e7cf      	b.n	8006480 <_vfprintf_r+0x1290>
 80064e0:	3210      	adds	r2, #16
 80064e2:	2b07      	cmp	r3, #7
 80064e4:	e9cd 3227 	strd	r3, r2, [sp, #156]	; 0x9c
 80064e8:	606f      	str	r7, [r5, #4]
 80064ea:	dd06      	ble.n	80064fa <_vfprintf_r+0x130a>
 80064ec:	4651      	mov	r1, sl
 80064ee:	4658      	mov	r0, fp
 80064f0:	aa26      	add	r2, sp, #152	; 0x98
 80064f2:	f000 f8d9 	bl	80066a8 <__sprint_r>
 80064f6:	bb78      	cbnz	r0, 8006558 <_vfprintf_r+0x1368>
 80064f8:	a929      	add	r1, sp, #164	; 0xa4
 80064fa:	460d      	mov	r5, r1
 80064fc:	3c10      	subs	r4, #16
 80064fe:	e7de      	b.n	80064be <_vfprintf_r+0x12ce>
 8006500:	2201      	movs	r2, #1
 8006502:	2b07      	cmp	r3, #7
 8006504:	e9cd 3727 	strd	r3, r7, [sp, #156]	; 0x9c
 8006508:	f8c4 9000 	str.w	r9, [r4]
 800650c:	6062      	str	r2, [r4, #4]
 800650e:	ddb7      	ble.n	8006480 <_vfprintf_r+0x1290>
 8006510:	e7ae      	b.n	8006470 <_vfprintf_r+0x1280>
 8006512:	3508      	adds	r5, #8
 8006514:	e7b4      	b.n	8006480 <_vfprintf_r+0x1290>
 8006516:	460c      	mov	r4, r1
 8006518:	f7ff ba8a 	b.w	8005a30 <_vfprintf_r+0x840>
 800651c:	e9dd 3213 	ldrd	r3, r2, [sp, #76]	; 0x4c
 8006520:	1a9d      	subs	r5, r3, r2
 8006522:	2d00      	cmp	r5, #0
 8006524:	f77f aa88 	ble.w	8005a38 <_vfprintf_r+0x848>
 8006528:	2710      	movs	r7, #16
 800652a:	4e3e      	ldr	r6, [pc, #248]	; (8006624 <_vfprintf_r+0x1434>)
 800652c:	2d10      	cmp	r5, #16
 800652e:	e9dd 3227 	ldrd	r3, r2, [sp, #156]	; 0x9c
 8006532:	6026      	str	r6, [r4, #0]
 8006534:	f103 0301 	add.w	r3, r3, #1
 8006538:	dc18      	bgt.n	800656c <_vfprintf_r+0x137c>
 800653a:	6065      	str	r5, [r4, #4]
 800653c:	2b07      	cmp	r3, #7
 800653e:	4415      	add	r5, r2
 8006540:	e9cd 3527 	strd	r3, r5, [sp, #156]	; 0x9c
 8006544:	f77f aa78 	ble.w	8005a38 <_vfprintf_r+0x848>
 8006548:	4651      	mov	r1, sl
 800654a:	4658      	mov	r0, fp
 800654c:	aa26      	add	r2, sp, #152	; 0x98
 800654e:	f000 f8ab 	bl	80066a8 <__sprint_r>
 8006552:	2800      	cmp	r0, #0
 8006554:	f43f aa70 	beq.w	8005a38 <_vfprintf_r+0x848>
 8006558:	9b08      	ldr	r3, [sp, #32]
 800655a:	2b00      	cmp	r3, #0
 800655c:	f43f a88c 	beq.w	8005678 <_vfprintf_r+0x488>
 8006560:	4619      	mov	r1, r3
 8006562:	4658      	mov	r0, fp
 8006564:	f002 f9b0 	bl	80088c8 <_free_r>
 8006568:	f7ff b886 	b.w	8005678 <_vfprintf_r+0x488>
 800656c:	3210      	adds	r2, #16
 800656e:	2b07      	cmp	r3, #7
 8006570:	e9cd 3227 	strd	r3, r2, [sp, #156]	; 0x9c
 8006574:	6067      	str	r7, [r4, #4]
 8006576:	dc02      	bgt.n	800657e <_vfprintf_r+0x138e>
 8006578:	3408      	adds	r4, #8
 800657a:	3d10      	subs	r5, #16
 800657c:	e7d6      	b.n	800652c <_vfprintf_r+0x133c>
 800657e:	4651      	mov	r1, sl
 8006580:	4658      	mov	r0, fp
 8006582:	aa26      	add	r2, sp, #152	; 0x98
 8006584:	f000 f890 	bl	80066a8 <__sprint_r>
 8006588:	2800      	cmp	r0, #0
 800658a:	d1e5      	bne.n	8006558 <_vfprintf_r+0x1368>
 800658c:	ac29      	add	r4, sp, #164	; 0xa4
 800658e:	e7f4      	b.n	800657a <_vfprintf_r+0x138a>
 8006590:	4658      	mov	r0, fp
 8006592:	9908      	ldr	r1, [sp, #32]
 8006594:	f002 f998 	bl	80088c8 <_free_r>
 8006598:	f7ff ba66 	b.w	8005a68 <_vfprintf_r+0x878>
 800659c:	9b28      	ldr	r3, [sp, #160]	; 0xa0
 800659e:	b91b      	cbnz	r3, 80065a8 <_vfprintf_r+0x13b8>
 80065a0:	2300      	movs	r3, #0
 80065a2:	9327      	str	r3, [sp, #156]	; 0x9c
 80065a4:	f7ff b868 	b.w	8005678 <_vfprintf_r+0x488>
 80065a8:	4651      	mov	r1, sl
 80065aa:	4658      	mov	r0, fp
 80065ac:	aa26      	add	r2, sp, #152	; 0x98
 80065ae:	f000 f87b 	bl	80066a8 <__sprint_r>
 80065b2:	2800      	cmp	r0, #0
 80065b4:	d0f4      	beq.n	80065a0 <_vfprintf_r+0x13b0>
 80065b6:	f7ff b85f 	b.w	8005678 <_vfprintf_r+0x488>
 80065ba:	ea55 0206 	orrs.w	r2, r5, r6
 80065be:	f8cd 8020 	str.w	r8, [sp, #32]
 80065c2:	f43f ab76 	beq.w	8005cb2 <_vfprintf_r+0xac2>
 80065c6:	2b01      	cmp	r3, #1
 80065c8:	f43f ac12 	beq.w	8005df0 <_vfprintf_r+0xc00>
 80065cc:	2b02      	cmp	r3, #2
 80065ce:	f50d 79a4 	add.w	r9, sp, #328	; 0x148
 80065d2:	f43f ac54 	beq.w	8005e7e <_vfprintf_r+0xc8e>
 80065d6:	f005 0307 	and.w	r3, r5, #7
 80065da:	08ed      	lsrs	r5, r5, #3
 80065dc:	ea45 7546 	orr.w	r5, r5, r6, lsl #29
 80065e0:	08f6      	lsrs	r6, r6, #3
 80065e2:	3330      	adds	r3, #48	; 0x30
 80065e4:	ea55 0106 	orrs.w	r1, r5, r6
 80065e8:	464a      	mov	r2, r9
 80065ea:	f809 3d01 	strb.w	r3, [r9, #-1]!
 80065ee:	d1f2      	bne.n	80065d6 <_vfprintf_r+0x13e6>
 80065f0:	9908      	ldr	r1, [sp, #32]
 80065f2:	07c8      	lsls	r0, r1, #31
 80065f4:	d506      	bpl.n	8006604 <_vfprintf_r+0x1414>
 80065f6:	2b30      	cmp	r3, #48	; 0x30
 80065f8:	d004      	beq.n	8006604 <_vfprintf_r+0x1414>
 80065fa:	2330      	movs	r3, #48	; 0x30
 80065fc:	f809 3c01 	strb.w	r3, [r9, #-1]
 8006600:	f1a2 0902 	sub.w	r9, r2, #2
 8006604:	ab52      	add	r3, sp, #328	; 0x148
 8006606:	eba3 0309 	sub.w	r3, r3, r9
 800660a:	9f07      	ldr	r7, [sp, #28]
 800660c:	9307      	str	r3, [sp, #28]
 800660e:	2300      	movs	r3, #0
 8006610:	461e      	mov	r6, r3
 8006612:	f8dd 8020 	ldr.w	r8, [sp, #32]
 8006616:	9308      	str	r3, [sp, #32]
 8006618:	461d      	mov	r5, r3
 800661a:	930c      	str	r3, [sp, #48]	; 0x30
 800661c:	f7ff b94a 	b.w	80058b4 <_vfprintf_r+0x6c4>
 8006620:	0800c43d 	.word	0x0800c43d
 8006624:	0800c42d 	.word	0x0800c42d

08006628 <__sbprintf>:
 8006628:	b5f0      	push	{r4, r5, r6, r7, lr}
 800662a:	461f      	mov	r7, r3
 800662c:	898b      	ldrh	r3, [r1, #12]
 800662e:	f2ad 4d6c 	subw	sp, sp, #1132	; 0x46c
 8006632:	f023 0302 	bic.w	r3, r3, #2
 8006636:	f8ad 300c 	strh.w	r3, [sp, #12]
 800663a:	6e4b      	ldr	r3, [r1, #100]	; 0x64
 800663c:	4615      	mov	r5, r2
 800663e:	9319      	str	r3, [sp, #100]	; 0x64
 8006640:	89cb      	ldrh	r3, [r1, #14]
 8006642:	4606      	mov	r6, r0
 8006644:	f8ad 300e 	strh.w	r3, [sp, #14]
 8006648:	69cb      	ldr	r3, [r1, #28]
 800664a:	a816      	add	r0, sp, #88	; 0x58
 800664c:	9307      	str	r3, [sp, #28]
 800664e:	6a4b      	ldr	r3, [r1, #36]	; 0x24
 8006650:	460c      	mov	r4, r1
 8006652:	9309      	str	r3, [sp, #36]	; 0x24
 8006654:	ab1a      	add	r3, sp, #104	; 0x68
 8006656:	9300      	str	r3, [sp, #0]
 8006658:	9304      	str	r3, [sp, #16]
 800665a:	f44f 6380 	mov.w	r3, #1024	; 0x400
 800665e:	9302      	str	r3, [sp, #8]
 8006660:	9305      	str	r3, [sp, #20]
 8006662:	2300      	movs	r3, #0
 8006664:	9306      	str	r3, [sp, #24]
 8006666:	f001 fa0f 	bl	8007a88 <__retarget_lock_init_recursive>
 800666a:	462a      	mov	r2, r5
 800666c:	463b      	mov	r3, r7
 800666e:	4669      	mov	r1, sp
 8006670:	4630      	mov	r0, r6
 8006672:	f7fe fdbd 	bl	80051f0 <_vfprintf_r>
 8006676:	1e05      	subs	r5, r0, #0
 8006678:	db07      	blt.n	800668a <__sbprintf+0x62>
 800667a:	4669      	mov	r1, sp
 800667c:	4630      	mov	r0, r6
 800667e:	f000 fe5f 	bl	8007340 <_fflush_r>
 8006682:	2800      	cmp	r0, #0
 8006684:	bf18      	it	ne
 8006686:	f04f 35ff 	movne.w	r5, #4294967295	; 0xffffffff
 800668a:	f8bd 300c 	ldrh.w	r3, [sp, #12]
 800668e:	9816      	ldr	r0, [sp, #88]	; 0x58
 8006690:	065b      	lsls	r3, r3, #25
 8006692:	bf42      	ittt	mi
 8006694:	89a3      	ldrhmi	r3, [r4, #12]
 8006696:	f043 0340 	orrmi.w	r3, r3, #64	; 0x40
 800669a:	81a3      	strhmi	r3, [r4, #12]
 800669c:	f001 f9f5 	bl	8007a8a <__retarget_lock_close_recursive>
 80066a0:	4628      	mov	r0, r5
 80066a2:	f20d 4d6c 	addw	sp, sp, #1132	; 0x46c
 80066a6:	bdf0      	pop	{r4, r5, r6, r7, pc}

080066a8 <__sprint_r>:
 80066a8:	e92d 4ff8 	stmdb	sp!, {r3, r4, r5, r6, r7, r8, r9, sl, fp, lr}
 80066ac:	6893      	ldr	r3, [r2, #8]
 80066ae:	4680      	mov	r8, r0
 80066b0:	460f      	mov	r7, r1
 80066b2:	4614      	mov	r4, r2
 80066b4:	b343      	cbz	r3, 8006708 <__sprint_r+0x60>
 80066b6:	6e4b      	ldr	r3, [r1, #100]	; 0x64
 80066b8:	049d      	lsls	r5, r3, #18
 80066ba:	d522      	bpl.n	8006702 <__sprint_r+0x5a>
 80066bc:	6815      	ldr	r5, [r2, #0]
 80066be:	3508      	adds	r5, #8
 80066c0:	f04f 0900 	mov.w	r9, #0
 80066c4:	e955 b602 	ldrd	fp, r6, [r5, #-8]
 80066c8:	ea4f 0a96 	mov.w	sl, r6, lsr #2
 80066cc:	45ca      	cmp	sl, r9
 80066ce:	dc0d      	bgt.n	80066ec <__sprint_r+0x44>
 80066d0:	68a0      	ldr	r0, [r4, #8]
 80066d2:	f026 0603 	bic.w	r6, r6, #3
 80066d6:	1b80      	subs	r0, r0, r6
 80066d8:	60a0      	str	r0, [r4, #8]
 80066da:	3508      	adds	r5, #8
 80066dc:	2800      	cmp	r0, #0
 80066de:	d1ef      	bne.n	80066c0 <__sprint_r+0x18>
 80066e0:	2300      	movs	r3, #0
 80066e2:	60a3      	str	r3, [r4, #8]
 80066e4:	2300      	movs	r3, #0
 80066e6:	6063      	str	r3, [r4, #4]
 80066e8:	e8bd 8ff8 	ldmia.w	sp!, {r3, r4, r5, r6, r7, r8, r9, sl, fp, pc}
 80066ec:	463a      	mov	r2, r7
 80066ee:	4640      	mov	r0, r8
 80066f0:	f85b 1029 	ldr.w	r1, [fp, r9, lsl #2]
 80066f4:	f001 f929 	bl	800794a <_fputwc_r>
 80066f8:	1c43      	adds	r3, r0, #1
 80066fa:	d0f1      	beq.n	80066e0 <__sprint_r+0x38>
 80066fc:	f109 0901 	add.w	r9, r9, #1
 8006700:	e7e4      	b.n	80066cc <__sprint_r+0x24>
 8006702:	f000 ff21 	bl	8007548 <__sfvwrite_r>
 8006706:	e7eb      	b.n	80066e0 <__sprint_r+0x38>
 8006708:	4618      	mov	r0, r3
 800670a:	e7eb      	b.n	80066e4 <__sprint_r+0x3c>

0800670c <_vfiprintf_r>:
 800670c:	e92d 4ff0 	stmdb	sp!, {r4, r5, r6, r7, r8, r9, sl, fp, lr}
 8006710:	b0bd      	sub	sp, #244	; 0xf4
 8006712:	460f      	mov	r7, r1
 8006714:	461d      	mov	r5, r3
 8006716:	461c      	mov	r4, r3
 8006718:	4681      	mov	r9, r0
 800671a:	9202      	str	r2, [sp, #8]
 800671c:	b118      	cbz	r0, 8006726 <_vfiprintf_r+0x1a>
 800671e:	6b43      	ldr	r3, [r0, #52]	; 0x34
 8006720:	b90b      	cbnz	r3, 8006726 <_vfiprintf_r+0x1a>
 8006722:	f000 febf 	bl	80074a4 <__sinit>
 8006726:	6e7b      	ldr	r3, [r7, #100]	; 0x64
 8006728:	07d8      	lsls	r0, r3, #31
 800672a:	d405      	bmi.n	8006738 <_vfiprintf_r+0x2c>
 800672c:	89bb      	ldrh	r3, [r7, #12]
 800672e:	0599      	lsls	r1, r3, #22
 8006730:	d402      	bmi.n	8006738 <_vfiprintf_r+0x2c>
 8006732:	6db8      	ldr	r0, [r7, #88]	; 0x58
 8006734:	f001 f9aa 	bl	8007a8c <__retarget_lock_acquire_recursive>
 8006738:	f9b7 300c 	ldrsh.w	r3, [r7, #12]
 800673c:	049a      	lsls	r2, r3, #18
 800673e:	d406      	bmi.n	800674e <_vfiprintf_r+0x42>
 8006740:	f443 5300 	orr.w	r3, r3, #8192	; 0x2000
 8006744:	81bb      	strh	r3, [r7, #12]
 8006746:	6e7b      	ldr	r3, [r7, #100]	; 0x64
 8006748:	f423 5300 	bic.w	r3, r3, #8192	; 0x2000
 800674c:	667b      	str	r3, [r7, #100]	; 0x64
 800674e:	89bb      	ldrh	r3, [r7, #12]
 8006750:	071e      	lsls	r6, r3, #28
 8006752:	d501      	bpl.n	8006758 <_vfiprintf_r+0x4c>
 8006754:	693b      	ldr	r3, [r7, #16]
 8006756:	b9ab      	cbnz	r3, 8006784 <_vfiprintf_r+0x78>
 8006758:	4639      	mov	r1, r7
 800675a:	4648      	mov	r0, r9
 800675c:	f001 f85c 	bl	8007818 <__swsetup_r>
 8006760:	b180      	cbz	r0, 8006784 <_vfiprintf_r+0x78>
 8006762:	6e7b      	ldr	r3, [r7, #100]	; 0x64
 8006764:	07d8      	lsls	r0, r3, #31
 8006766:	d506      	bpl.n	8006776 <_vfiprintf_r+0x6a>
 8006768:	f04f 33ff 	mov.w	r3, #4294967295	; 0xffffffff
 800676c:	9303      	str	r3, [sp, #12]
 800676e:	9803      	ldr	r0, [sp, #12]
 8006770:	b03d      	add	sp, #244	; 0xf4
 8006772:	e8bd 8ff0 	ldmia.w	sp!, {r4, r5, r6, r7, r8, r9, sl, fp, pc}
 8006776:	89bb      	ldrh	r3, [r7, #12]
 8006778:	0599      	lsls	r1, r3, #22
 800677a:	d4f5      	bmi.n	8006768 <_vfiprintf_r+0x5c>
 800677c:	6db8      	ldr	r0, [r7, #88]	; 0x58
 800677e:	f001 f986 	bl	8007a8e <__retarget_lock_release_recursive>
 8006782:	e7f1      	b.n	8006768 <_vfiprintf_r+0x5c>
 8006784:	89bb      	ldrh	r3, [r7, #12]
 8006786:	f003 021a 	and.w	r2, r3, #26
 800678a:	2a0a      	cmp	r2, #10
 800678c:	d114      	bne.n	80067b8 <_vfiprintf_r+0xac>
 800678e:	f9b7 200e 	ldrsh.w	r2, [r7, #14]
 8006792:	2a00      	cmp	r2, #0
 8006794:	db10      	blt.n	80067b8 <_vfiprintf_r+0xac>
 8006796:	6e7a      	ldr	r2, [r7, #100]	; 0x64
 8006798:	07d2      	lsls	r2, r2, #31
 800679a:	d404      	bmi.n	80067a6 <_vfiprintf_r+0x9a>
 800679c:	059e      	lsls	r6, r3, #22
 800679e:	d402      	bmi.n	80067a6 <_vfiprintf_r+0x9a>
 80067a0:	6db8      	ldr	r0, [r7, #88]	; 0x58
 80067a2:	f001 f974 	bl	8007a8e <__retarget_lock_release_recursive>
 80067a6:	462b      	mov	r3, r5
 80067a8:	4639      	mov	r1, r7
 80067aa:	4648      	mov	r0, r9
 80067ac:	9a02      	ldr	r2, [sp, #8]
 80067ae:	b03d      	add	sp, #244	; 0xf4
 80067b0:	e8bd 4ff0 	ldmia.w	sp!, {r4, r5, r6, r7, r8, r9, sl, fp, lr}
 80067b4:	f000 bc38 	b.w	8007028 <__sbprintf>
 80067b8:	2300      	movs	r3, #0
 80067ba:	e9cd 3311 	strd	r3, r3, [sp, #68]	; 0x44
 80067be:	e9cd 3306 	strd	r3, r3, [sp, #24]
 80067c2:	e9cd 3308 	strd	r3, r3, [sp, #32]
 80067c6:	ae13      	add	r6, sp, #76	; 0x4c
 80067c8:	9610      	str	r6, [sp, #64]	; 0x40
 80067ca:	9303      	str	r3, [sp, #12]
 80067cc:	9b02      	ldr	r3, [sp, #8]
 80067ce:	461d      	mov	r5, r3
 80067d0:	f813 2b01 	ldrb.w	r2, [r3], #1
 80067d4:	b10a      	cbz	r2, 80067da <_vfiprintf_r+0xce>
 80067d6:	2a25      	cmp	r2, #37	; 0x25
 80067d8:	d1f9      	bne.n	80067ce <_vfiprintf_r+0xc2>
 80067da:	9b02      	ldr	r3, [sp, #8]
 80067dc:	ebb5 0803 	subs.w	r8, r5, r3
 80067e0:	d00d      	beq.n	80067fe <_vfiprintf_r+0xf2>
 80067e2:	e9c6 3800 	strd	r3, r8, [r6]
 80067e6:	9b12      	ldr	r3, [sp, #72]	; 0x48
 80067e8:	4443      	add	r3, r8
 80067ea:	9312      	str	r3, [sp, #72]	; 0x48
 80067ec:	9b11      	ldr	r3, [sp, #68]	; 0x44
 80067ee:	3301      	adds	r3, #1
 80067f0:	2b07      	cmp	r3, #7
 80067f2:	9311      	str	r3, [sp, #68]	; 0x44
 80067f4:	dc76      	bgt.n	80068e4 <_vfiprintf_r+0x1d8>
 80067f6:	3608      	adds	r6, #8
 80067f8:	9b03      	ldr	r3, [sp, #12]
 80067fa:	4443      	add	r3, r8
 80067fc:	9303      	str	r3, [sp, #12]
 80067fe:	782b      	ldrb	r3, [r5, #0]
 8006800:	2b00      	cmp	r3, #0
 8006802:	f000 83d2 	beq.w	8006faa <_vfiprintf_r+0x89e>
 8006806:	2300      	movs	r3, #0
 8006808:	f04f 32ff 	mov.w	r2, #4294967295	; 0xffffffff
 800680c:	469a      	mov	sl, r3
 800680e:	3501      	adds	r5, #1
 8006810:	f88d 303b 	strb.w	r3, [sp, #59]	; 0x3b
 8006814:	9201      	str	r2, [sp, #4]
 8006816:	9304      	str	r3, [sp, #16]
 8006818:	462a      	mov	r2, r5
 800681a:	f812 3b01 	ldrb.w	r3, [r2], #1
 800681e:	9202      	str	r2, [sp, #8]
 8006820:	f1a3 0220 	sub.w	r2, r3, #32
 8006824:	2a5a      	cmp	r2, #90	; 0x5a
 8006826:	f200 831a 	bhi.w	8006e5e <_vfiprintf_r+0x752>
 800682a:	e8df f012 	tbh	[pc, r2, lsl #1]
 800682e:	007d      	.short	0x007d
 8006830:	03180318 	.word	0x03180318
 8006834:	03180085 	.word	0x03180085
 8006838:	03180318 	.word	0x03180318
 800683c:	03180065 	.word	0x03180065
 8006840:	00880318 	.word	0x00880318
 8006844:	03180092 	.word	0x03180092
 8006848:	0094008f 	.word	0x0094008f
 800684c:	00af0318 	.word	0x00af0318
 8006850:	00b200b2 	.word	0x00b200b2
 8006854:	00b200b2 	.word	0x00b200b2
 8006858:	00b200b2 	.word	0x00b200b2
 800685c:	00b200b2 	.word	0x00b200b2
 8006860:	031800b2 	.word	0x031800b2
 8006864:	03180318 	.word	0x03180318
 8006868:	03180318 	.word	0x03180318
 800686c:	03180318 	.word	0x03180318
 8006870:	03180318 	.word	0x03180318
 8006874:	00ea00dc 	.word	0x00ea00dc
 8006878:	03180318 	.word	0x03180318
 800687c:	03180318 	.word	0x03180318
 8006880:	03180318 	.word	0x03180318
 8006884:	03180318 	.word	0x03180318
 8006888:	03180318 	.word	0x03180318
 800688c:	03180139 	.word	0x03180139
 8006890:	03180318 	.word	0x03180318
 8006894:	0318017e 	.word	0x0318017e
 8006898:	0318025c 	.word	0x0318025c
 800689c:	027c0318 	.word	0x027c0318
 80068a0:	03180318 	.word	0x03180318
 80068a4:	03180318 	.word	0x03180318
 80068a8:	03180318 	.word	0x03180318
 80068ac:	03180318 	.word	0x03180318
 80068b0:	03180318 	.word	0x03180318
 80068b4:	00ec00dc 	.word	0x00ec00dc
 80068b8:	03180318 	.word	0x03180318
 80068bc:	00c20318 	.word	0x00c20318
 80068c0:	00d600ec 	.word	0x00d600ec
 80068c4:	00cf0318 	.word	0x00cf0318
 80068c8:	01170318 	.word	0x01170318
 80068cc:	0170013b 	.word	0x0170013b
 80068d0:	031800d6 	.word	0x031800d6
 80068d4:	007b017e 	.word	0x007b017e
 80068d8:	0318025e 	.word	0x0318025e
 80068dc:	02980318 	.word	0x02980318
 80068e0:	007b0318 	.word	0x007b0318
 80068e4:	4639      	mov	r1, r7
 80068e6:	4648      	mov	r0, r9
 80068e8:	aa10      	add	r2, sp, #64	; 0x40
 80068ea:	f7ff fedd 	bl	80066a8 <__sprint_r>
 80068ee:	2800      	cmp	r0, #0
 80068f0:	f040 833a 	bne.w	8006f68 <_vfiprintf_r+0x85c>
 80068f4:	ae13      	add	r6, sp, #76	; 0x4c
 80068f6:	e77f      	b.n	80067f8 <_vfiprintf_r+0xec>
 80068f8:	4648      	mov	r0, r9
 80068fa:	f001 f88b 	bl	8007a14 <_localeconv_r>
 80068fe:	6843      	ldr	r3, [r0, #4]
 8006900:	4618      	mov	r0, r3
 8006902:	9309      	str	r3, [sp, #36]	; 0x24
 8006904:	f7f9 fc35 	bl	8000172 <strlen>
 8006908:	9008      	str	r0, [sp, #32]
 800690a:	4648      	mov	r0, r9
 800690c:	f001 f882 	bl	8007a14 <_localeconv_r>
 8006910:	6883      	ldr	r3, [r0, #8]
 8006912:	9307      	str	r3, [sp, #28]
 8006914:	9b08      	ldr	r3, [sp, #32]
 8006916:	b12b      	cbz	r3, 8006924 <_vfiprintf_r+0x218>
 8006918:	9b07      	ldr	r3, [sp, #28]
 800691a:	b11b      	cbz	r3, 8006924 <_vfiprintf_r+0x218>
 800691c:	781b      	ldrb	r3, [r3, #0]
 800691e:	b10b      	cbz	r3, 8006924 <_vfiprintf_r+0x218>
 8006920:	f44a 6a80 	orr.w	sl, sl, #1024	; 0x400
 8006924:	9d02      	ldr	r5, [sp, #8]
 8006926:	e777      	b.n	8006818 <_vfiprintf_r+0x10c>
 8006928:	f89d 303b 	ldrb.w	r3, [sp, #59]	; 0x3b
 800692c:	2b00      	cmp	r3, #0
 800692e:	d1f9      	bne.n	8006924 <_vfiprintf_r+0x218>
 8006930:	2320      	movs	r3, #32
 8006932:	f88d 303b 	strb.w	r3, [sp, #59]	; 0x3b
 8006936:	e7f5      	b.n	8006924 <_vfiprintf_r+0x218>
 8006938:	f04a 0a01 	orr.w	sl, sl, #1
 800693c:	e7f2      	b.n	8006924 <_vfiprintf_r+0x218>
 800693e:	f854 3b04 	ldr.w	r3, [r4], #4
 8006942:	2b00      	cmp	r3, #0
 8006944:	9304      	str	r3, [sp, #16]
 8006946:	daed      	bge.n	8006924 <_vfiprintf_r+0x218>
 8006948:	425b      	negs	r3, r3
 800694a:	9304      	str	r3, [sp, #16]
 800694c:	f04a 0a04 	orr.w	sl, sl, #4
 8006950:	e7e8      	b.n	8006924 <_vfiprintf_r+0x218>
 8006952:	232b      	movs	r3, #43	; 0x2b
 8006954:	e7ed      	b.n	8006932 <_vfiprintf_r+0x226>
 8006956:	9a02      	ldr	r2, [sp, #8]
 8006958:	f812 3b01 	ldrb.w	r3, [r2], #1
 800695c:	2b2a      	cmp	r3, #42	; 0x2a
 800695e:	d112      	bne.n	8006986 <_vfiprintf_r+0x27a>
 8006960:	f854 3b04 	ldr.w	r3, [r4], #4
 8006964:	ea43 73e3 	orr.w	r3, r3, r3, asr #31
 8006968:	e9cd 3201 	strd	r3, r2, [sp, #4]
 800696c:	e7da      	b.n	8006924 <_vfiprintf_r+0x218>
 800696e:	200a      	movs	r0, #10
 8006970:	9b01      	ldr	r3, [sp, #4]
 8006972:	fb00 1303 	mla	r3, r0, r3, r1
 8006976:	9301      	str	r3, [sp, #4]
 8006978:	f812 3b01 	ldrb.w	r3, [r2], #1
 800697c:	f1a3 0130 	sub.w	r1, r3, #48	; 0x30
 8006980:	2909      	cmp	r1, #9
 8006982:	d9f4      	bls.n	800696e <_vfiprintf_r+0x262>
 8006984:	e74b      	b.n	800681e <_vfiprintf_r+0x112>
 8006986:	2100      	movs	r1, #0
 8006988:	9101      	str	r1, [sp, #4]
 800698a:	e7f7      	b.n	800697c <_vfiprintf_r+0x270>
 800698c:	f04a 0a80 	orr.w	sl, sl, #128	; 0x80
 8006990:	e7c8      	b.n	8006924 <_vfiprintf_r+0x218>
 8006992:	2100      	movs	r1, #0
 8006994:	9a02      	ldr	r2, [sp, #8]
 8006996:	9104      	str	r1, [sp, #16]
 8006998:	200a      	movs	r0, #10
 800699a:	9904      	ldr	r1, [sp, #16]
 800699c:	3b30      	subs	r3, #48	; 0x30
 800699e:	fb00 3301 	mla	r3, r0, r1, r3
 80069a2:	9304      	str	r3, [sp, #16]
 80069a4:	f812 3b01 	ldrb.w	r3, [r2], #1
 80069a8:	f1a3 0130 	sub.w	r1, r3, #48	; 0x30
 80069ac:	2909      	cmp	r1, #9
 80069ae:	d9f3      	bls.n	8006998 <_vfiprintf_r+0x28c>
 80069b0:	e735      	b.n	800681e <_vfiprintf_r+0x112>
 80069b2:	9b02      	ldr	r3, [sp, #8]
 80069b4:	781b      	ldrb	r3, [r3, #0]
 80069b6:	2b68      	cmp	r3, #104	; 0x68
 80069b8:	bf01      	itttt	eq
 80069ba:	9b02      	ldreq	r3, [sp, #8]
 80069bc:	f44a 7a00 	orreq.w	sl, sl, #512	; 0x200
 80069c0:	3301      	addeq	r3, #1
 80069c2:	9302      	streq	r3, [sp, #8]
 80069c4:	bf18      	it	ne
 80069c6:	f04a 0a40 	orrne.w	sl, sl, #64	; 0x40
 80069ca:	e7ab      	b.n	8006924 <_vfiprintf_r+0x218>
 80069cc:	9b02      	ldr	r3, [sp, #8]
 80069ce:	781b      	ldrb	r3, [r3, #0]
 80069d0:	2b6c      	cmp	r3, #108	; 0x6c
 80069d2:	d105      	bne.n	80069e0 <_vfiprintf_r+0x2d4>
 80069d4:	9b02      	ldr	r3, [sp, #8]
 80069d6:	3301      	adds	r3, #1
 80069d8:	9302      	str	r3, [sp, #8]
 80069da:	f04a 0a20 	orr.w	sl, sl, #32
 80069de:	e7a1      	b.n	8006924 <_vfiprintf_r+0x218>
 80069e0:	f04a 0a10 	orr.w	sl, sl, #16
 80069e4:	e79e      	b.n	8006924 <_vfiprintf_r+0x218>
 80069e6:	46a0      	mov	r8, r4
 80069e8:	f858 3b04 	ldr.w	r3, [r8], #4
 80069ec:	f88d 308c 	strb.w	r3, [sp, #140]	; 0x8c
 80069f0:	2300      	movs	r3, #0
 80069f2:	f88d 303b 	strb.w	r3, [sp, #59]	; 0x3b
 80069f6:	2201      	movs	r2, #1
 80069f8:	461d      	mov	r5, r3
 80069fa:	9201      	str	r2, [sp, #4]
 80069fc:	f10d 0b8c 	add.w	fp, sp, #140	; 0x8c
 8006a00:	e0a8      	b.n	8006b54 <_vfiprintf_r+0x448>
 8006a02:	f04a 0a10 	orr.w	sl, sl, #16
 8006a06:	f01a 0f20 	tst.w	sl, #32
 8006a0a:	d010      	beq.n	8006a2e <_vfiprintf_r+0x322>
 8006a0c:	3407      	adds	r4, #7
 8006a0e:	f024 0307 	bic.w	r3, r4, #7
 8006a12:	4698      	mov	r8, r3
 8006a14:	685d      	ldr	r5, [r3, #4]
 8006a16:	f858 4b08 	ldr.w	r4, [r8], #8
 8006a1a:	2d00      	cmp	r5, #0
 8006a1c:	da05      	bge.n	8006a2a <_vfiprintf_r+0x31e>
 8006a1e:	232d      	movs	r3, #45	; 0x2d
 8006a20:	4264      	negs	r4, r4
 8006a22:	eb65 0545 	sbc.w	r5, r5, r5, lsl #1
 8006a26:	f88d 303b 	strb.w	r3, [sp, #59]	; 0x3b
 8006a2a:	2301      	movs	r3, #1
 8006a2c:	e04a      	b.n	8006ac4 <_vfiprintf_r+0x3b8>
 8006a2e:	46a0      	mov	r8, r4
 8006a30:	f01a 0f10 	tst.w	sl, #16
 8006a34:	f858 5b04 	ldr.w	r5, [r8], #4
 8006a38:	d002      	beq.n	8006a40 <_vfiprintf_r+0x334>
 8006a3a:	462c      	mov	r4, r5
 8006a3c:	17ed      	asrs	r5, r5, #31
 8006a3e:	e7ec      	b.n	8006a1a <_vfiprintf_r+0x30e>
 8006a40:	f01a 0f40 	tst.w	sl, #64	; 0x40
 8006a44:	d003      	beq.n	8006a4e <_vfiprintf_r+0x342>
 8006a46:	b22c      	sxth	r4, r5
 8006a48:	f345 35c0 	sbfx	r5, r5, #15, #1
 8006a4c:	e7e5      	b.n	8006a1a <_vfiprintf_r+0x30e>
 8006a4e:	f41a 7f00 	tst.w	sl, #512	; 0x200
 8006a52:	d0f2      	beq.n	8006a3a <_vfiprintf_r+0x32e>
 8006a54:	b26c      	sxtb	r4, r5
 8006a56:	f345 15c0 	sbfx	r5, r5, #7, #1
 8006a5a:	e7de      	b.n	8006a1a <_vfiprintf_r+0x30e>
 8006a5c:	f01a 0f20 	tst.w	sl, #32
 8006a60:	f104 0804 	add.w	r8, r4, #4
 8006a64:	d007      	beq.n	8006a76 <_vfiprintf_r+0x36a>
 8006a66:	9a03      	ldr	r2, [sp, #12]
 8006a68:	6823      	ldr	r3, [r4, #0]
 8006a6a:	9903      	ldr	r1, [sp, #12]
 8006a6c:	17d2      	asrs	r2, r2, #31
 8006a6e:	e9c3 1200 	strd	r1, r2, [r3]
 8006a72:	4644      	mov	r4, r8
 8006a74:	e6aa      	b.n	80067cc <_vfiprintf_r+0xc0>
 8006a76:	f01a 0f10 	tst.w	sl, #16
 8006a7a:	d003      	beq.n	8006a84 <_vfiprintf_r+0x378>
 8006a7c:	6823      	ldr	r3, [r4, #0]
 8006a7e:	9a03      	ldr	r2, [sp, #12]
 8006a80:	601a      	str	r2, [r3, #0]
 8006a82:	e7f6      	b.n	8006a72 <_vfiprintf_r+0x366>
 8006a84:	f01a 0f40 	tst.w	sl, #64	; 0x40
 8006a88:	d003      	beq.n	8006a92 <_vfiprintf_r+0x386>
 8006a8a:	6823      	ldr	r3, [r4, #0]
 8006a8c:	9a03      	ldr	r2, [sp, #12]
 8006a8e:	801a      	strh	r2, [r3, #0]
 8006a90:	e7ef      	b.n	8006a72 <_vfiprintf_r+0x366>
 8006a92:	f41a 7f00 	tst.w	sl, #512	; 0x200
 8006a96:	d0f1      	beq.n	8006a7c <_vfiprintf_r+0x370>
 8006a98:	6823      	ldr	r3, [r4, #0]
 8006a9a:	9a03      	ldr	r2, [sp, #12]
 8006a9c:	701a      	strb	r2, [r3, #0]
 8006a9e:	e7e8      	b.n	8006a72 <_vfiprintf_r+0x366>
 8006aa0:	f04a 0a10 	orr.w	sl, sl, #16
 8006aa4:	f01a 0320 	ands.w	r3, sl, #32
 8006aa8:	d01f      	beq.n	8006aea <_vfiprintf_r+0x3de>
 8006aaa:	3407      	adds	r4, #7
 8006aac:	f024 0307 	bic.w	r3, r4, #7
 8006ab0:	4698      	mov	r8, r3
 8006ab2:	685d      	ldr	r5, [r3, #4]
 8006ab4:	f858 4b08 	ldr.w	r4, [r8], #8
 8006ab8:	2300      	movs	r3, #0
 8006aba:	f42a 6a80 	bic.w	sl, sl, #1024	; 0x400
 8006abe:	2200      	movs	r2, #0
 8006ac0:	f88d 203b 	strb.w	r2, [sp, #59]	; 0x3b
 8006ac4:	9a01      	ldr	r2, [sp, #4]
 8006ac6:	3201      	adds	r2, #1
 8006ac8:	f000 827c 	beq.w	8006fc4 <_vfiprintf_r+0x8b8>
 8006acc:	f02a 0280 	bic.w	r2, sl, #128	; 0x80
 8006ad0:	9205      	str	r2, [sp, #20]
 8006ad2:	ea54 0205 	orrs.w	r2, r4, r5
 8006ad6:	f040 827b 	bne.w	8006fd0 <_vfiprintf_r+0x8c4>
 8006ada:	9a01      	ldr	r2, [sp, #4]
 8006adc:	2a00      	cmp	r2, #0
 8006ade:	f000 81b3 	beq.w	8006e48 <_vfiprintf_r+0x73c>
 8006ae2:	2b01      	cmp	r3, #1
 8006ae4:	f040 8277 	bne.w	8006fd6 <_vfiprintf_r+0x8ca>
 8006ae8:	e151      	b.n	8006d8e <_vfiprintf_r+0x682>
 8006aea:	46a0      	mov	r8, r4
 8006aec:	f01a 0510 	ands.w	r5, sl, #16
 8006af0:	f858 4b04 	ldr.w	r4, [r8], #4
 8006af4:	d001      	beq.n	8006afa <_vfiprintf_r+0x3ee>
 8006af6:	461d      	mov	r5, r3
 8006af8:	e7de      	b.n	8006ab8 <_vfiprintf_r+0x3ac>
 8006afa:	f01a 0340 	ands.w	r3, sl, #64	; 0x40
 8006afe:	d001      	beq.n	8006b04 <_vfiprintf_r+0x3f8>
 8006b00:	b2a4      	uxth	r4, r4
 8006b02:	e7d9      	b.n	8006ab8 <_vfiprintf_r+0x3ac>
 8006b04:	f41a 7500 	ands.w	r5, sl, #512	; 0x200
 8006b08:	d0d6      	beq.n	8006ab8 <_vfiprintf_r+0x3ac>
 8006b0a:	b2e4      	uxtb	r4, r4
 8006b0c:	e7f3      	b.n	8006af6 <_vfiprintf_r+0x3ea>
 8006b0e:	f647 0330 	movw	r3, #30768	; 0x7830
 8006b12:	46a0      	mov	r8, r4
 8006b14:	2500      	movs	r5, #0
 8006b16:	f8ad 303c 	strh.w	r3, [sp, #60]	; 0x3c
 8006b1a:	4ba0      	ldr	r3, [pc, #640]	; (8006d9c <_vfiprintf_r+0x690>)
 8006b1c:	f858 4b04 	ldr.w	r4, [r8], #4
 8006b20:	f04a 0a02 	orr.w	sl, sl, #2
 8006b24:	9306      	str	r3, [sp, #24]
 8006b26:	2302      	movs	r3, #2
 8006b28:	e7c9      	b.n	8006abe <_vfiprintf_r+0x3b2>
 8006b2a:	46a0      	mov	r8, r4
 8006b2c:	2500      	movs	r5, #0
 8006b2e:	9b01      	ldr	r3, [sp, #4]
 8006b30:	f858 bb04 	ldr.w	fp, [r8], #4
 8006b34:	1c5c      	adds	r4, r3, #1
 8006b36:	f88d 503b 	strb.w	r5, [sp, #59]	; 0x3b
 8006b3a:	f000 80cf 	beq.w	8006cdc <_vfiprintf_r+0x5d0>
 8006b3e:	461a      	mov	r2, r3
 8006b40:	4629      	mov	r1, r5
 8006b42:	4658      	mov	r0, fp
 8006b44:	f000 ffa4 	bl	8007a90 <memchr>
 8006b48:	2800      	cmp	r0, #0
 8006b4a:	f000 8192 	beq.w	8006e72 <_vfiprintf_r+0x766>
 8006b4e:	eba0 030b 	sub.w	r3, r0, fp
 8006b52:	9301      	str	r3, [sp, #4]
 8006b54:	9b01      	ldr	r3, [sp, #4]
 8006b56:	f89d 203b 	ldrb.w	r2, [sp, #59]	; 0x3b
 8006b5a:	42ab      	cmp	r3, r5
 8006b5c:	bfb8      	it	lt
 8006b5e:	462b      	movlt	r3, r5
 8006b60:	9305      	str	r3, [sp, #20]
 8006b62:	b10a      	cbz	r2, 8006b68 <_vfiprintf_r+0x45c>
 8006b64:	3301      	adds	r3, #1
 8006b66:	9305      	str	r3, [sp, #20]
 8006b68:	f01a 0302 	ands.w	r3, sl, #2
 8006b6c:	930a      	str	r3, [sp, #40]	; 0x28
 8006b6e:	bf1e      	ittt	ne
 8006b70:	9b05      	ldrne	r3, [sp, #20]
 8006b72:	3302      	addne	r3, #2
 8006b74:	9305      	strne	r3, [sp, #20]
 8006b76:	f01a 0384 	ands.w	r3, sl, #132	; 0x84
 8006b7a:	930b      	str	r3, [sp, #44]	; 0x2c
 8006b7c:	d11f      	bne.n	8006bbe <_vfiprintf_r+0x4b2>
 8006b7e:	e9dd 3204 	ldrd	r3, r2, [sp, #16]
 8006b82:	1a9c      	subs	r4, r3, r2
 8006b84:	2c00      	cmp	r4, #0
 8006b86:	dd1a      	ble.n	8006bbe <_vfiprintf_r+0x4b2>
 8006b88:	4b85      	ldr	r3, [pc, #532]	; (8006da0 <_vfiprintf_r+0x694>)
 8006b8a:	2c10      	cmp	r4, #16
 8006b8c:	e9dd 2111 	ldrd	r2, r1, [sp, #68]	; 0x44
 8006b90:	f106 0008 	add.w	r0, r6, #8
 8006b94:	f102 0201 	add.w	r2, r2, #1
 8006b98:	6033      	str	r3, [r6, #0]
 8006b9a:	f300 816c 	bgt.w	8006e76 <_vfiprintf_r+0x76a>
 8006b9e:	6074      	str	r4, [r6, #4]
 8006ba0:	2a07      	cmp	r2, #7
 8006ba2:	440c      	add	r4, r1
 8006ba4:	e9cd 2411 	strd	r2, r4, [sp, #68]	; 0x44
 8006ba8:	f340 817a 	ble.w	8006ea0 <_vfiprintf_r+0x794>
 8006bac:	4639      	mov	r1, r7
 8006bae:	4648      	mov	r0, r9
 8006bb0:	aa10      	add	r2, sp, #64	; 0x40
 8006bb2:	f7ff fd79 	bl	80066a8 <__sprint_r>
 8006bb6:	2800      	cmp	r0, #0
 8006bb8:	f040 81d6 	bne.w	8006f68 <_vfiprintf_r+0x85c>
 8006bbc:	ae13      	add	r6, sp, #76	; 0x4c
 8006bbe:	f89d 003b 	ldrb.w	r0, [sp, #59]	; 0x3b
 8006bc2:	e9dd 2111 	ldrd	r2, r1, [sp, #68]	; 0x44
 8006bc6:	b160      	cbz	r0, 8006be2 <_vfiprintf_r+0x4d6>
 8006bc8:	f10d 003b 	add.w	r0, sp, #59	; 0x3b
 8006bcc:	6030      	str	r0, [r6, #0]
 8006bce:	2001      	movs	r0, #1
 8006bd0:	3201      	adds	r2, #1
 8006bd2:	4401      	add	r1, r0
 8006bd4:	2a07      	cmp	r2, #7
 8006bd6:	e9cd 2111 	strd	r2, r1, [sp, #68]	; 0x44
 8006bda:	6070      	str	r0, [r6, #4]
 8006bdc:	f300 8162 	bgt.w	8006ea4 <_vfiprintf_r+0x798>
 8006be0:	3608      	adds	r6, #8
 8006be2:	9b0a      	ldr	r3, [sp, #40]	; 0x28
 8006be4:	e9dd 2111 	ldrd	r2, r1, [sp, #68]	; 0x44
 8006be8:	b15b      	cbz	r3, 8006c02 <_vfiprintf_r+0x4f6>
 8006bea:	a80f      	add	r0, sp, #60	; 0x3c
 8006bec:	6030      	str	r0, [r6, #0]
 8006bee:	2002      	movs	r0, #2
 8006bf0:	3201      	adds	r2, #1
 8006bf2:	4401      	add	r1, r0
 8006bf4:	2a07      	cmp	r2, #7
 8006bf6:	e9cd 2111 	strd	r2, r1, [sp, #68]	; 0x44
 8006bfa:	6070      	str	r0, [r6, #4]
 8006bfc:	f300 815b 	bgt.w	8006eb6 <_vfiprintf_r+0x7aa>
 8006c00:	3608      	adds	r6, #8
 8006c02:	9b0b      	ldr	r3, [sp, #44]	; 0x2c
 8006c04:	2b80      	cmp	r3, #128	; 0x80
 8006c06:	d11f      	bne.n	8006c48 <_vfiprintf_r+0x53c>
 8006c08:	e9dd 3204 	ldrd	r3, r2, [sp, #16]
 8006c0c:	1a9c      	subs	r4, r3, r2
 8006c0e:	2c00      	cmp	r4, #0
 8006c10:	dd1a      	ble.n	8006c48 <_vfiprintf_r+0x53c>
 8006c12:	4b64      	ldr	r3, [pc, #400]	; (8006da4 <_vfiprintf_r+0x698>)
 8006c14:	2c10      	cmp	r4, #16
 8006c16:	e9dd 2111 	ldrd	r2, r1, [sp, #68]	; 0x44
 8006c1a:	f106 0008 	add.w	r0, r6, #8
 8006c1e:	f102 0201 	add.w	r2, r2, #1
 8006c22:	6033      	str	r3, [r6, #0]
 8006c24:	f300 8150 	bgt.w	8006ec8 <_vfiprintf_r+0x7bc>
 8006c28:	6074      	str	r4, [r6, #4]
 8006c2a:	2a07      	cmp	r2, #7
 8006c2c:	440c      	add	r4, r1
 8006c2e:	e9cd 2411 	strd	r2, r4, [sp, #68]	; 0x44
 8006c32:	f340 815e 	ble.w	8006ef2 <_vfiprintf_r+0x7e6>
 8006c36:	4639      	mov	r1, r7
 8006c38:	4648      	mov	r0, r9
 8006c3a:	aa10      	add	r2, sp, #64	; 0x40
 8006c3c:	f7ff fd34 	bl	80066a8 <__sprint_r>
 8006c40:	2800      	cmp	r0, #0
 8006c42:	f040 8191 	bne.w	8006f68 <_vfiprintf_r+0x85c>
 8006c46:	ae13      	add	r6, sp, #76	; 0x4c
 8006c48:	9b01      	ldr	r3, [sp, #4]
 8006c4a:	1aec      	subs	r4, r5, r3
 8006c4c:	2c00      	cmp	r4, #0
 8006c4e:	dd1b      	ble.n	8006c88 <_vfiprintf_r+0x57c>
 8006c50:	2310      	movs	r3, #16
 8006c52:	4d54      	ldr	r5, [pc, #336]	; (8006da4 <_vfiprintf_r+0x698>)
 8006c54:	2c10      	cmp	r4, #16
 8006c56:	e9dd 2111 	ldrd	r2, r1, [sp, #68]	; 0x44
 8006c5a:	f106 0008 	add.w	r0, r6, #8
 8006c5e:	f102 0201 	add.w	r2, r2, #1
 8006c62:	6035      	str	r5, [r6, #0]
 8006c64:	f300 8147 	bgt.w	8006ef6 <_vfiprintf_r+0x7ea>
 8006c68:	6074      	str	r4, [r6, #4]
 8006c6a:	2a07      	cmp	r2, #7
 8006c6c:	440c      	add	r4, r1
 8006c6e:	e9cd 2411 	strd	r2, r4, [sp, #68]	; 0x44
 8006c72:	f340 8151 	ble.w	8006f18 <_vfiprintf_r+0x80c>
 8006c76:	4639      	mov	r1, r7
 8006c78:	4648      	mov	r0, r9
 8006c7a:	aa10      	add	r2, sp, #64	; 0x40
 8006c7c:	f7ff fd14 	bl	80066a8 <__sprint_r>
 8006c80:	2800      	cmp	r0, #0
 8006c82:	f040 8171 	bne.w	8006f68 <_vfiprintf_r+0x85c>
 8006c86:	ae13      	add	r6, sp, #76	; 0x4c
 8006c88:	9b01      	ldr	r3, [sp, #4]
 8006c8a:	9a01      	ldr	r2, [sp, #4]
 8006c8c:	6073      	str	r3, [r6, #4]
 8006c8e:	9b12      	ldr	r3, [sp, #72]	; 0x48
 8006c90:	f8c6 b000 	str.w	fp, [r6]
 8006c94:	4413      	add	r3, r2
 8006c96:	9312      	str	r3, [sp, #72]	; 0x48
 8006c98:	9b11      	ldr	r3, [sp, #68]	; 0x44
 8006c9a:	3301      	adds	r3, #1
 8006c9c:	2b07      	cmp	r3, #7
 8006c9e:	9311      	str	r3, [sp, #68]	; 0x44
 8006ca0:	f300 813c 	bgt.w	8006f1c <_vfiprintf_r+0x810>
 8006ca4:	f106 0308 	add.w	r3, r6, #8
 8006ca8:	f01a 0f04 	tst.w	sl, #4
 8006cac:	f040 813e 	bne.w	8006f2c <_vfiprintf_r+0x820>
 8006cb0:	e9dd 3203 	ldrd	r3, r2, [sp, #12]
 8006cb4:	9905      	ldr	r1, [sp, #20]
 8006cb6:	428a      	cmp	r2, r1
 8006cb8:	bfac      	ite	ge
 8006cba:	189b      	addge	r3, r3, r2
 8006cbc:	185b      	addlt	r3, r3, r1
 8006cbe:	9303      	str	r3, [sp, #12]
 8006cc0:	9b12      	ldr	r3, [sp, #72]	; 0x48
 8006cc2:	b13b      	cbz	r3, 8006cd4 <_vfiprintf_r+0x5c8>
 8006cc4:	4639      	mov	r1, r7
 8006cc6:	4648      	mov	r0, r9
 8006cc8:	aa10      	add	r2, sp, #64	; 0x40
 8006cca:	f7ff fced 	bl	80066a8 <__sprint_r>
 8006cce:	2800      	cmp	r0, #0
 8006cd0:	f040 814a 	bne.w	8006f68 <_vfiprintf_r+0x85c>
 8006cd4:	2300      	movs	r3, #0
 8006cd6:	ae13      	add	r6, sp, #76	; 0x4c
 8006cd8:	9311      	str	r3, [sp, #68]	; 0x44
 8006cda:	e6ca      	b.n	8006a72 <_vfiprintf_r+0x366>
 8006cdc:	4658      	mov	r0, fp
 8006cde:	f7f9 fa48 	bl	8000172 <strlen>
 8006ce2:	9001      	str	r0, [sp, #4]
 8006ce4:	e736      	b.n	8006b54 <_vfiprintf_r+0x448>
 8006ce6:	f04a 0a10 	orr.w	sl, sl, #16
 8006cea:	f01a 0320 	ands.w	r3, sl, #32
 8006cee:	d008      	beq.n	8006d02 <_vfiprintf_r+0x5f6>
 8006cf0:	3407      	adds	r4, #7
 8006cf2:	f024 0307 	bic.w	r3, r4, #7
 8006cf6:	4698      	mov	r8, r3
 8006cf8:	685d      	ldr	r5, [r3, #4]
 8006cfa:	f858 4b08 	ldr.w	r4, [r8], #8
 8006cfe:	2301      	movs	r3, #1
 8006d00:	e6dd      	b.n	8006abe <_vfiprintf_r+0x3b2>
 8006d02:	46a0      	mov	r8, r4
 8006d04:	f01a 0510 	ands.w	r5, sl, #16
 8006d08:	f858 4b04 	ldr.w	r4, [r8], #4
 8006d0c:	d001      	beq.n	8006d12 <_vfiprintf_r+0x606>
 8006d0e:	461d      	mov	r5, r3
 8006d10:	e7f5      	b.n	8006cfe <_vfiprintf_r+0x5f2>
 8006d12:	f01a 0340 	ands.w	r3, sl, #64	; 0x40
 8006d16:	d001      	beq.n	8006d1c <_vfiprintf_r+0x610>
 8006d18:	b2a4      	uxth	r4, r4
 8006d1a:	e7f0      	b.n	8006cfe <_vfiprintf_r+0x5f2>
 8006d1c:	f41a 7500 	ands.w	r5, sl, #512	; 0x200
 8006d20:	d0ed      	beq.n	8006cfe <_vfiprintf_r+0x5f2>
 8006d22:	b2e4      	uxtb	r4, r4
 8006d24:	e7f3      	b.n	8006d0e <_vfiprintf_r+0x602>
 8006d26:	4a20      	ldr	r2, [pc, #128]	; (8006da8 <_vfiprintf_r+0x69c>)
 8006d28:	9206      	str	r2, [sp, #24]
 8006d2a:	f01a 0220 	ands.w	r2, sl, #32
 8006d2e:	d018      	beq.n	8006d62 <_vfiprintf_r+0x656>
 8006d30:	3407      	adds	r4, #7
 8006d32:	f024 0207 	bic.w	r2, r4, #7
 8006d36:	4690      	mov	r8, r2
 8006d38:	6855      	ldr	r5, [r2, #4]
 8006d3a:	f858 4b08 	ldr.w	r4, [r8], #8
 8006d3e:	f01a 0f01 	tst.w	sl, #1
 8006d42:	d009      	beq.n	8006d58 <_vfiprintf_r+0x64c>
 8006d44:	ea54 0205 	orrs.w	r2, r4, r5
 8006d48:	bf1f      	itttt	ne
 8006d4a:	2230      	movne	r2, #48	; 0x30
 8006d4c:	f88d 303d 	strbne.w	r3, [sp, #61]	; 0x3d
 8006d50:	f88d 203c 	strbne.w	r2, [sp, #60]	; 0x3c
 8006d54:	f04a 0a02 	orrne.w	sl, sl, #2
 8006d58:	f42a 6a80 	bic.w	sl, sl, #1024	; 0x400
 8006d5c:	e6e3      	b.n	8006b26 <_vfiprintf_r+0x41a>
 8006d5e:	4a0f      	ldr	r2, [pc, #60]	; (8006d9c <_vfiprintf_r+0x690>)
 8006d60:	e7e2      	b.n	8006d28 <_vfiprintf_r+0x61c>
 8006d62:	46a0      	mov	r8, r4
 8006d64:	f01a 0510 	ands.w	r5, sl, #16
 8006d68:	f858 4b04 	ldr.w	r4, [r8], #4
 8006d6c:	d001      	beq.n	8006d72 <_vfiprintf_r+0x666>
 8006d6e:	4615      	mov	r5, r2
 8006d70:	e7e5      	b.n	8006d3e <_vfiprintf_r+0x632>
 8006d72:	f01a 0240 	ands.w	r2, sl, #64	; 0x40
 8006d76:	d001      	beq.n	8006d7c <_vfiprintf_r+0x670>
 8006d78:	b2a4      	uxth	r4, r4
 8006d7a:	e7e0      	b.n	8006d3e <_vfiprintf_r+0x632>
 8006d7c:	f41a 7500 	ands.w	r5, sl, #512	; 0x200
 8006d80:	d0dd      	beq.n	8006d3e <_vfiprintf_r+0x632>
 8006d82:	b2e4      	uxtb	r4, r4
 8006d84:	e7f3      	b.n	8006d6e <_vfiprintf_r+0x662>
 8006d86:	2c0a      	cmp	r4, #10
 8006d88:	f175 0300 	sbcs.w	r3, r5, #0
 8006d8c:	d20e      	bcs.n	8006dac <_vfiprintf_r+0x6a0>
 8006d8e:	3430      	adds	r4, #48	; 0x30
 8006d90:	f88d 40ef 	strb.w	r4, [sp, #239]	; 0xef
 8006d94:	f10d 0bef 	add.w	fp, sp, #239	; 0xef
 8006d98:	e139      	b.n	800700e <_vfiprintf_r+0x902>
 8006d9a:	bf00      	nop
 8006d9c:	0800c409 	.word	0x0800c409
 8006da0:	0800c44d 	.word	0x0800c44d
 8006da4:	0800c45d 	.word	0x0800c45d
 8006da8:	0800c41a 	.word	0x0800c41a
 8006dac:	f04f 0a00 	mov.w	sl, #0
 8006db0:	ab3c      	add	r3, sp, #240	; 0xf0
 8006db2:	930a      	str	r3, [sp, #40]	; 0x28
 8006db4:	9b05      	ldr	r3, [sp, #20]
 8006db6:	f403 6380 	and.w	r3, r3, #1024	; 0x400
 8006dba:	930b      	str	r3, [sp, #44]	; 0x2c
 8006dbc:	220a      	movs	r2, #10
 8006dbe:	2300      	movs	r3, #0
 8006dc0:	4620      	mov	r0, r4
 8006dc2:	4629      	mov	r1, r5
 8006dc4:	f7fa f820 	bl	8000e08 <__aeabi_uldivmod>
 8006dc8:	9b0a      	ldr	r3, [sp, #40]	; 0x28
 8006dca:	3230      	adds	r2, #48	; 0x30
 8006dcc:	f103 3bff 	add.w	fp, r3, #4294967295	; 0xffffffff
 8006dd0:	f803 2c01 	strb.w	r2, [r3, #-1]
 8006dd4:	9b0b      	ldr	r3, [sp, #44]	; 0x2c
 8006dd6:	e9cd 010c 	strd	r0, r1, [sp, #48]	; 0x30
 8006dda:	f10a 0a01 	add.w	sl, sl, #1
 8006dde:	b1cb      	cbz	r3, 8006e14 <_vfiprintf_r+0x708>
 8006de0:	9b07      	ldr	r3, [sp, #28]
 8006de2:	781a      	ldrb	r2, [r3, #0]
 8006de4:	4552      	cmp	r2, sl
 8006de6:	d115      	bne.n	8006e14 <_vfiprintf_r+0x708>
 8006de8:	f1ba 0fff 	cmp.w	sl, #255	; 0xff
 8006dec:	d012      	beq.n	8006e14 <_vfiprintf_r+0x708>
 8006dee:	2c0a      	cmp	r4, #10
 8006df0:	f175 0200 	sbcs.w	r2, r5, #0
 8006df4:	d30e      	bcc.n	8006e14 <_vfiprintf_r+0x708>
 8006df6:	9b08      	ldr	r3, [sp, #32]
 8006df8:	9909      	ldr	r1, [sp, #36]	; 0x24
 8006dfa:	ebab 0b03 	sub.w	fp, fp, r3
 8006dfe:	461a      	mov	r2, r3
 8006e00:	4658      	mov	r0, fp
 8006e02:	f000 fded 	bl	80079e0 <strncpy>
 8006e06:	9b07      	ldr	r3, [sp, #28]
 8006e08:	785a      	ldrb	r2, [r3, #1]
 8006e0a:	b16a      	cbz	r2, 8006e28 <_vfiprintf_r+0x71c>
 8006e0c:	f04f 0a00 	mov.w	sl, #0
 8006e10:	3301      	adds	r3, #1
 8006e12:	9307      	str	r3, [sp, #28]
 8006e14:	2c0a      	cmp	r4, #10
 8006e16:	f175 0500 	sbcs.w	r5, r5, #0
 8006e1a:	f0c0 80f8 	bcc.w	800700e <_vfiprintf_r+0x902>
 8006e1e:	e9dd 450c 	ldrd	r4, r5, [sp, #48]	; 0x30
 8006e22:	f8cd b028 	str.w	fp, [sp, #40]	; 0x28
 8006e26:	e7c9      	b.n	8006dbc <_vfiprintf_r+0x6b0>
 8006e28:	4692      	mov	sl, r2
 8006e2a:	e7f3      	b.n	8006e14 <_vfiprintf_r+0x708>
 8006e2c:	9b06      	ldr	r3, [sp, #24]
 8006e2e:	f004 020f 	and.w	r2, r4, #15
 8006e32:	5c9a      	ldrb	r2, [r3, r2]
 8006e34:	0924      	lsrs	r4, r4, #4
 8006e36:	ea44 7405 	orr.w	r4, r4, r5, lsl #28
 8006e3a:	092d      	lsrs	r5, r5, #4
 8006e3c:	f80b 2d01 	strb.w	r2, [fp, #-1]!
 8006e40:	ea54 0205 	orrs.w	r2, r4, r5
 8006e44:	d1f2      	bne.n	8006e2c <_vfiprintf_r+0x720>
 8006e46:	e0e2      	b.n	800700e <_vfiprintf_r+0x902>
 8006e48:	b933      	cbnz	r3, 8006e58 <_vfiprintf_r+0x74c>
 8006e4a:	f01a 0f01 	tst.w	sl, #1
 8006e4e:	d003      	beq.n	8006e58 <_vfiprintf_r+0x74c>
 8006e50:	2330      	movs	r3, #48	; 0x30
 8006e52:	f88d 30ef 	strb.w	r3, [sp, #239]	; 0xef
 8006e56:	e79d      	b.n	8006d94 <_vfiprintf_r+0x688>
 8006e58:	f10d 0bf0 	add.w	fp, sp, #240	; 0xf0
 8006e5c:	e0d7      	b.n	800700e <_vfiprintf_r+0x902>
 8006e5e:	2b00      	cmp	r3, #0
 8006e60:	f000 80a3 	beq.w	8006faa <_vfiprintf_r+0x89e>
 8006e64:	f88d 308c 	strb.w	r3, [sp, #140]	; 0x8c
 8006e68:	2300      	movs	r3, #0
 8006e6a:	46a0      	mov	r8, r4
 8006e6c:	f88d 303b 	strb.w	r3, [sp, #59]	; 0x3b
 8006e70:	e5c1      	b.n	80069f6 <_vfiprintf_r+0x2ea>
 8006e72:	4605      	mov	r5, r0
 8006e74:	e66e      	b.n	8006b54 <_vfiprintf_r+0x448>
 8006e76:	f04f 0c10 	mov.w	ip, #16
 8006e7a:	2a07      	cmp	r2, #7
 8006e7c:	4461      	add	r1, ip
 8006e7e:	e9cd 2111 	strd	r2, r1, [sp, #68]	; 0x44
 8006e82:	f8c6 c004 	str.w	ip, [r6, #4]
 8006e86:	dd08      	ble.n	8006e9a <_vfiprintf_r+0x78e>
 8006e88:	4639      	mov	r1, r7
 8006e8a:	4648      	mov	r0, r9
 8006e8c:	aa10      	add	r2, sp, #64	; 0x40
 8006e8e:	f7ff fc0b 	bl	80066a8 <__sprint_r>
 8006e92:	2800      	cmp	r0, #0
 8006e94:	d168      	bne.n	8006f68 <_vfiprintf_r+0x85c>
 8006e96:	4b62      	ldr	r3, [pc, #392]	; (8007020 <_vfiprintf_r+0x914>)
 8006e98:	a813      	add	r0, sp, #76	; 0x4c
 8006e9a:	4606      	mov	r6, r0
 8006e9c:	3c10      	subs	r4, #16
 8006e9e:	e674      	b.n	8006b8a <_vfiprintf_r+0x47e>
 8006ea0:	4606      	mov	r6, r0
 8006ea2:	e68c      	b.n	8006bbe <_vfiprintf_r+0x4b2>
 8006ea4:	4639      	mov	r1, r7
 8006ea6:	4648      	mov	r0, r9
 8006ea8:	aa10      	add	r2, sp, #64	; 0x40
 8006eaa:	f7ff fbfd 	bl	80066a8 <__sprint_r>
 8006eae:	2800      	cmp	r0, #0
 8006eb0:	d15a      	bne.n	8006f68 <_vfiprintf_r+0x85c>
 8006eb2:	ae13      	add	r6, sp, #76	; 0x4c
 8006eb4:	e695      	b.n	8006be2 <_vfiprintf_r+0x4d6>
 8006eb6:	4639      	mov	r1, r7
 8006eb8:	4648      	mov	r0, r9
 8006eba:	aa10      	add	r2, sp, #64	; 0x40
 8006ebc:	f7ff fbf4 	bl	80066a8 <__sprint_r>
 8006ec0:	2800      	cmp	r0, #0
 8006ec2:	d151      	bne.n	8006f68 <_vfiprintf_r+0x85c>
 8006ec4:	ae13      	add	r6, sp, #76	; 0x4c
 8006ec6:	e69c      	b.n	8006c02 <_vfiprintf_r+0x4f6>
 8006ec8:	f04f 0c10 	mov.w	ip, #16
 8006ecc:	2a07      	cmp	r2, #7
 8006ece:	4461      	add	r1, ip
 8006ed0:	e9cd 2111 	strd	r2, r1, [sp, #68]	; 0x44
 8006ed4:	f8c6 c004 	str.w	ip, [r6, #4]
 8006ed8:	dd08      	ble.n	8006eec <_vfiprintf_r+0x7e0>
 8006eda:	4639      	mov	r1, r7
 8006edc:	4648      	mov	r0, r9
 8006ede:	aa10      	add	r2, sp, #64	; 0x40
 8006ee0:	f7ff fbe2 	bl	80066a8 <__sprint_r>
 8006ee4:	2800      	cmp	r0, #0
 8006ee6:	d13f      	bne.n	8006f68 <_vfiprintf_r+0x85c>
 8006ee8:	4b4e      	ldr	r3, [pc, #312]	; (8007024 <_vfiprintf_r+0x918>)
 8006eea:	a813      	add	r0, sp, #76	; 0x4c
 8006eec:	4606      	mov	r6, r0
 8006eee:	3c10      	subs	r4, #16
 8006ef0:	e690      	b.n	8006c14 <_vfiprintf_r+0x508>
 8006ef2:	4606      	mov	r6, r0
 8006ef4:	e6a8      	b.n	8006c48 <_vfiprintf_r+0x53c>
 8006ef6:	3110      	adds	r1, #16
 8006ef8:	2a07      	cmp	r2, #7
 8006efa:	e9cd 2111 	strd	r2, r1, [sp, #68]	; 0x44
 8006efe:	6073      	str	r3, [r6, #4]
 8006f00:	dd07      	ble.n	8006f12 <_vfiprintf_r+0x806>
 8006f02:	4639      	mov	r1, r7
 8006f04:	4648      	mov	r0, r9
 8006f06:	aa10      	add	r2, sp, #64	; 0x40
 8006f08:	f7ff fbce 	bl	80066a8 <__sprint_r>
 8006f0c:	bb60      	cbnz	r0, 8006f68 <_vfiprintf_r+0x85c>
 8006f0e:	2310      	movs	r3, #16
 8006f10:	a813      	add	r0, sp, #76	; 0x4c
 8006f12:	4606      	mov	r6, r0
 8006f14:	3c10      	subs	r4, #16
 8006f16:	e69d      	b.n	8006c54 <_vfiprintf_r+0x548>
 8006f18:	4606      	mov	r6, r0
 8006f1a:	e6b5      	b.n	8006c88 <_vfiprintf_r+0x57c>
 8006f1c:	4639      	mov	r1, r7
 8006f1e:	4648      	mov	r0, r9
 8006f20:	aa10      	add	r2, sp, #64	; 0x40
 8006f22:	f7ff fbc1 	bl	80066a8 <__sprint_r>
 8006f26:	b9f8      	cbnz	r0, 8006f68 <_vfiprintf_r+0x85c>
 8006f28:	ab13      	add	r3, sp, #76	; 0x4c
 8006f2a:	e6bd      	b.n	8006ca8 <_vfiprintf_r+0x59c>
 8006f2c:	e9dd 2104 	ldrd	r2, r1, [sp, #16]
 8006f30:	1a54      	subs	r4, r2, r1
 8006f32:	2c00      	cmp	r4, #0
 8006f34:	f77f aebc 	ble.w	8006cb0 <_vfiprintf_r+0x5a4>
 8006f38:	2610      	movs	r6, #16
 8006f3a:	4d39      	ldr	r5, [pc, #228]	; (8007020 <_vfiprintf_r+0x914>)
 8006f3c:	2c10      	cmp	r4, #16
 8006f3e:	e9dd 2111 	ldrd	r2, r1, [sp, #68]	; 0x44
 8006f42:	601d      	str	r5, [r3, #0]
 8006f44:	f102 0201 	add.w	r2, r2, #1
 8006f48:	dc1d      	bgt.n	8006f86 <_vfiprintf_r+0x87a>
 8006f4a:	605c      	str	r4, [r3, #4]
 8006f4c:	2a07      	cmp	r2, #7
 8006f4e:	440c      	add	r4, r1
 8006f50:	e9cd 2411 	strd	r2, r4, [sp, #68]	; 0x44
 8006f54:	f77f aeac 	ble.w	8006cb0 <_vfiprintf_r+0x5a4>
 8006f58:	4639      	mov	r1, r7
 8006f5a:	4648      	mov	r0, r9
 8006f5c:	aa10      	add	r2, sp, #64	; 0x40
 8006f5e:	f7ff fba3 	bl	80066a8 <__sprint_r>
 8006f62:	2800      	cmp	r0, #0
 8006f64:	f43f aea4 	beq.w	8006cb0 <_vfiprintf_r+0x5a4>
 8006f68:	6e7b      	ldr	r3, [r7, #100]	; 0x64
 8006f6a:	07d9      	lsls	r1, r3, #31
 8006f6c:	d405      	bmi.n	8006f7a <_vfiprintf_r+0x86e>
 8006f6e:	89bb      	ldrh	r3, [r7, #12]
 8006f70:	059a      	lsls	r2, r3, #22
 8006f72:	d402      	bmi.n	8006f7a <_vfiprintf_r+0x86e>
 8006f74:	6db8      	ldr	r0, [r7, #88]	; 0x58
 8006f76:	f000 fd8a 	bl	8007a8e <__retarget_lock_release_recursive>
 8006f7a:	89bb      	ldrh	r3, [r7, #12]
 8006f7c:	065b      	lsls	r3, r3, #25
 8006f7e:	f57f abf6 	bpl.w	800676e <_vfiprintf_r+0x62>
 8006f82:	f7ff bbf1 	b.w	8006768 <_vfiprintf_r+0x5c>
 8006f86:	3110      	adds	r1, #16
 8006f88:	2a07      	cmp	r2, #7
 8006f8a:	e9cd 2111 	strd	r2, r1, [sp, #68]	; 0x44
 8006f8e:	605e      	str	r6, [r3, #4]
 8006f90:	dc02      	bgt.n	8006f98 <_vfiprintf_r+0x88c>
 8006f92:	3308      	adds	r3, #8
 8006f94:	3c10      	subs	r4, #16
 8006f96:	e7d1      	b.n	8006f3c <_vfiprintf_r+0x830>
 8006f98:	4639      	mov	r1, r7
 8006f9a:	4648      	mov	r0, r9
 8006f9c:	aa10      	add	r2, sp, #64	; 0x40
 8006f9e:	f7ff fb83 	bl	80066a8 <__sprint_r>
 8006fa2:	2800      	cmp	r0, #0
 8006fa4:	d1e0      	bne.n	8006f68 <_vfiprintf_r+0x85c>
 8006fa6:	ab13      	add	r3, sp, #76	; 0x4c
 8006fa8:	e7f4      	b.n	8006f94 <_vfiprintf_r+0x888>
 8006faa:	9b12      	ldr	r3, [sp, #72]	; 0x48
 8006fac:	b913      	cbnz	r3, 8006fb4 <_vfiprintf_r+0x8a8>
 8006fae:	2300      	movs	r3, #0
 8006fb0:	9311      	str	r3, [sp, #68]	; 0x44
 8006fb2:	e7d9      	b.n	8006f68 <_vfiprintf_r+0x85c>
 8006fb4:	4639      	mov	r1, r7
 8006fb6:	4648      	mov	r0, r9
 8006fb8:	aa10      	add	r2, sp, #64	; 0x40
 8006fba:	f7ff fb75 	bl	80066a8 <__sprint_r>
 8006fbe:	2800      	cmp	r0, #0
 8006fc0:	d0f5      	beq.n	8006fae <_vfiprintf_r+0x8a2>
 8006fc2:	e7d1      	b.n	8006f68 <_vfiprintf_r+0x85c>
 8006fc4:	ea54 0205 	orrs.w	r2, r4, r5
 8006fc8:	f8cd a014 	str.w	sl, [sp, #20]
 8006fcc:	f43f ad89 	beq.w	8006ae2 <_vfiprintf_r+0x3d6>
 8006fd0:	2b01      	cmp	r3, #1
 8006fd2:	f43f aed8 	beq.w	8006d86 <_vfiprintf_r+0x67a>
 8006fd6:	2b02      	cmp	r3, #2
 8006fd8:	f10d 0bf0 	add.w	fp, sp, #240	; 0xf0
 8006fdc:	f43f af26 	beq.w	8006e2c <_vfiprintf_r+0x720>
 8006fe0:	f004 0207 	and.w	r2, r4, #7
 8006fe4:	08e4      	lsrs	r4, r4, #3
 8006fe6:	ea44 7445 	orr.w	r4, r4, r5, lsl #29
 8006fea:	08ed      	lsrs	r5, r5, #3
 8006fec:	3230      	adds	r2, #48	; 0x30
 8006fee:	ea54 0005 	orrs.w	r0, r4, r5
 8006ff2:	4659      	mov	r1, fp
 8006ff4:	f80b 2d01 	strb.w	r2, [fp, #-1]!
 8006ff8:	d1f2      	bne.n	8006fe0 <_vfiprintf_r+0x8d4>
 8006ffa:	9b05      	ldr	r3, [sp, #20]
 8006ffc:	07d8      	lsls	r0, r3, #31
 8006ffe:	d506      	bpl.n	800700e <_vfiprintf_r+0x902>
 8007000:	2a30      	cmp	r2, #48	; 0x30
 8007002:	d004      	beq.n	800700e <_vfiprintf_r+0x902>
 8007004:	2230      	movs	r2, #48	; 0x30
 8007006:	f80b 2c01 	strb.w	r2, [fp, #-1]
 800700a:	f1a1 0b02 	sub.w	fp, r1, #2
 800700e:	ab3c      	add	r3, sp, #240	; 0xf0
 8007010:	eba3 030b 	sub.w	r3, r3, fp
 8007014:	9d01      	ldr	r5, [sp, #4]
 8007016:	f8dd a014 	ldr.w	sl, [sp, #20]
 800701a:	9301      	str	r3, [sp, #4]
 800701c:	e59a      	b.n	8006b54 <_vfiprintf_r+0x448>
 800701e:	bf00      	nop
 8007020:	0800c44d 	.word	0x0800c44d
 8007024:	0800c45d 	.word	0x0800c45d

08007028 <__sbprintf>:
 8007028:	b5f0      	push	{r4, r5, r6, r7, lr}
 800702a:	461f      	mov	r7, r3
 800702c:	898b      	ldrh	r3, [r1, #12]
 800702e:	f2ad 4d6c 	subw	sp, sp, #1132	; 0x46c
 8007032:	f023 0302 	bic.w	r3, r3, #2
 8007036:	f8ad 300c 	strh.w	r3, [sp, #12]
 800703a:	6e4b      	ldr	r3, [r1, #100]	; 0x64
 800703c:	4615      	mov	r5, r2
 800703e:	9319      	str	r3, [sp, #100]	; 0x64
 8007040:	89cb      	ldrh	r3, [r1, #14]
 8007042:	4606      	mov	r6, r0
 8007044:	f8ad 300e 	strh.w	r3, [sp, #14]
 8007048:	69cb      	ldr	r3, [r1, #28]
 800704a:	a816      	add	r0, sp, #88	; 0x58
 800704c:	9307      	str	r3, [sp, #28]
 800704e:	6a4b      	ldr	r3, [r1, #36]	; 0x24
 8007050:	460c      	mov	r4, r1
 8007052:	9309      	str	r3, [sp, #36]	; 0x24
 8007054:	ab1a      	add	r3, sp, #104	; 0x68
 8007056:	9300      	str	r3, [sp, #0]
 8007058:	9304      	str	r3, [sp, #16]
 800705a:	f44f 6380 	mov.w	r3, #1024	; 0x400
 800705e:	9302      	str	r3, [sp, #8]
 8007060:	9305      	str	r3, [sp, #20]
 8007062:	2300      	movs	r3, #0
 8007064:	9306      	str	r3, [sp, #24]
 8007066:	f000 fd0f 	bl	8007a88 <__retarget_lock_init_recursive>
 800706a:	462a      	mov	r2, r5
 800706c:	463b      	mov	r3, r7
 800706e:	4669      	mov	r1, sp
 8007070:	4630      	mov	r0, r6
 8007072:	f7ff fb4b 	bl	800670c <_vfiprintf_r>
 8007076:	1e05      	subs	r5, r0, #0
 8007078:	db07      	blt.n	800708a <__sbprintf+0x62>
 800707a:	4669      	mov	r1, sp
 800707c:	4630      	mov	r0, r6
 800707e:	f000 f95f 	bl	8007340 <_fflush_r>
 8007082:	2800      	cmp	r0, #0
 8007084:	bf18      	it	ne
 8007086:	f04f 35ff 	movne.w	r5, #4294967295	; 0xffffffff
 800708a:	f8bd 300c 	ldrh.w	r3, [sp, #12]
 800708e:	9816      	ldr	r0, [sp, #88]	; 0x58
 8007090:	065b      	lsls	r3, r3, #25
 8007092:	bf42      	ittt	mi
 8007094:	89a3      	ldrhmi	r3, [r4, #12]
 8007096:	f043 0340 	orrmi.w	r3, r3, #64	; 0x40
 800709a:	81a3      	strhmi	r3, [r4, #12]
 800709c:	f000 fcf5 	bl	8007a8a <__retarget_lock_close_recursive>
 80070a0:	4628      	mov	r0, r5
 80070a2:	f20d 4d6c 	addw	sp, sp, #1132	; 0x46c
 80070a6:	bdf0      	pop	{r4, r5, r6, r7, pc}

080070a8 <__malloc_lock>:
 80070a8:	4801      	ldr	r0, [pc, #4]	; (80070b0 <__malloc_lock+0x8>)
 80070aa:	f000 bcef 	b.w	8007a8c <__retarget_lock_acquire_recursive>
 80070ae:	bf00      	nop
 80070b0:	20000f01 	.word	0x20000f01

080070b4 <__malloc_unlock>:
 80070b4:	4801      	ldr	r0, [pc, #4]	; (80070bc <__malloc_unlock+0x8>)
 80070b6:	f000 bcea 	b.w	8007a8e <__retarget_lock_release_recursive>
 80070ba:	bf00      	nop
 80070bc:	20000f01 	.word	0x20000f01

080070c0 <setvbuf>:
 80070c0:	e92d 43f7 	stmdb	sp!, {r0, r1, r2, r4, r5, r6, r7, r8, r9, lr}
 80070c4:	461d      	mov	r5, r3
 80070c6:	4b58      	ldr	r3, [pc, #352]	; (8007228 <setvbuf+0x168>)
 80070c8:	4604      	mov	r4, r0
 80070ca:	681f      	ldr	r7, [r3, #0]
 80070cc:	460e      	mov	r6, r1
 80070ce:	4690      	mov	r8, r2
 80070d0:	b127      	cbz	r7, 80070dc <setvbuf+0x1c>
 80070d2:	6b7b      	ldr	r3, [r7, #52]	; 0x34
 80070d4:	b913      	cbnz	r3, 80070dc <setvbuf+0x1c>
 80070d6:	4638      	mov	r0, r7
 80070d8:	f000 f9e4 	bl	80074a4 <__sinit>
 80070dc:	f1b8 0f02 	cmp.w	r8, #2
 80070e0:	d006      	beq.n	80070f0 <setvbuf+0x30>
 80070e2:	f1b8 0f01 	cmp.w	r8, #1
 80070e6:	f200 809b 	bhi.w	8007220 <setvbuf+0x160>
 80070ea:	2d00      	cmp	r5, #0
 80070ec:	f2c0 8098 	blt.w	8007220 <setvbuf+0x160>
 80070f0:	6e63      	ldr	r3, [r4, #100]	; 0x64
 80070f2:	07da      	lsls	r2, r3, #31
 80070f4:	d405      	bmi.n	8007102 <setvbuf+0x42>
 80070f6:	89a3      	ldrh	r3, [r4, #12]
 80070f8:	059b      	lsls	r3, r3, #22
 80070fa:	d402      	bmi.n	8007102 <setvbuf+0x42>
 80070fc:	6da0      	ldr	r0, [r4, #88]	; 0x58
 80070fe:	f000 fcc5 	bl	8007a8c <__retarget_lock_acquire_recursive>
 8007102:	4621      	mov	r1, r4
 8007104:	4638      	mov	r0, r7
 8007106:	f000 f91b 	bl	8007340 <_fflush_r>
 800710a:	6b21      	ldr	r1, [r4, #48]	; 0x30
 800710c:	b141      	cbz	r1, 8007120 <setvbuf+0x60>
 800710e:	f104 0340 	add.w	r3, r4, #64	; 0x40
 8007112:	4299      	cmp	r1, r3
 8007114:	d002      	beq.n	800711c <setvbuf+0x5c>
 8007116:	4638      	mov	r0, r7
 8007118:	f001 fbd6 	bl	80088c8 <_free_r>
 800711c:	2300      	movs	r3, #0
 800711e:	6323      	str	r3, [r4, #48]	; 0x30
 8007120:	2300      	movs	r3, #0
 8007122:	61a3      	str	r3, [r4, #24]
 8007124:	6063      	str	r3, [r4, #4]
 8007126:	89a3      	ldrh	r3, [r4, #12]
 8007128:	0618      	lsls	r0, r3, #24
 800712a:	d503      	bpl.n	8007134 <setvbuf+0x74>
 800712c:	4638      	mov	r0, r7
 800712e:	6921      	ldr	r1, [r4, #16]
 8007130:	f001 fbca 	bl	80088c8 <_free_r>
 8007134:	89a3      	ldrh	r3, [r4, #12]
 8007136:	f1b8 0f02 	cmp.w	r8, #2
 800713a:	f423 634a 	bic.w	r3, r3, #3232	; 0xca0
 800713e:	f023 0303 	bic.w	r3, r3, #3
 8007142:	81a3      	strh	r3, [r4, #12]
 8007144:	d066      	beq.n	8007214 <setvbuf+0x154>
 8007146:	ab01      	add	r3, sp, #4
 8007148:	466a      	mov	r2, sp
 800714a:	4621      	mov	r1, r4
 800714c:	4638      	mov	r0, r7
 800714e:	f002 fe5b 	bl	8009e08 <__swhatbuf_r>
 8007152:	89a3      	ldrh	r3, [r4, #12]
 8007154:	4318      	orrs	r0, r3
 8007156:	81a0      	strh	r0, [r4, #12]
 8007158:	bb2d      	cbnz	r5, 80071a6 <setvbuf+0xe6>
 800715a:	9d00      	ldr	r5, [sp, #0]
 800715c:	4628      	mov	r0, r5
 800715e:	f7fd fdf3 	bl	8004d48 <malloc>
 8007162:	4606      	mov	r6, r0
 8007164:	2800      	cmp	r0, #0
 8007166:	d157      	bne.n	8007218 <setvbuf+0x158>
 8007168:	f8dd 9000 	ldr.w	r9, [sp]
 800716c:	45a9      	cmp	r9, r5
 800716e:	d145      	bne.n	80071fc <setvbuf+0x13c>
 8007170:	f04f 35ff 	mov.w	r5, #4294967295	; 0xffffffff
 8007174:	2200      	movs	r2, #0
 8007176:	60a2      	str	r2, [r4, #8]
 8007178:	f104 0243 	add.w	r2, r4, #67	; 0x43
 800717c:	6022      	str	r2, [r4, #0]
 800717e:	6122      	str	r2, [r4, #16]
 8007180:	2201      	movs	r2, #1
 8007182:	f9b4 300c 	ldrsh.w	r3, [r4, #12]
 8007186:	6162      	str	r2, [r4, #20]
 8007188:	6e62      	ldr	r2, [r4, #100]	; 0x64
 800718a:	f043 0302 	orr.w	r3, r3, #2
 800718e:	07d1      	lsls	r1, r2, #31
 8007190:	81a3      	strh	r3, [r4, #12]
 8007192:	d404      	bmi.n	800719e <setvbuf+0xde>
 8007194:	059b      	lsls	r3, r3, #22
 8007196:	d402      	bmi.n	800719e <setvbuf+0xde>
 8007198:	6da0      	ldr	r0, [r4, #88]	; 0x58
 800719a:	f000 fc78 	bl	8007a8e <__retarget_lock_release_recursive>
 800719e:	4628      	mov	r0, r5
 80071a0:	b003      	add	sp, #12
 80071a2:	e8bd 83f0 	ldmia.w	sp!, {r4, r5, r6, r7, r8, r9, pc}
 80071a6:	2e00      	cmp	r6, #0
 80071a8:	d0d8      	beq.n	800715c <setvbuf+0x9c>
 80071aa:	6b7b      	ldr	r3, [r7, #52]	; 0x34
 80071ac:	b913      	cbnz	r3, 80071b4 <setvbuf+0xf4>
 80071ae:	4638      	mov	r0, r7
 80071b0:	f000 f978 	bl	80074a4 <__sinit>
 80071b4:	9b00      	ldr	r3, [sp, #0]
 80071b6:	e9c4 6504 	strd	r6, r5, [r4, #16]
 80071ba:	42ab      	cmp	r3, r5
 80071bc:	bf18      	it	ne
 80071be:	89a3      	ldrhne	r3, [r4, #12]
 80071c0:	6026      	str	r6, [r4, #0]
 80071c2:	bf1c      	itt	ne
 80071c4:	f443 6300 	orrne.w	r3, r3, #2048	; 0x800
 80071c8:	81a3      	strhne	r3, [r4, #12]
 80071ca:	f1b8 0f01 	cmp.w	r8, #1
 80071ce:	bf02      	ittt	eq
 80071d0:	89a3      	ldrheq	r3, [r4, #12]
 80071d2:	f043 0301 	orreq.w	r3, r3, #1
 80071d6:	81a3      	strheq	r3, [r4, #12]
 80071d8:	89a3      	ldrh	r3, [r4, #12]
 80071da:	f013 0208 	ands.w	r2, r3, #8
 80071de:	d01d      	beq.n	800721c <setvbuf+0x15c>
 80071e0:	07da      	lsls	r2, r3, #31
 80071e2:	bf41      	itttt	mi
 80071e4:	2200      	movmi	r2, #0
 80071e6:	426d      	negmi	r5, r5
 80071e8:	60a2      	strmi	r2, [r4, #8]
 80071ea:	61a5      	strmi	r5, [r4, #24]
 80071ec:	bf58      	it	pl
 80071ee:	60a5      	strpl	r5, [r4, #8]
 80071f0:	6e65      	ldr	r5, [r4, #100]	; 0x64
 80071f2:	f015 0501 	ands.w	r5, r5, #1
 80071f6:	d0cd      	beq.n	8007194 <setvbuf+0xd4>
 80071f8:	2500      	movs	r5, #0
 80071fa:	e7d0      	b.n	800719e <setvbuf+0xde>
 80071fc:	4648      	mov	r0, r9
 80071fe:	f7fd fda3 	bl	8004d48 <malloc>
 8007202:	4606      	mov	r6, r0
 8007204:	2800      	cmp	r0, #0
 8007206:	d0b3      	beq.n	8007170 <setvbuf+0xb0>
 8007208:	89a3      	ldrh	r3, [r4, #12]
 800720a:	464d      	mov	r5, r9
 800720c:	f043 0380 	orr.w	r3, r3, #128	; 0x80
 8007210:	81a3      	strh	r3, [r4, #12]
 8007212:	e7ca      	b.n	80071aa <setvbuf+0xea>
 8007214:	2500      	movs	r5, #0
 8007216:	e7ad      	b.n	8007174 <setvbuf+0xb4>
 8007218:	46a9      	mov	r9, r5
 800721a:	e7f5      	b.n	8007208 <setvbuf+0x148>
 800721c:	60a2      	str	r2, [r4, #8]
 800721e:	e7e7      	b.n	80071f0 <setvbuf+0x130>
 8007220:	f04f 35ff 	mov.w	r5, #4294967295	; 0xffffffff
 8007224:	e7bb      	b.n	800719e <setvbuf+0xde>
 8007226:	bf00      	nop
 8007228:	200006e0 	.word	0x200006e0

0800722c <__sflush_r>:
 800722c:	b5f8      	push	{r3, r4, r5, r6, r7, lr}
 800722e:	898b      	ldrh	r3, [r1, #12]
 8007230:	4605      	mov	r5, r0
 8007232:	0718      	lsls	r0, r3, #28
 8007234:	460c      	mov	r4, r1
 8007236:	f9b1 200c 	ldrsh.w	r2, [r1, #12]
 800723a:	d45e      	bmi.n	80072fa <__sflush_r+0xce>
 800723c:	684b      	ldr	r3, [r1, #4]
 800723e:	f442 6200 	orr.w	r2, r2, #2048	; 0x800
 8007242:	2b00      	cmp	r3, #0
 8007244:	818a      	strh	r2, [r1, #12]
 8007246:	dc04      	bgt.n	8007252 <__sflush_r+0x26>
 8007248:	6bcb      	ldr	r3, [r1, #60]	; 0x3c
 800724a:	2b00      	cmp	r3, #0
 800724c:	dc01      	bgt.n	8007252 <__sflush_r+0x26>
 800724e:	2000      	movs	r0, #0
 8007250:	bdf8      	pop	{r3, r4, r5, r6, r7, pc}
 8007252:	6aa6      	ldr	r6, [r4, #40]	; 0x28
 8007254:	2e00      	cmp	r6, #0
 8007256:	d0fa      	beq.n	800724e <__sflush_r+0x22>
 8007258:	2300      	movs	r3, #0
 800725a:	f412 5280 	ands.w	r2, r2, #4096	; 0x1000
 800725e:	682f      	ldr	r7, [r5, #0]
 8007260:	69e1      	ldr	r1, [r4, #28]
 8007262:	602b      	str	r3, [r5, #0]
 8007264:	d036      	beq.n	80072d4 <__sflush_r+0xa8>
 8007266:	6d20      	ldr	r0, [r4, #80]	; 0x50
 8007268:	89a3      	ldrh	r3, [r4, #12]
 800726a:	075a      	lsls	r2, r3, #29
 800726c:	d505      	bpl.n	800727a <__sflush_r+0x4e>
 800726e:	6863      	ldr	r3, [r4, #4]
 8007270:	1ac0      	subs	r0, r0, r3
 8007272:	6b23      	ldr	r3, [r4, #48]	; 0x30
 8007274:	b10b      	cbz	r3, 800727a <__sflush_r+0x4e>
 8007276:	6be3      	ldr	r3, [r4, #60]	; 0x3c
 8007278:	1ac0      	subs	r0, r0, r3
 800727a:	2300      	movs	r3, #0
 800727c:	4602      	mov	r2, r0
 800727e:	6aa6      	ldr	r6, [r4, #40]	; 0x28
 8007280:	4628      	mov	r0, r5
 8007282:	69e1      	ldr	r1, [r4, #28]
 8007284:	47b0      	blx	r6
 8007286:	1c43      	adds	r3, r0, #1
 8007288:	89a3      	ldrh	r3, [r4, #12]
 800728a:	d106      	bne.n	800729a <__sflush_r+0x6e>
 800728c:	6829      	ldr	r1, [r5, #0]
 800728e:	291d      	cmp	r1, #29
 8007290:	d82f      	bhi.n	80072f2 <__sflush_r+0xc6>
 8007292:	4a2a      	ldr	r2, [pc, #168]	; (800733c <__sflush_r+0x110>)
 8007294:	410a      	asrs	r2, r1
 8007296:	07d6      	lsls	r6, r2, #31
 8007298:	d42b      	bmi.n	80072f2 <__sflush_r+0xc6>
 800729a:	2200      	movs	r2, #0
 800729c:	f423 6300 	bic.w	r3, r3, #2048	; 0x800
 80072a0:	b21b      	sxth	r3, r3
 80072a2:	6062      	str	r2, [r4, #4]
 80072a4:	6922      	ldr	r2, [r4, #16]
 80072a6:	04d9      	lsls	r1, r3, #19
 80072a8:	81a3      	strh	r3, [r4, #12]
 80072aa:	6022      	str	r2, [r4, #0]
 80072ac:	d504      	bpl.n	80072b8 <__sflush_r+0x8c>
 80072ae:	1c42      	adds	r2, r0, #1
 80072b0:	d101      	bne.n	80072b6 <__sflush_r+0x8a>
 80072b2:	682b      	ldr	r3, [r5, #0]
 80072b4:	b903      	cbnz	r3, 80072b8 <__sflush_r+0x8c>
 80072b6:	6520      	str	r0, [r4, #80]	; 0x50
 80072b8:	6b21      	ldr	r1, [r4, #48]	; 0x30
 80072ba:	602f      	str	r7, [r5, #0]
 80072bc:	2900      	cmp	r1, #0
 80072be:	d0c6      	beq.n	800724e <__sflush_r+0x22>
 80072c0:	f104 0340 	add.w	r3, r4, #64	; 0x40
 80072c4:	4299      	cmp	r1, r3
 80072c6:	d002      	beq.n	80072ce <__sflush_r+0xa2>
 80072c8:	4628      	mov	r0, r5
 80072ca:	f001 fafd 	bl	80088c8 <_free_r>
 80072ce:	2000      	movs	r0, #0
 80072d0:	6320      	str	r0, [r4, #48]	; 0x30
 80072d2:	e7bd      	b.n	8007250 <__sflush_r+0x24>
 80072d4:	2301      	movs	r3, #1
 80072d6:	4628      	mov	r0, r5
 80072d8:	47b0      	blx	r6
 80072da:	1c41      	adds	r1, r0, #1
 80072dc:	d1c4      	bne.n	8007268 <__sflush_r+0x3c>
 80072de:	682b      	ldr	r3, [r5, #0]
 80072e0:	2b00      	cmp	r3, #0
 80072e2:	d0c1      	beq.n	8007268 <__sflush_r+0x3c>
 80072e4:	2b1d      	cmp	r3, #29
 80072e6:	d001      	beq.n	80072ec <__sflush_r+0xc0>
 80072e8:	2b16      	cmp	r3, #22
 80072ea:	d101      	bne.n	80072f0 <__sflush_r+0xc4>
 80072ec:	602f      	str	r7, [r5, #0]
 80072ee:	e7ae      	b.n	800724e <__sflush_r+0x22>
 80072f0:	89a3      	ldrh	r3, [r4, #12]
 80072f2:	f043 0340 	orr.w	r3, r3, #64	; 0x40
 80072f6:	81a3      	strh	r3, [r4, #12]
 80072f8:	e7aa      	b.n	8007250 <__sflush_r+0x24>
 80072fa:	690f      	ldr	r7, [r1, #16]
 80072fc:	2f00      	cmp	r7, #0
 80072fe:	d0a6      	beq.n	800724e <__sflush_r+0x22>
 8007300:	079b      	lsls	r3, r3, #30
 8007302:	bf18      	it	ne
 8007304:	2300      	movne	r3, #0
 8007306:	680e      	ldr	r6, [r1, #0]
 8007308:	bf08      	it	eq
 800730a:	694b      	ldreq	r3, [r1, #20]
 800730c:	1bf6      	subs	r6, r6, r7
 800730e:	600f      	str	r7, [r1, #0]
 8007310:	608b      	str	r3, [r1, #8]
 8007312:	2e00      	cmp	r6, #0
 8007314:	dd9b      	ble.n	800724e <__sflush_r+0x22>
 8007316:	4633      	mov	r3, r6
 8007318:	463a      	mov	r2, r7
 800731a:	4628      	mov	r0, r5
 800731c:	69e1      	ldr	r1, [r4, #28]
 800731e:	f8d4 c024 	ldr.w	ip, [r4, #36]	; 0x24
 8007322:	47e0      	blx	ip
 8007324:	2800      	cmp	r0, #0
 8007326:	dc06      	bgt.n	8007336 <__sflush_r+0x10a>
 8007328:	89a3      	ldrh	r3, [r4, #12]
 800732a:	f04f 30ff 	mov.w	r0, #4294967295	; 0xffffffff
 800732e:	f043 0340 	orr.w	r3, r3, #64	; 0x40
 8007332:	81a3      	strh	r3, [r4, #12]
 8007334:	e78c      	b.n	8007250 <__sflush_r+0x24>
 8007336:	4407      	add	r7, r0
 8007338:	1a36      	subs	r6, r6, r0
 800733a:	e7ea      	b.n	8007312 <__sflush_r+0xe6>
 800733c:	dfbffffe 	.word	0xdfbffffe

08007340 <_fflush_r>:
 8007340:	b538      	push	{r3, r4, r5, lr}
 8007342:	460c      	mov	r4, r1
 8007344:	4605      	mov	r5, r0
 8007346:	b118      	cbz	r0, 8007350 <_fflush_r+0x10>
 8007348:	6b43      	ldr	r3, [r0, #52]	; 0x34
 800734a:	b90b      	cbnz	r3, 8007350 <_fflush_r+0x10>
 800734c:	f000 f8aa 	bl	80074a4 <__sinit>
 8007350:	f9b4 000c 	ldrsh.w	r0, [r4, #12]
 8007354:	b1b8      	cbz	r0, 8007386 <_fflush_r+0x46>
 8007356:	6e63      	ldr	r3, [r4, #100]	; 0x64
 8007358:	07db      	lsls	r3, r3, #31
 800735a:	d404      	bmi.n	8007366 <_fflush_r+0x26>
 800735c:	0581      	lsls	r1, r0, #22
 800735e:	d402      	bmi.n	8007366 <_fflush_r+0x26>
 8007360:	6da0      	ldr	r0, [r4, #88]	; 0x58
 8007362:	f000 fb93 	bl	8007a8c <__retarget_lock_acquire_recursive>
 8007366:	4628      	mov	r0, r5
 8007368:	4621      	mov	r1, r4
 800736a:	f7ff ff5f 	bl	800722c <__sflush_r>
 800736e:	6e63      	ldr	r3, [r4, #100]	; 0x64
 8007370:	4605      	mov	r5, r0
 8007372:	07da      	lsls	r2, r3, #31
 8007374:	d405      	bmi.n	8007382 <_fflush_r+0x42>
 8007376:	89a3      	ldrh	r3, [r4, #12]
 8007378:	059b      	lsls	r3, r3, #22
 800737a:	d402      	bmi.n	8007382 <_fflush_r+0x42>
 800737c:	6da0      	ldr	r0, [r4, #88]	; 0x58
 800737e:	f000 fb86 	bl	8007a8e <__retarget_lock_release_recursive>
 8007382:	4628      	mov	r0, r5
 8007384:	bd38      	pop	{r3, r4, r5, pc}
 8007386:	4605      	mov	r5, r0
 8007388:	e7fb      	b.n	8007382 <_fflush_r+0x42>
	...

0800738c <std>:
 800738c:	2300      	movs	r3, #0
 800738e:	b510      	push	{r4, lr}
 8007390:	4604      	mov	r4, r0
 8007392:	e9c0 3300 	strd	r3, r3, [r0]
 8007396:	e9c0 3304 	strd	r3, r3, [r0, #16]
 800739a:	6083      	str	r3, [r0, #8]
 800739c:	8181      	strh	r1, [r0, #12]
 800739e:	6643      	str	r3, [r0, #100]	; 0x64
 80073a0:	81c2      	strh	r2, [r0, #14]
 80073a2:	6183      	str	r3, [r0, #24]
 80073a4:	4619      	mov	r1, r3
 80073a6:	2208      	movs	r2, #8
 80073a8:	305c      	adds	r0, #92	; 0x5c
 80073aa:	f000 fb11 	bl	80079d0 <memset>
 80073ae:	4b0d      	ldr	r3, [pc, #52]	; (80073e4 <std+0x58>)
 80073b0:	61e4      	str	r4, [r4, #28]
 80073b2:	6223      	str	r3, [r4, #32]
 80073b4:	4b0c      	ldr	r3, [pc, #48]	; (80073e8 <std+0x5c>)
 80073b6:	6263      	str	r3, [r4, #36]	; 0x24
 80073b8:	4b0c      	ldr	r3, [pc, #48]	; (80073ec <std+0x60>)
 80073ba:	62a3      	str	r3, [r4, #40]	; 0x28
 80073bc:	4b0c      	ldr	r3, [pc, #48]	; (80073f0 <std+0x64>)
 80073be:	62e3      	str	r3, [r4, #44]	; 0x2c
 80073c0:	4b0c      	ldr	r3, [pc, #48]	; (80073f4 <std+0x68>)
 80073c2:	429c      	cmp	r4, r3
 80073c4:	d006      	beq.n	80073d4 <std+0x48>
 80073c6:	f103 0268 	add.w	r2, r3, #104	; 0x68
 80073ca:	4294      	cmp	r4, r2
 80073cc:	d002      	beq.n	80073d4 <std+0x48>
 80073ce:	33d0      	adds	r3, #208	; 0xd0
 80073d0:	429c      	cmp	r4, r3
 80073d2:	d105      	bne.n	80073e0 <std+0x54>
 80073d4:	f104 0058 	add.w	r0, r4, #88	; 0x58
 80073d8:	e8bd 4010 	ldmia.w	sp!, {r4, lr}
 80073dc:	f000 bb54 	b.w	8007a88 <__retarget_lock_init_recursive>
 80073e0:	bd10      	pop	{r4, pc}
 80073e2:	bf00      	nop
 80073e4:	0800a929 	.word	0x0800a929
 80073e8:	0800a94b 	.word	0x0800a94b
 80073ec:	0800a983 	.word	0x0800a983
 80073f0:	0800a9a7 	.word	0x0800a9a7
 80073f4:	20000dc4 	.word	0x20000dc4

080073f8 <stdio_exit_handler>:
 80073f8:	4a02      	ldr	r2, [pc, #8]	; (8007404 <stdio_exit_handler+0xc>)
 80073fa:	4903      	ldr	r1, [pc, #12]	; (8007408 <stdio_exit_handler+0x10>)
 80073fc:	4803      	ldr	r0, [pc, #12]	; (800740c <stdio_exit_handler+0x14>)
 80073fe:	f000 b9ed 	b.w	80077dc <_fwalk_sglue>
 8007402:	bf00      	nop
 8007404:	20000444 	.word	0x20000444
 8007408:	0800a525 	.word	0x0800a525
 800740c:	200005c0 	.word	0x200005c0

08007410 <cleanup_stdio>:
 8007410:	6841      	ldr	r1, [r0, #4]
 8007412:	4b0c      	ldr	r3, [pc, #48]	; (8007444 <cleanup_stdio+0x34>)
 8007414:	b510      	push	{r4, lr}
 8007416:	4299      	cmp	r1, r3
 8007418:	4604      	mov	r4, r0
 800741a:	d001      	beq.n	8007420 <cleanup_stdio+0x10>
 800741c:	f003 f882 	bl	800a524 <_fclose_r>
 8007420:	68a1      	ldr	r1, [r4, #8]
 8007422:	4b09      	ldr	r3, [pc, #36]	; (8007448 <cleanup_stdio+0x38>)
 8007424:	4299      	cmp	r1, r3
 8007426:	d002      	beq.n	800742e <cleanup_stdio+0x1e>
 8007428:	4620      	mov	r0, r4
 800742a:	f003 f87b 	bl	800a524 <_fclose_r>
 800742e:	68e1      	ldr	r1, [r4, #12]
 8007430:	4b06      	ldr	r3, [pc, #24]	; (800744c <cleanup_stdio+0x3c>)
 8007432:	4299      	cmp	r1, r3
 8007434:	d004      	beq.n	8007440 <cleanup_stdio+0x30>
 8007436:	4620      	mov	r0, r4
 8007438:	e8bd 4010 	ldmia.w	sp!, {r4, lr}
 800743c:	f003 b872 	b.w	800a524 <_fclose_r>
 8007440:	bd10      	pop	{r4, pc}
 8007442:	bf00      	nop
 8007444:	20000dc4 	.word	0x20000dc4
 8007448:	20000e2c 	.word	0x20000e2c
 800744c:	20000e94 	.word	0x20000e94

08007450 <global_stdio_init.part.0>:
 8007450:	b510      	push	{r4, lr}
 8007452:	4b0b      	ldr	r3, [pc, #44]	; (8007480 <global_stdio_init.part.0+0x30>)
 8007454:	4c0b      	ldr	r4, [pc, #44]	; (8007484 <global_stdio_init.part.0+0x34>)
 8007456:	4a0c      	ldr	r2, [pc, #48]	; (8007488 <global_stdio_init.part.0+0x38>)
 8007458:	4620      	mov	r0, r4
 800745a:	601a      	str	r2, [r3, #0]
 800745c:	2104      	movs	r1, #4
 800745e:	2200      	movs	r2, #0
 8007460:	f7ff ff94 	bl	800738c <std>
 8007464:	f104 0068 	add.w	r0, r4, #104	; 0x68
 8007468:	2201      	movs	r2, #1
 800746a:	2109      	movs	r1, #9
 800746c:	f7ff ff8e 	bl	800738c <std>
 8007470:	f104 00d0 	add.w	r0, r4, #208	; 0xd0
 8007474:	2202      	movs	r2, #2
 8007476:	e8bd 4010 	ldmia.w	sp!, {r4, lr}
 800747a:	2112      	movs	r1, #18
 800747c:	f7ff bf86 	b.w	800738c <std>
 8007480:	20000efc 	.word	0x20000efc
 8007484:	20000dc4 	.word	0x20000dc4
 8007488:	080073f9 	.word	0x080073f9

0800748c <__sfp_lock_acquire>:
 800748c:	4801      	ldr	r0, [pc, #4]	; (8007494 <__sfp_lock_acquire+0x8>)
 800748e:	f000 bafd 	b.w	8007a8c <__retarget_lock_acquire_recursive>
 8007492:	bf00      	nop
 8007494:	20000f02 	.word	0x20000f02

08007498 <__sfp_lock_release>:
 8007498:	4801      	ldr	r0, [pc, #4]	; (80074a0 <__sfp_lock_release+0x8>)
 800749a:	f000 baf8 	b.w	8007a8e <__retarget_lock_release_recursive>
 800749e:	bf00      	nop
 80074a0:	20000f02 	.word	0x20000f02

080074a4 <__sinit>:
 80074a4:	b510      	push	{r4, lr}
 80074a6:	4604      	mov	r4, r0
 80074a8:	f7ff fff0 	bl	800748c <__sfp_lock_acquire>
 80074ac:	6b63      	ldr	r3, [r4, #52]	; 0x34
 80074ae:	b11b      	cbz	r3, 80074b8 <__sinit+0x14>
 80074b0:	e8bd 4010 	ldmia.w	sp!, {r4, lr}
 80074b4:	f7ff bff0 	b.w	8007498 <__sfp_lock_release>
 80074b8:	4b04      	ldr	r3, [pc, #16]	; (80074cc <__sinit+0x28>)
 80074ba:	6363      	str	r3, [r4, #52]	; 0x34
 80074bc:	4b04      	ldr	r3, [pc, #16]	; (80074d0 <__sinit+0x2c>)
 80074be:	681b      	ldr	r3, [r3, #0]
 80074c0:	2b00      	cmp	r3, #0
 80074c2:	d1f5      	bne.n	80074b0 <__sinit+0xc>
 80074c4:	f7ff ffc4 	bl	8007450 <global_stdio_init.part.0>
 80074c8:	e7f2      	b.n	80074b0 <__sinit+0xc>
 80074ca:	bf00      	nop
 80074cc:	08007411 	.word	0x08007411
 80074d0:	20000efc 	.word	0x20000efc

080074d4 <_vsnprintf_r>:
 80074d4:	b530      	push	{r4, r5, lr}
 80074d6:	4614      	mov	r4, r2
 80074d8:	2c00      	cmp	r4, #0
 80074da:	4605      	mov	r5, r0
 80074dc:	461a      	mov	r2, r3
 80074de:	b09b      	sub	sp, #108	; 0x6c
 80074e0:	da05      	bge.n	80074ee <_vsnprintf_r+0x1a>
 80074e2:	238b      	movs	r3, #139	; 0x8b
 80074e4:	6003      	str	r3, [r0, #0]
 80074e6:	f04f 30ff 	mov.w	r0, #4294967295	; 0xffffffff
 80074ea:	b01b      	add	sp, #108	; 0x6c
 80074ec:	bd30      	pop	{r4, r5, pc}
 80074ee:	f44f 7302 	mov.w	r3, #520	; 0x208
 80074f2:	f8ad 300c 	strh.w	r3, [sp, #12]
 80074f6:	bf0c      	ite	eq
 80074f8:	4623      	moveq	r3, r4
 80074fa:	f104 33ff 	addne.w	r3, r4, #4294967295	; 0xffffffff
 80074fe:	9302      	str	r3, [sp, #8]
 8007500:	9305      	str	r3, [sp, #20]
 8007502:	f64f 73ff 	movw	r3, #65535	; 0xffff
 8007506:	9100      	str	r1, [sp, #0]
 8007508:	9104      	str	r1, [sp, #16]
 800750a:	f8ad 300e 	strh.w	r3, [sp, #14]
 800750e:	4669      	mov	r1, sp
 8007510:	9b1e      	ldr	r3, [sp, #120]	; 0x78
 8007512:	f001 faab 	bl	8008a6c <_svfprintf_r>
 8007516:	1c43      	adds	r3, r0, #1
 8007518:	bfbc      	itt	lt
 800751a:	238b      	movlt	r3, #139	; 0x8b
 800751c:	602b      	strlt	r3, [r5, #0]
 800751e:	2c00      	cmp	r4, #0
 8007520:	d0e3      	beq.n	80074ea <_vsnprintf_r+0x16>
 8007522:	2200      	movs	r2, #0
 8007524:	9b00      	ldr	r3, [sp, #0]
 8007526:	701a      	strb	r2, [r3, #0]
 8007528:	e7df      	b.n	80074ea <_vsnprintf_r+0x16>
	...

0800752c <vsnprintf>:
 800752c:	b507      	push	{r0, r1, r2, lr}
 800752e:	9300      	str	r3, [sp, #0]
 8007530:	4613      	mov	r3, r2
 8007532:	460a      	mov	r2, r1
 8007534:	4601      	mov	r1, r0
 8007536:	4803      	ldr	r0, [pc, #12]	; (8007544 <vsnprintf+0x18>)
 8007538:	6800      	ldr	r0, [r0, #0]
 800753a:	f7ff ffcb 	bl	80074d4 <_vsnprintf_r>
 800753e:	b003      	add	sp, #12
 8007540:	f85d fb04 	ldr.w	pc, [sp], #4
 8007544:	200006e0 	.word	0x200006e0

08007548 <__sfvwrite_r>:
 8007548:	6893      	ldr	r3, [r2, #8]
 800754a:	e92d 4ff7 	stmdb	sp!, {r0, r1, r2, r4, r5, r6, r7, r8, r9, sl, fp, lr}
 800754e:	4606      	mov	r6, r0
 8007550:	460c      	mov	r4, r1
 8007552:	4691      	mov	r9, r2
 8007554:	b91b      	cbnz	r3, 800755e <__sfvwrite_r+0x16>
 8007556:	2000      	movs	r0, #0
 8007558:	b003      	add	sp, #12
 800755a:	e8bd 8ff0 	ldmia.w	sp!, {r4, r5, r6, r7, r8, r9, sl, fp, pc}
 800755e:	898b      	ldrh	r3, [r1, #12]
 8007560:	0718      	lsls	r0, r3, #28
 8007562:	d54f      	bpl.n	8007604 <__sfvwrite_r+0xbc>
 8007564:	690b      	ldr	r3, [r1, #16]
 8007566:	2b00      	cmp	r3, #0
 8007568:	d04c      	beq.n	8007604 <__sfvwrite_r+0xbc>
 800756a:	89a3      	ldrh	r3, [r4, #12]
 800756c:	f8d9 8000 	ldr.w	r8, [r9]
 8007570:	f013 0702 	ands.w	r7, r3, #2
 8007574:	d16b      	bne.n	800764e <__sfvwrite_r+0x106>
 8007576:	f013 0301 	ands.w	r3, r3, #1
 800757a:	f000 809b 	beq.w	80076b4 <__sfvwrite_r+0x16c>
 800757e:	4638      	mov	r0, r7
 8007580:	46ba      	mov	sl, r7
 8007582:	46bb      	mov	fp, r7
 8007584:	f1bb 0f00 	cmp.w	fp, #0
 8007588:	f000 8102 	beq.w	8007790 <__sfvwrite_r+0x248>
 800758c:	b950      	cbnz	r0, 80075a4 <__sfvwrite_r+0x5c>
 800758e:	465a      	mov	r2, fp
 8007590:	210a      	movs	r1, #10
 8007592:	4650      	mov	r0, sl
 8007594:	f000 fa7c 	bl	8007a90 <memchr>
 8007598:	2800      	cmp	r0, #0
 800759a:	f000 80ff 	beq.w	800779c <__sfvwrite_r+0x254>
 800759e:	3001      	adds	r0, #1
 80075a0:	eba0 070a 	sub.w	r7, r0, sl
 80075a4:	6820      	ldr	r0, [r4, #0]
 80075a6:	6921      	ldr	r1, [r4, #16]
 80075a8:	455f      	cmp	r7, fp
 80075aa:	463a      	mov	r2, r7
 80075ac:	bf28      	it	cs
 80075ae:	465a      	movcs	r2, fp
 80075b0:	4288      	cmp	r0, r1
 80075b2:	68a5      	ldr	r5, [r4, #8]
 80075b4:	6963      	ldr	r3, [r4, #20]
 80075b6:	f240 80f4 	bls.w	80077a2 <__sfvwrite_r+0x25a>
 80075ba:	441d      	add	r5, r3
 80075bc:	42aa      	cmp	r2, r5
 80075be:	f340 80f0 	ble.w	80077a2 <__sfvwrite_r+0x25a>
 80075c2:	4651      	mov	r1, sl
 80075c4:	462a      	mov	r2, r5
 80075c6:	f000 f9e9 	bl	800799c <memmove>
 80075ca:	6823      	ldr	r3, [r4, #0]
 80075cc:	4621      	mov	r1, r4
 80075ce:	442b      	add	r3, r5
 80075d0:	4630      	mov	r0, r6
 80075d2:	6023      	str	r3, [r4, #0]
 80075d4:	f7ff feb4 	bl	8007340 <_fflush_r>
 80075d8:	2800      	cmp	r0, #0
 80075da:	d166      	bne.n	80076aa <__sfvwrite_r+0x162>
 80075dc:	1b7f      	subs	r7, r7, r5
 80075de:	f040 80f8 	bne.w	80077d2 <__sfvwrite_r+0x28a>
 80075e2:	4621      	mov	r1, r4
 80075e4:	4630      	mov	r0, r6
 80075e6:	f7ff feab 	bl	8007340 <_fflush_r>
 80075ea:	2800      	cmp	r0, #0
 80075ec:	d15d      	bne.n	80076aa <__sfvwrite_r+0x162>
 80075ee:	f8d9 3008 	ldr.w	r3, [r9, #8]
 80075f2:	44aa      	add	sl, r5
 80075f4:	1b5b      	subs	r3, r3, r5
 80075f6:	ebab 0b05 	sub.w	fp, fp, r5
 80075fa:	f8c9 3008 	str.w	r3, [r9, #8]
 80075fe:	2b00      	cmp	r3, #0
 8007600:	d1c0      	bne.n	8007584 <__sfvwrite_r+0x3c>
 8007602:	e7a8      	b.n	8007556 <__sfvwrite_r+0xe>
 8007604:	4621      	mov	r1, r4
 8007606:	4630      	mov	r0, r6
 8007608:	f000 f906 	bl	8007818 <__swsetup_r>
 800760c:	2800      	cmp	r0, #0
 800760e:	d0ac      	beq.n	800756a <__sfvwrite_r+0x22>
 8007610:	f04f 30ff 	mov.w	r0, #4294967295	; 0xffffffff
 8007614:	e7a0      	b.n	8007558 <__sfvwrite_r+0x10>
 8007616:	e9d8 a500 	ldrd	sl, r5, [r8]
 800761a:	f108 0808 	add.w	r8, r8, #8
 800761e:	f8d4 b024 	ldr.w	fp, [r4, #36]	; 0x24
 8007622:	69e1      	ldr	r1, [r4, #28]
 8007624:	2d00      	cmp	r5, #0
 8007626:	d0f6      	beq.n	8007616 <__sfvwrite_r+0xce>
 8007628:	42bd      	cmp	r5, r7
 800762a:	462b      	mov	r3, r5
 800762c:	4652      	mov	r2, sl
 800762e:	bf28      	it	cs
 8007630:	463b      	movcs	r3, r7
 8007632:	4630      	mov	r0, r6
 8007634:	47d8      	blx	fp
 8007636:	2800      	cmp	r0, #0
 8007638:	dd37      	ble.n	80076aa <__sfvwrite_r+0x162>
 800763a:	f8d9 3008 	ldr.w	r3, [r9, #8]
 800763e:	4482      	add	sl, r0
 8007640:	1a1b      	subs	r3, r3, r0
 8007642:	1a2d      	subs	r5, r5, r0
 8007644:	f8c9 3008 	str.w	r3, [r9, #8]
 8007648:	2b00      	cmp	r3, #0
 800764a:	d1e8      	bne.n	800761e <__sfvwrite_r+0xd6>
 800764c:	e783      	b.n	8007556 <__sfvwrite_r+0xe>
 800764e:	f04f 0a00 	mov.w	sl, #0
 8007652:	4f61      	ldr	r7, [pc, #388]	; (80077d8 <__sfvwrite_r+0x290>)
 8007654:	4655      	mov	r5, sl
 8007656:	e7e2      	b.n	800761e <__sfvwrite_r+0xd6>
 8007658:	e9d8 7a00 	ldrd	r7, sl, [r8]
 800765c:	f108 0808 	add.w	r8, r8, #8
 8007660:	6820      	ldr	r0, [r4, #0]
 8007662:	68a2      	ldr	r2, [r4, #8]
 8007664:	f1ba 0f00 	cmp.w	sl, #0
 8007668:	d0f6      	beq.n	8007658 <__sfvwrite_r+0x110>
 800766a:	89a3      	ldrh	r3, [r4, #12]
 800766c:	0599      	lsls	r1, r3, #22
 800766e:	d563      	bpl.n	8007738 <__sfvwrite_r+0x1f0>
 8007670:	4552      	cmp	r2, sl
 8007672:	d836      	bhi.n	80076e2 <__sfvwrite_r+0x19a>
 8007674:	f413 6f90 	tst.w	r3, #1152	; 0x480
 8007678:	d033      	beq.n	80076e2 <__sfvwrite_r+0x19a>
 800767a:	6921      	ldr	r1, [r4, #16]
 800767c:	6965      	ldr	r5, [r4, #20]
 800767e:	eba0 0b01 	sub.w	fp, r0, r1
 8007682:	eb05 0545 	add.w	r5, r5, r5, lsl #1
 8007686:	eb05 75d5 	add.w	r5, r5, r5, lsr #31
 800768a:	f10b 0201 	add.w	r2, fp, #1
 800768e:	106d      	asrs	r5, r5, #1
 8007690:	4452      	add	r2, sl
 8007692:	4295      	cmp	r5, r2
 8007694:	bf38      	it	cc
 8007696:	4615      	movcc	r5, r2
 8007698:	055b      	lsls	r3, r3, #21
 800769a:	d53d      	bpl.n	8007718 <__sfvwrite_r+0x1d0>
 800769c:	4629      	mov	r1, r5
 800769e:	4630      	mov	r0, r6
 80076a0:	f7fd fb5a 	bl	8004d58 <_malloc_r>
 80076a4:	b948      	cbnz	r0, 80076ba <__sfvwrite_r+0x172>
 80076a6:	230c      	movs	r3, #12
 80076a8:	6033      	str	r3, [r6, #0]
 80076aa:	89a3      	ldrh	r3, [r4, #12]
 80076ac:	f043 0340 	orr.w	r3, r3, #64	; 0x40
 80076b0:	81a3      	strh	r3, [r4, #12]
 80076b2:	e7ad      	b.n	8007610 <__sfvwrite_r+0xc8>
 80076b4:	461f      	mov	r7, r3
 80076b6:	469a      	mov	sl, r3
 80076b8:	e7d2      	b.n	8007660 <__sfvwrite_r+0x118>
 80076ba:	465a      	mov	r2, fp
 80076bc:	6921      	ldr	r1, [r4, #16]
 80076be:	9001      	str	r0, [sp, #4]
 80076c0:	f000 f9f4 	bl	8007aac <memcpy>
 80076c4:	89a2      	ldrh	r2, [r4, #12]
 80076c6:	9b01      	ldr	r3, [sp, #4]
 80076c8:	f422 6290 	bic.w	r2, r2, #1152	; 0x480
 80076cc:	f042 0280 	orr.w	r2, r2, #128	; 0x80
 80076d0:	81a2      	strh	r2, [r4, #12]
 80076d2:	4652      	mov	r2, sl
 80076d4:	6123      	str	r3, [r4, #16]
 80076d6:	6165      	str	r5, [r4, #20]
 80076d8:	445b      	add	r3, fp
 80076da:	eba5 050b 	sub.w	r5, r5, fp
 80076de:	6023      	str	r3, [r4, #0]
 80076e0:	60a5      	str	r5, [r4, #8]
 80076e2:	4552      	cmp	r2, sl
 80076e4:	bf28      	it	cs
 80076e6:	4652      	movcs	r2, sl
 80076e8:	4655      	mov	r5, sl
 80076ea:	4639      	mov	r1, r7
 80076ec:	6820      	ldr	r0, [r4, #0]
 80076ee:	9201      	str	r2, [sp, #4]
 80076f0:	f000 f954 	bl	800799c <memmove>
 80076f4:	68a3      	ldr	r3, [r4, #8]
 80076f6:	9a01      	ldr	r2, [sp, #4]
 80076f8:	1a9b      	subs	r3, r3, r2
 80076fa:	60a3      	str	r3, [r4, #8]
 80076fc:	6823      	ldr	r3, [r4, #0]
 80076fe:	4413      	add	r3, r2
 8007700:	6023      	str	r3, [r4, #0]
 8007702:	f8d9 3008 	ldr.w	r3, [r9, #8]
 8007706:	442f      	add	r7, r5
 8007708:	1b5b      	subs	r3, r3, r5
 800770a:	ebaa 0a05 	sub.w	sl, sl, r5
 800770e:	f8c9 3008 	str.w	r3, [r9, #8]
 8007712:	2b00      	cmp	r3, #0
 8007714:	d1a4      	bne.n	8007660 <__sfvwrite_r+0x118>
 8007716:	e71e      	b.n	8007556 <__sfvwrite_r+0xe>
 8007718:	462a      	mov	r2, r5
 800771a:	4630      	mov	r0, r6
 800771c:	f002 ff5a 	bl	800a5d4 <_realloc_r>
 8007720:	4603      	mov	r3, r0
 8007722:	2800      	cmp	r0, #0
 8007724:	d1d5      	bne.n	80076d2 <__sfvwrite_r+0x18a>
 8007726:	4630      	mov	r0, r6
 8007728:	6921      	ldr	r1, [r4, #16]
 800772a:	f001 f8cd 	bl	80088c8 <_free_r>
 800772e:	89a3      	ldrh	r3, [r4, #12]
 8007730:	f023 0380 	bic.w	r3, r3, #128	; 0x80
 8007734:	81a3      	strh	r3, [r4, #12]
 8007736:	e7b6      	b.n	80076a6 <__sfvwrite_r+0x15e>
 8007738:	6923      	ldr	r3, [r4, #16]
 800773a:	4283      	cmp	r3, r0
 800773c:	d302      	bcc.n	8007744 <__sfvwrite_r+0x1fc>
 800773e:	6961      	ldr	r1, [r4, #20]
 8007740:	4551      	cmp	r1, sl
 8007742:	d915      	bls.n	8007770 <__sfvwrite_r+0x228>
 8007744:	4552      	cmp	r2, sl
 8007746:	bf28      	it	cs
 8007748:	4652      	movcs	r2, sl
 800774a:	4615      	mov	r5, r2
 800774c:	4639      	mov	r1, r7
 800774e:	f000 f925 	bl	800799c <memmove>
 8007752:	68a3      	ldr	r3, [r4, #8]
 8007754:	6822      	ldr	r2, [r4, #0]
 8007756:	1b5b      	subs	r3, r3, r5
 8007758:	442a      	add	r2, r5
 800775a:	60a3      	str	r3, [r4, #8]
 800775c:	6022      	str	r2, [r4, #0]
 800775e:	2b00      	cmp	r3, #0
 8007760:	d1cf      	bne.n	8007702 <__sfvwrite_r+0x1ba>
 8007762:	4621      	mov	r1, r4
 8007764:	4630      	mov	r0, r6
 8007766:	f7ff fdeb 	bl	8007340 <_fflush_r>
 800776a:	2800      	cmp	r0, #0
 800776c:	d0c9      	beq.n	8007702 <__sfvwrite_r+0x1ba>
 800776e:	e79c      	b.n	80076aa <__sfvwrite_r+0x162>
 8007770:	f06f 4300 	mvn.w	r3, #2147483648	; 0x80000000
 8007774:	459a      	cmp	sl, r3
 8007776:	bf38      	it	cc
 8007778:	4653      	movcc	r3, sl
 800777a:	fb93 f3f1 	sdiv	r3, r3, r1
 800777e:	6a65      	ldr	r5, [r4, #36]	; 0x24
 8007780:	434b      	muls	r3, r1
 8007782:	463a      	mov	r2, r7
 8007784:	4630      	mov	r0, r6
 8007786:	69e1      	ldr	r1, [r4, #28]
 8007788:	47a8      	blx	r5
 800778a:	1e05      	subs	r5, r0, #0
 800778c:	dcb9      	bgt.n	8007702 <__sfvwrite_r+0x1ba>
 800778e:	e78c      	b.n	80076aa <__sfvwrite_r+0x162>
 8007790:	e9d8 ab00 	ldrd	sl, fp, [r8]
 8007794:	2000      	movs	r0, #0
 8007796:	f108 0808 	add.w	r8, r8, #8
 800779a:	e6f3      	b.n	8007584 <__sfvwrite_r+0x3c>
 800779c:	f10b 0701 	add.w	r7, fp, #1
 80077a0:	e700      	b.n	80075a4 <__sfvwrite_r+0x5c>
 80077a2:	4293      	cmp	r3, r2
 80077a4:	dc08      	bgt.n	80077b8 <__sfvwrite_r+0x270>
 80077a6:	6a65      	ldr	r5, [r4, #36]	; 0x24
 80077a8:	4652      	mov	r2, sl
 80077aa:	4630      	mov	r0, r6
 80077ac:	69e1      	ldr	r1, [r4, #28]
 80077ae:	47a8      	blx	r5
 80077b0:	1e05      	subs	r5, r0, #0
 80077b2:	f73f af13 	bgt.w	80075dc <__sfvwrite_r+0x94>
 80077b6:	e778      	b.n	80076aa <__sfvwrite_r+0x162>
 80077b8:	4651      	mov	r1, sl
 80077ba:	9201      	str	r2, [sp, #4]
 80077bc:	f000 f8ee 	bl	800799c <memmove>
 80077c0:	9a01      	ldr	r2, [sp, #4]
 80077c2:	68a3      	ldr	r3, [r4, #8]
 80077c4:	4615      	mov	r5, r2
 80077c6:	1a9b      	subs	r3, r3, r2
 80077c8:	60a3      	str	r3, [r4, #8]
 80077ca:	6823      	ldr	r3, [r4, #0]
 80077cc:	4413      	add	r3, r2
 80077ce:	6023      	str	r3, [r4, #0]
 80077d0:	e704      	b.n	80075dc <__sfvwrite_r+0x94>
 80077d2:	2001      	movs	r0, #1
 80077d4:	e70b      	b.n	80075ee <__sfvwrite_r+0xa6>
 80077d6:	bf00      	nop
 80077d8:	7ffffc00 	.word	0x7ffffc00

080077dc <_fwalk_sglue>:
 80077dc:	e92d 43f8 	stmdb	sp!, {r3, r4, r5, r6, r7, r8, r9, lr}
 80077e0:	4607      	mov	r7, r0
 80077e2:	4688      	mov	r8, r1
 80077e4:	4614      	mov	r4, r2
 80077e6:	2600      	movs	r6, #0
 80077e8:	e9d4 9501 	ldrd	r9, r5, [r4, #4]
 80077ec:	f1b9 0901 	subs.w	r9, r9, #1
 80077f0:	d505      	bpl.n	80077fe <_fwalk_sglue+0x22>
 80077f2:	6824      	ldr	r4, [r4, #0]
 80077f4:	2c00      	cmp	r4, #0
 80077f6:	d1f7      	bne.n	80077e8 <_fwalk_sglue+0xc>
 80077f8:	4630      	mov	r0, r6
 80077fa:	e8bd 83f8 	ldmia.w	sp!, {r3, r4, r5, r6, r7, r8, r9, pc}
 80077fe:	89ab      	ldrh	r3, [r5, #12]
 8007800:	2b01      	cmp	r3, #1
 8007802:	d907      	bls.n	8007814 <_fwalk_sglue+0x38>
 8007804:	f9b5 300e 	ldrsh.w	r3, [r5, #14]
 8007808:	3301      	adds	r3, #1
 800780a:	d003      	beq.n	8007814 <_fwalk_sglue+0x38>
 800780c:	4629      	mov	r1, r5
 800780e:	4638      	mov	r0, r7
 8007810:	47c0      	blx	r8
 8007812:	4306      	orrs	r6, r0
 8007814:	3568      	adds	r5, #104	; 0x68
 8007816:	e7e9      	b.n	80077ec <_fwalk_sglue+0x10>

08007818 <__swsetup_r>:
 8007818:	b538      	push	{r3, r4, r5, lr}
 800781a:	4b2a      	ldr	r3, [pc, #168]	; (80078c4 <__swsetup_r+0xac>)
 800781c:	4605      	mov	r5, r0
 800781e:	6818      	ldr	r0, [r3, #0]
 8007820:	460c      	mov	r4, r1
 8007822:	b118      	cbz	r0, 800782c <__swsetup_r+0x14>
 8007824:	6b43      	ldr	r3, [r0, #52]	; 0x34
 8007826:	b90b      	cbnz	r3, 800782c <__swsetup_r+0x14>
 8007828:	f7ff fe3c 	bl	80074a4 <__sinit>
 800782c:	89a3      	ldrh	r3, [r4, #12]
 800782e:	f9b4 200c 	ldrsh.w	r2, [r4, #12]
 8007832:	0718      	lsls	r0, r3, #28
 8007834:	d422      	bmi.n	800787c <__swsetup_r+0x64>
 8007836:	06d9      	lsls	r1, r3, #27
 8007838:	d407      	bmi.n	800784a <__swsetup_r+0x32>
 800783a:	2309      	movs	r3, #9
 800783c:	602b      	str	r3, [r5, #0]
 800783e:	f042 0340 	orr.w	r3, r2, #64	; 0x40
 8007842:	f04f 30ff 	mov.w	r0, #4294967295	; 0xffffffff
 8007846:	81a3      	strh	r3, [r4, #12]
 8007848:	e034      	b.n	80078b4 <__swsetup_r+0x9c>
 800784a:	0758      	lsls	r0, r3, #29
 800784c:	d512      	bpl.n	8007874 <__swsetup_r+0x5c>
 800784e:	6b21      	ldr	r1, [r4, #48]	; 0x30
 8007850:	b141      	cbz	r1, 8007864 <__swsetup_r+0x4c>
 8007852:	f104 0340 	add.w	r3, r4, #64	; 0x40
 8007856:	4299      	cmp	r1, r3
 8007858:	d002      	beq.n	8007860 <__swsetup_r+0x48>
 800785a:	4628      	mov	r0, r5
 800785c:	f001 f834 	bl	80088c8 <_free_r>
 8007860:	2300      	movs	r3, #0
 8007862:	6323      	str	r3, [r4, #48]	; 0x30
 8007864:	89a3      	ldrh	r3, [r4, #12]
 8007866:	f023 0324 	bic.w	r3, r3, #36	; 0x24
 800786a:	81a3      	strh	r3, [r4, #12]
 800786c:	2300      	movs	r3, #0
 800786e:	6063      	str	r3, [r4, #4]
 8007870:	6923      	ldr	r3, [r4, #16]
 8007872:	6023      	str	r3, [r4, #0]
 8007874:	89a3      	ldrh	r3, [r4, #12]
 8007876:	f043 0308 	orr.w	r3, r3, #8
 800787a:	81a3      	strh	r3, [r4, #12]
 800787c:	6923      	ldr	r3, [r4, #16]
 800787e:	b94b      	cbnz	r3, 8007894 <__swsetup_r+0x7c>
 8007880:	89a3      	ldrh	r3, [r4, #12]
 8007882:	f403 7320 	and.w	r3, r3, #640	; 0x280
 8007886:	f5b3 7f00 	cmp.w	r3, #512	; 0x200
 800788a:	d003      	beq.n	8007894 <__swsetup_r+0x7c>
 800788c:	4621      	mov	r1, r4
 800788e:	4628      	mov	r0, r5
 8007890:	f002 fae2 	bl	8009e58 <__smakebuf_r>
 8007894:	89a0      	ldrh	r0, [r4, #12]
 8007896:	f9b4 200c 	ldrsh.w	r2, [r4, #12]
 800789a:	f010 0301 	ands.w	r3, r0, #1
 800789e:	d00a      	beq.n	80078b6 <__swsetup_r+0x9e>
 80078a0:	2300      	movs	r3, #0
 80078a2:	60a3      	str	r3, [r4, #8]
 80078a4:	6963      	ldr	r3, [r4, #20]
 80078a6:	425b      	negs	r3, r3
 80078a8:	61a3      	str	r3, [r4, #24]
 80078aa:	6923      	ldr	r3, [r4, #16]
 80078ac:	b943      	cbnz	r3, 80078c0 <__swsetup_r+0xa8>
 80078ae:	f010 0080 	ands.w	r0, r0, #128	; 0x80
 80078b2:	d1c4      	bne.n	800783e <__swsetup_r+0x26>
 80078b4:	bd38      	pop	{r3, r4, r5, pc}
 80078b6:	0781      	lsls	r1, r0, #30
 80078b8:	bf58      	it	pl
 80078ba:	6963      	ldrpl	r3, [r4, #20]
 80078bc:	60a3      	str	r3, [r4, #8]
 80078be:	e7f4      	b.n	80078aa <__swsetup_r+0x92>
 80078c0:	2000      	movs	r0, #0
 80078c2:	e7f7      	b.n	80078b4 <__swsetup_r+0x9c>
 80078c4:	200006e0 	.word	0x200006e0

080078c8 <__fputwc>:
 80078c8:	e92d 43f7 	stmdb	sp!, {r0, r1, r2, r4, r5, r6, r7, r8, r9, lr}
 80078cc:	4680      	mov	r8, r0
 80078ce:	460e      	mov	r6, r1
 80078d0:	4615      	mov	r5, r2
 80078d2:	f000 f899 	bl	8007a08 <__locale_mb_cur_max>
 80078d6:	2801      	cmp	r0, #1
 80078d8:	4604      	mov	r4, r0
 80078da:	d11b      	bne.n	8007914 <__fputwc+0x4c>
 80078dc:	1e73      	subs	r3, r6, #1
 80078de:	2bfe      	cmp	r3, #254	; 0xfe
 80078e0:	d818      	bhi.n	8007914 <__fputwc+0x4c>
 80078e2:	f88d 6004 	strb.w	r6, [sp, #4]
 80078e6:	2700      	movs	r7, #0
 80078e8:	f10d 0904 	add.w	r9, sp, #4
 80078ec:	42a7      	cmp	r7, r4
 80078ee:	d020      	beq.n	8007932 <__fputwc+0x6a>
 80078f0:	68ab      	ldr	r3, [r5, #8]
 80078f2:	f817 1009 	ldrb.w	r1, [r7, r9]
 80078f6:	3b01      	subs	r3, #1
 80078f8:	2b00      	cmp	r3, #0
 80078fa:	60ab      	str	r3, [r5, #8]
 80078fc:	da04      	bge.n	8007908 <__fputwc+0x40>
 80078fe:	69aa      	ldr	r2, [r5, #24]
 8007900:	4293      	cmp	r3, r2
 8007902:	db1a      	blt.n	800793a <__fputwc+0x72>
 8007904:	290a      	cmp	r1, #10
 8007906:	d018      	beq.n	800793a <__fputwc+0x72>
 8007908:	682b      	ldr	r3, [r5, #0]
 800790a:	1c5a      	adds	r2, r3, #1
 800790c:	602a      	str	r2, [r5, #0]
 800790e:	7019      	strb	r1, [r3, #0]
 8007910:	3701      	adds	r7, #1
 8007912:	e7eb      	b.n	80078ec <__fputwc+0x24>
 8007914:	4632      	mov	r2, r6
 8007916:	4640      	mov	r0, r8
 8007918:	f105 035c 	add.w	r3, r5, #92	; 0x5c
 800791c:	a901      	add	r1, sp, #4
 800791e:	f000 f8d3 	bl	8007ac8 <_wcrtomb_r>
 8007922:	1c42      	adds	r2, r0, #1
 8007924:	4604      	mov	r4, r0
 8007926:	d1de      	bne.n	80078e6 <__fputwc+0x1e>
 8007928:	4606      	mov	r6, r0
 800792a:	89ab      	ldrh	r3, [r5, #12]
 800792c:	f043 0340 	orr.w	r3, r3, #64	; 0x40
 8007930:	81ab      	strh	r3, [r5, #12]
 8007932:	4630      	mov	r0, r6
 8007934:	b003      	add	sp, #12
 8007936:	e8bd 83f0 	ldmia.w	sp!, {r4, r5, r6, r7, r8, r9, pc}
 800793a:	462a      	mov	r2, r5
 800793c:	4640      	mov	r0, r8
 800793e:	f003 f843 	bl	800a9c8 <__swbuf_r>
 8007942:	1c43      	adds	r3, r0, #1
 8007944:	d1e4      	bne.n	8007910 <__fputwc+0x48>
 8007946:	4606      	mov	r6, r0
 8007948:	e7f3      	b.n	8007932 <__fputwc+0x6a>

0800794a <_fputwc_r>:
 800794a:	6e53      	ldr	r3, [r2, #100]	; 0x64
 800794c:	b570      	push	{r4, r5, r6, lr}
 800794e:	07db      	lsls	r3, r3, #31
 8007950:	4605      	mov	r5, r0
 8007952:	460e      	mov	r6, r1
 8007954:	4614      	mov	r4, r2
 8007956:	d405      	bmi.n	8007964 <_fputwc_r+0x1a>
 8007958:	8993      	ldrh	r3, [r2, #12]
 800795a:	0598      	lsls	r0, r3, #22
 800795c:	d402      	bmi.n	8007964 <_fputwc_r+0x1a>
 800795e:	6d90      	ldr	r0, [r2, #88]	; 0x58
 8007960:	f000 f894 	bl	8007a8c <__retarget_lock_acquire_recursive>
 8007964:	f9b4 300c 	ldrsh.w	r3, [r4, #12]
 8007968:	0499      	lsls	r1, r3, #18
 800796a:	d406      	bmi.n	800797a <_fputwc_r+0x30>
 800796c:	f443 5300 	orr.w	r3, r3, #8192	; 0x2000
 8007970:	81a3      	strh	r3, [r4, #12]
 8007972:	6e63      	ldr	r3, [r4, #100]	; 0x64
 8007974:	f443 5300 	orr.w	r3, r3, #8192	; 0x2000
 8007978:	6663      	str	r3, [r4, #100]	; 0x64
 800797a:	4622      	mov	r2, r4
 800797c:	4628      	mov	r0, r5
 800797e:	4631      	mov	r1, r6
 8007980:	f7ff ffa2 	bl	80078c8 <__fputwc>
 8007984:	6e63      	ldr	r3, [r4, #100]	; 0x64
 8007986:	4605      	mov	r5, r0
 8007988:	07da      	lsls	r2, r3, #31
 800798a:	d405      	bmi.n	8007998 <_fputwc_r+0x4e>
 800798c:	89a3      	ldrh	r3, [r4, #12]
 800798e:	059b      	lsls	r3, r3, #22
 8007990:	d402      	bmi.n	8007998 <_fputwc_r+0x4e>
 8007992:	6da0      	ldr	r0, [r4, #88]	; 0x58
 8007994:	f000 f87b 	bl	8007a8e <__retarget_lock_release_recursive>
 8007998:	4628      	mov	r0, r5
 800799a:	bd70      	pop	{r4, r5, r6, pc}

0800799c <memmove>:
 800799c:	4288      	cmp	r0, r1
 800799e:	b510      	push	{r4, lr}
 80079a0:	eb01 0402 	add.w	r4, r1, r2
 80079a4:	d902      	bls.n	80079ac <memmove+0x10>
 80079a6:	4284      	cmp	r4, r0
 80079a8:	4623      	mov	r3, r4
 80079aa:	d807      	bhi.n	80079bc <memmove+0x20>
 80079ac:	1e43      	subs	r3, r0, #1
 80079ae:	42a1      	cmp	r1, r4
 80079b0:	d008      	beq.n	80079c4 <memmove+0x28>
 80079b2:	f811 2b01 	ldrb.w	r2, [r1], #1
 80079b6:	f803 2f01 	strb.w	r2, [r3, #1]!
 80079ba:	e7f8      	b.n	80079ae <memmove+0x12>
 80079bc:	4601      	mov	r1, r0
 80079be:	4402      	add	r2, r0
 80079c0:	428a      	cmp	r2, r1
 80079c2:	d100      	bne.n	80079c6 <memmove+0x2a>
 80079c4:	bd10      	pop	{r4, pc}
 80079c6:	f813 4d01 	ldrb.w	r4, [r3, #-1]!
 80079ca:	f802 4d01 	strb.w	r4, [r2, #-1]!
 80079ce:	e7f7      	b.n	80079c0 <memmove+0x24>

080079d0 <memset>:
 80079d0:	4603      	mov	r3, r0
 80079d2:	4402      	add	r2, r0
 80079d4:	4293      	cmp	r3, r2
 80079d6:	d100      	bne.n	80079da <memset+0xa>
 80079d8:	4770      	bx	lr
 80079da:	f803 1b01 	strb.w	r1, [r3], #1
 80079de:	e7f9      	b.n	80079d4 <memset+0x4>

080079e0 <strncpy>:
 80079e0:	4603      	mov	r3, r0
 80079e2:	b510      	push	{r4, lr}
 80079e4:	3901      	subs	r1, #1
 80079e6:	b132      	cbz	r2, 80079f6 <strncpy+0x16>
 80079e8:	f811 4f01 	ldrb.w	r4, [r1, #1]!
 80079ec:	3a01      	subs	r2, #1
 80079ee:	f803 4b01 	strb.w	r4, [r3], #1
 80079f2:	2c00      	cmp	r4, #0
 80079f4:	d1f7      	bne.n	80079e6 <strncpy+0x6>
 80079f6:	2100      	movs	r1, #0
 80079f8:	441a      	add	r2, r3
 80079fa:	4293      	cmp	r3, r2
 80079fc:	d100      	bne.n	8007a00 <strncpy+0x20>
 80079fe:	bd10      	pop	{r4, pc}
 8007a00:	f803 1b01 	strb.w	r1, [r3], #1
 8007a04:	e7f9      	b.n	80079fa <strncpy+0x1a>
	...

08007a08 <__locale_mb_cur_max>:
 8007a08:	4b01      	ldr	r3, [pc, #4]	; (8007a10 <__locale_mb_cur_max+0x8>)
 8007a0a:	f893 0128 	ldrb.w	r0, [r3, #296]	; 0x128
 8007a0e:	4770      	bx	lr
 8007a10:	20000450 	.word	0x20000450

08007a14 <_localeconv_r>:
 8007a14:	4800      	ldr	r0, [pc, #0]	; (8007a18 <_localeconv_r+0x4>)
 8007a16:	4770      	bx	lr
 8007a18:	20000540 	.word	0x20000540

08007a1c <__errno>:
 8007a1c:	4b01      	ldr	r3, [pc, #4]	; (8007a24 <__errno+0x8>)
 8007a1e:	6818      	ldr	r0, [r3, #0]
 8007a20:	4770      	bx	lr
 8007a22:	bf00      	nop
 8007a24:	200006e0 	.word	0x200006e0

08007a28 <sysconf>:
 8007a28:	2808      	cmp	r0, #8
 8007a2a:	b508      	push	{r3, lr}
 8007a2c:	d006      	beq.n	8007a3c <sysconf+0x14>
 8007a2e:	f7ff fff5 	bl	8007a1c <__errno>
 8007a32:	2316      	movs	r3, #22
 8007a34:	6003      	str	r3, [r0, #0]
 8007a36:	f04f 30ff 	mov.w	r0, #4294967295	; 0xffffffff
 8007a3a:	bd08      	pop	{r3, pc}
 8007a3c:	2080      	movs	r0, #128	; 0x80
 8007a3e:	e7fc      	b.n	8007a3a <sysconf+0x12>

08007a40 <__libc_init_array>:
 8007a40:	b570      	push	{r4, r5, r6, lr}
 8007a42:	2600      	movs	r6, #0
 8007a44:	4d0c      	ldr	r5, [pc, #48]	; (8007a78 <__libc_init_array+0x38>)
 8007a46:	4c0d      	ldr	r4, [pc, #52]	; (8007a7c <__libc_init_array+0x3c>)
 8007a48:	1b64      	subs	r4, r4, r5
 8007a4a:	10a4      	asrs	r4, r4, #2
 8007a4c:	42a6      	cmp	r6, r4
 8007a4e:	d109      	bne.n	8007a64 <__libc_init_array+0x24>
 8007a50:	f003 f9f0 	bl	800ae34 <_init>
 8007a54:	2600      	movs	r6, #0
 8007a56:	4d0a      	ldr	r5, [pc, #40]	; (8007a80 <__libc_init_array+0x40>)
 8007a58:	4c0a      	ldr	r4, [pc, #40]	; (8007a84 <__libc_init_array+0x44>)
 8007a5a:	1b64      	subs	r4, r4, r5
 8007a5c:	10a4      	asrs	r4, r4, #2
 8007a5e:	42a6      	cmp	r6, r4
 8007a60:	d105      	bne.n	8007a6e <__libc_init_array+0x2e>
 8007a62:	bd70      	pop	{r4, r5, r6, pc}
 8007a64:	f855 3b04 	ldr.w	r3, [r5], #4
 8007a68:	4798      	blx	r3
 8007a6a:	3601      	adds	r6, #1
 8007a6c:	e7ee      	b.n	8007a4c <__libc_init_array+0xc>
 8007a6e:	f855 3b04 	ldr.w	r3, [r5], #4
 8007a72:	4798      	blx	r3
 8007a74:	3601      	adds	r6, #1
 8007a76:	e7f2      	b.n	8007a5e <__libc_init_array+0x1e>
 8007a78:	0800c7a8 	.word	0x0800c7a8
 8007a7c:	0800c7a8 	.word	0x0800c7a8
 8007a80:	0800c7a8 	.word	0x0800c7a8
 8007a84:	0800c7b0 	.word	0x0800c7b0

08007a88 <__retarget_lock_init_recursive>:
 8007a88:	4770      	bx	lr

08007a8a <__retarget_lock_close_recursive>:
 8007a8a:	4770      	bx	lr

08007a8c <__retarget_lock_acquire_recursive>:
 8007a8c:	4770      	bx	lr

08007a8e <__retarget_lock_release_recursive>:
 8007a8e:	4770      	bx	lr

08007a90 <memchr>:
 8007a90:	4603      	mov	r3, r0
 8007a92:	b510      	push	{r4, lr}
 8007a94:	b2c9      	uxtb	r1, r1
 8007a96:	4402      	add	r2, r0
 8007a98:	4293      	cmp	r3, r2
 8007a9a:	4618      	mov	r0, r3
 8007a9c:	d101      	bne.n	8007aa2 <memchr+0x12>
 8007a9e:	2000      	movs	r0, #0
 8007aa0:	e003      	b.n	8007aaa <memchr+0x1a>
 8007aa2:	7804      	ldrb	r4, [r0, #0]
 8007aa4:	3301      	adds	r3, #1
 8007aa6:	428c      	cmp	r4, r1
 8007aa8:	d1f6      	bne.n	8007a98 <memchr+0x8>
 8007aaa:	bd10      	pop	{r4, pc}

08007aac <memcpy>:
 8007aac:	440a      	add	r2, r1
 8007aae:	4291      	cmp	r1, r2
 8007ab0:	f100 33ff 	add.w	r3, r0, #4294967295	; 0xffffffff
 8007ab4:	d100      	bne.n	8007ab8 <memcpy+0xc>
 8007ab6:	4770      	bx	lr
 8007ab8:	b510      	push	{r4, lr}
 8007aba:	f811 4b01 	ldrb.w	r4, [r1], #1
 8007abe:	4291      	cmp	r1, r2
 8007ac0:	f803 4f01 	strb.w	r4, [r3, #1]!
 8007ac4:	d1f9      	bne.n	8007aba <memcpy+0xe>
 8007ac6:	bd10      	pop	{r4, pc}

08007ac8 <_wcrtomb_r>:
 8007ac8:	b5f0      	push	{r4, r5, r6, r7, lr}
 8007aca:	4c09      	ldr	r4, [pc, #36]	; (8007af0 <_wcrtomb_r+0x28>)
 8007acc:	4605      	mov	r5, r0
 8007ace:	461e      	mov	r6, r3
 8007ad0:	f8d4 70e0 	ldr.w	r7, [r4, #224]	; 0xe0
 8007ad4:	b085      	sub	sp, #20
 8007ad6:	b909      	cbnz	r1, 8007adc <_wcrtomb_r+0x14>
 8007ad8:	460a      	mov	r2, r1
 8007ada:	a901      	add	r1, sp, #4
 8007adc:	47b8      	blx	r7
 8007ade:	1c43      	adds	r3, r0, #1
 8007ae0:	bf01      	itttt	eq
 8007ae2:	2300      	moveq	r3, #0
 8007ae4:	6033      	streq	r3, [r6, #0]
 8007ae6:	238a      	moveq	r3, #138	; 0x8a
 8007ae8:	602b      	streq	r3, [r5, #0]
 8007aea:	b005      	add	sp, #20
 8007aec:	bdf0      	pop	{r4, r5, r6, r7, pc}
 8007aee:	bf00      	nop
 8007af0:	20000450 	.word	0x20000450

08007af4 <frexp>:
 8007af4:	b5f8      	push	{r3, r4, r5, r6, r7, lr}
 8007af6:	4617      	mov	r7, r2
 8007af8:	2200      	movs	r2, #0
 8007afa:	603a      	str	r2, [r7, #0]
 8007afc:	4a14      	ldr	r2, [pc, #80]	; (8007b50 <frexp+0x5c>)
 8007afe:	f021 4600 	bic.w	r6, r1, #2147483648	; 0x80000000
 8007b02:	4296      	cmp	r6, r2
 8007b04:	4604      	mov	r4, r0
 8007b06:	460d      	mov	r5, r1
 8007b08:	460b      	mov	r3, r1
 8007b0a:	dc1e      	bgt.n	8007b4a <frexp+0x56>
 8007b0c:	4602      	mov	r2, r0
 8007b0e:	4332      	orrs	r2, r6
 8007b10:	d01b      	beq.n	8007b4a <frexp+0x56>
 8007b12:	4a10      	ldr	r2, [pc, #64]	; (8007b54 <frexp+0x60>)
 8007b14:	400a      	ands	r2, r1
 8007b16:	b952      	cbnz	r2, 8007b2e <frexp+0x3a>
 8007b18:	2200      	movs	r2, #0
 8007b1a:	4b0f      	ldr	r3, [pc, #60]	; (8007b58 <frexp+0x64>)
 8007b1c:	f7f8 fcee 	bl	80004fc <__aeabi_dmul>
 8007b20:	f06f 0235 	mvn.w	r2, #53	; 0x35
 8007b24:	4604      	mov	r4, r0
 8007b26:	460b      	mov	r3, r1
 8007b28:	f021 4600 	bic.w	r6, r1, #2147483648	; 0x80000000
 8007b2c:	603a      	str	r2, [r7, #0]
 8007b2e:	683a      	ldr	r2, [r7, #0]
 8007b30:	1536      	asrs	r6, r6, #20
 8007b32:	f023 43ff 	bic.w	r3, r3, #2139095040	; 0x7f800000
 8007b36:	f2a6 36fe 	subw	r6, r6, #1022	; 0x3fe
 8007b3a:	f423 03e0 	bic.w	r3, r3, #7340032	; 0x700000
 8007b3e:	4432      	add	r2, r6
 8007b40:	f043 557f 	orr.w	r5, r3, #1069547520	; 0x3fc00000
 8007b44:	603a      	str	r2, [r7, #0]
 8007b46:	f445 1500 	orr.w	r5, r5, #2097152	; 0x200000
 8007b4a:	4620      	mov	r0, r4
 8007b4c:	4629      	mov	r1, r5
 8007b4e:	bdf8      	pop	{r3, r4, r5, r6, r7, pc}
 8007b50:	7fefffff 	.word	0x7fefffff
 8007b54:	7ff00000 	.word	0x7ff00000
 8007b58:	43500000 	.word	0x43500000

08007b5c <register_fini>:
 8007b5c:	4b02      	ldr	r3, [pc, #8]	; (8007b68 <register_fini+0xc>)
 8007b5e:	b113      	cbz	r3, 8007b66 <register_fini+0xa>
 8007b60:	4802      	ldr	r0, [pc, #8]	; (8007b6c <register_fini+0x10>)
 8007b62:	f000 b805 	b.w	8007b70 <atexit>
 8007b66:	4770      	bx	lr
 8007b68:	00000000 	.word	0x00000000
 8007b6c:	0800ab2d 	.word	0x0800ab2d

08007b70 <atexit>:
 8007b70:	2300      	movs	r3, #0
 8007b72:	4601      	mov	r1, r0
 8007b74:	461a      	mov	r2, r3
 8007b76:	4618      	mov	r0, r3
 8007b78:	f002 bfec 	b.w	800ab54 <__register_exitproc>

08007b7c <quorem>:
 8007b7c:	e92d 4ff7 	stmdb	sp!, {r0, r1, r2, r4, r5, r6, r7, r8, r9, sl, fp, lr}
 8007b80:	6903      	ldr	r3, [r0, #16]
 8007b82:	690c      	ldr	r4, [r1, #16]
 8007b84:	4607      	mov	r7, r0
 8007b86:	42a3      	cmp	r3, r4
 8007b88:	db7f      	blt.n	8007c8a <quorem+0x10e>
 8007b8a:	3c01      	subs	r4, #1
 8007b8c:	f100 0514 	add.w	r5, r0, #20
 8007b90:	f101 0814 	add.w	r8, r1, #20
 8007b94:	eb05 0384 	add.w	r3, r5, r4, lsl #2
 8007b98:	9301      	str	r3, [sp, #4]
 8007b9a:	f858 3024 	ldr.w	r3, [r8, r4, lsl #2]
 8007b9e:	f855 2024 	ldr.w	r2, [r5, r4, lsl #2]
 8007ba2:	3301      	adds	r3, #1
 8007ba4:	429a      	cmp	r2, r3
 8007ba6:	fbb2 f6f3 	udiv	r6, r2, r3
 8007baa:	ea4f 0b84 	mov.w	fp, r4, lsl #2
 8007bae:	eb08 0984 	add.w	r9, r8, r4, lsl #2
 8007bb2:	d331      	bcc.n	8007c18 <quorem+0x9c>
 8007bb4:	f04f 0e00 	mov.w	lr, #0
 8007bb8:	4640      	mov	r0, r8
 8007bba:	46ac      	mov	ip, r5
 8007bbc:	46f2      	mov	sl, lr
 8007bbe:	f850 2b04 	ldr.w	r2, [r0], #4
 8007bc2:	b293      	uxth	r3, r2
 8007bc4:	fb06 e303 	mla	r3, r6, r3, lr
 8007bc8:	ea4f 4e12 	mov.w	lr, r2, lsr #16
 8007bcc:	0c1a      	lsrs	r2, r3, #16
 8007bce:	b29b      	uxth	r3, r3
 8007bd0:	fb06 220e 	mla	r2, r6, lr, r2
 8007bd4:	ebaa 0303 	sub.w	r3, sl, r3
 8007bd8:	f8dc a000 	ldr.w	sl, [ip]
 8007bdc:	ea4f 4e12 	mov.w	lr, r2, lsr #16
 8007be0:	fa1f fa8a 	uxth.w	sl, sl
 8007be4:	4453      	add	r3, sl
 8007be6:	f8dc a000 	ldr.w	sl, [ip]
 8007bea:	b292      	uxth	r2, r2
 8007bec:	ebc2 421a 	rsb	r2, r2, sl, lsr #16
 8007bf0:	eb02 4223 	add.w	r2, r2, r3, asr #16
 8007bf4:	b29b      	uxth	r3, r3
 8007bf6:	ea43 4302 	orr.w	r3, r3, r2, lsl #16
 8007bfa:	4581      	cmp	r9, r0
 8007bfc:	ea4f 4a22 	mov.w	sl, r2, asr #16
 8007c00:	f84c 3b04 	str.w	r3, [ip], #4
 8007c04:	d2db      	bcs.n	8007bbe <quorem+0x42>
 8007c06:	f855 300b 	ldr.w	r3, [r5, fp]
 8007c0a:	b92b      	cbnz	r3, 8007c18 <quorem+0x9c>
 8007c0c:	9b01      	ldr	r3, [sp, #4]
 8007c0e:	3b04      	subs	r3, #4
 8007c10:	429d      	cmp	r5, r3
 8007c12:	461a      	mov	r2, r3
 8007c14:	d32d      	bcc.n	8007c72 <quorem+0xf6>
 8007c16:	613c      	str	r4, [r7, #16]
 8007c18:	4638      	mov	r0, r7
 8007c1a:	f002 fb85 	bl	800a328 <__mcmp>
 8007c1e:	2800      	cmp	r0, #0
 8007c20:	db23      	blt.n	8007c6a <quorem+0xee>
 8007c22:	4629      	mov	r1, r5
 8007c24:	2000      	movs	r0, #0
 8007c26:	3601      	adds	r6, #1
 8007c28:	f858 2b04 	ldr.w	r2, [r8], #4
 8007c2c:	f8d1 c000 	ldr.w	ip, [r1]
 8007c30:	b293      	uxth	r3, r2
 8007c32:	1ac3      	subs	r3, r0, r3
 8007c34:	0c12      	lsrs	r2, r2, #16
 8007c36:	fa1f f08c 	uxth.w	r0, ip
 8007c3a:	4403      	add	r3, r0
 8007c3c:	ebc2 421c 	rsb	r2, r2, ip, lsr #16
 8007c40:	eb02 4223 	add.w	r2, r2, r3, asr #16
 8007c44:	b29b      	uxth	r3, r3
 8007c46:	ea43 4302 	orr.w	r3, r3, r2, lsl #16
 8007c4a:	45c1      	cmp	r9, r8
 8007c4c:	ea4f 4022 	mov.w	r0, r2, asr #16
 8007c50:	f841 3b04 	str.w	r3, [r1], #4
 8007c54:	d2e8      	bcs.n	8007c28 <quorem+0xac>
 8007c56:	f855 2024 	ldr.w	r2, [r5, r4, lsl #2]
 8007c5a:	eb05 0384 	add.w	r3, r5, r4, lsl #2
 8007c5e:	b922      	cbnz	r2, 8007c6a <quorem+0xee>
 8007c60:	3b04      	subs	r3, #4
 8007c62:	429d      	cmp	r5, r3
 8007c64:	461a      	mov	r2, r3
 8007c66:	d30a      	bcc.n	8007c7e <quorem+0x102>
 8007c68:	613c      	str	r4, [r7, #16]
 8007c6a:	4630      	mov	r0, r6
 8007c6c:	b003      	add	sp, #12
 8007c6e:	e8bd 8ff0 	ldmia.w	sp!, {r4, r5, r6, r7, r8, r9, sl, fp, pc}
 8007c72:	6812      	ldr	r2, [r2, #0]
 8007c74:	3b04      	subs	r3, #4
 8007c76:	2a00      	cmp	r2, #0
 8007c78:	d1cd      	bne.n	8007c16 <quorem+0x9a>
 8007c7a:	3c01      	subs	r4, #1
 8007c7c:	e7c8      	b.n	8007c10 <quorem+0x94>
 8007c7e:	6812      	ldr	r2, [r2, #0]
 8007c80:	3b04      	subs	r3, #4
 8007c82:	2a00      	cmp	r2, #0
 8007c84:	d1f0      	bne.n	8007c68 <quorem+0xec>
 8007c86:	3c01      	subs	r4, #1
 8007c88:	e7eb      	b.n	8007c62 <quorem+0xe6>
 8007c8a:	2000      	movs	r0, #0
 8007c8c:	e7ee      	b.n	8007c6c <quorem+0xf0>
	...

08007c90 <_dtoa_r>:
 8007c90:	e92d 4ff0 	stmdb	sp!, {r4, r5, r6, r7, r8, r9, sl, fp, lr}
 8007c94:	6b81      	ldr	r1, [r0, #56]	; 0x38
 8007c96:	b097      	sub	sp, #92	; 0x5c
 8007c98:	4681      	mov	r9, r0
 8007c9a:	4614      	mov	r4, r2
 8007c9c:	461d      	mov	r5, r3
 8007c9e:	4692      	mov	sl, r2
 8007ca0:	469b      	mov	fp, r3
 8007ca2:	9e23      	ldr	r6, [sp, #140]	; 0x8c
 8007ca4:	b149      	cbz	r1, 8007cba <_dtoa_r+0x2a>
 8007ca6:	2301      	movs	r3, #1
 8007ca8:	6bc2      	ldr	r2, [r0, #60]	; 0x3c
 8007caa:	4093      	lsls	r3, r2
 8007cac:	608b      	str	r3, [r1, #8]
 8007cae:	604a      	str	r2, [r1, #4]
 8007cb0:	f002 f933 	bl	8009f1a <_Bfree>
 8007cb4:	2300      	movs	r3, #0
 8007cb6:	f8c9 3038 	str.w	r3, [r9, #56]	; 0x38
 8007cba:	1e2b      	subs	r3, r5, #0
 8007cbc:	bfad      	iteet	ge
 8007cbe:	2300      	movge	r3, #0
 8007cc0:	2201      	movlt	r2, #1
 8007cc2:	f023 4b00 	biclt.w	fp, r3, #2147483648	; 0x80000000
 8007cc6:	6033      	strge	r3, [r6, #0]
 8007cc8:	4ba3      	ldr	r3, [pc, #652]	; (8007f58 <_dtoa_r+0x2c8>)
 8007cca:	bfb8      	it	lt
 8007ccc:	6032      	strlt	r2, [r6, #0]
 8007cce:	ea33 030b 	bics.w	r3, r3, fp
 8007cd2:	f8cd b00c 	str.w	fp, [sp, #12]
 8007cd6:	d119      	bne.n	8007d0c <_dtoa_r+0x7c>
 8007cd8:	f242 730f 	movw	r3, #9999	; 0x270f
 8007cdc:	9a22      	ldr	r2, [sp, #136]	; 0x88
 8007cde:	6013      	str	r3, [r2, #0]
 8007ce0:	f3cb 0313 	ubfx	r3, fp, #0, #20
 8007ce4:	4323      	orrs	r3, r4
 8007ce6:	f000 8586 	beq.w	80087f6 <_dtoa_r+0xb66>
 8007cea:	9b24      	ldr	r3, [sp, #144]	; 0x90
 8007cec:	b90b      	cbnz	r3, 8007cf2 <_dtoa_r+0x62>
 8007cee:	4b9b      	ldr	r3, [pc, #620]	; (8007f5c <_dtoa_r+0x2cc>)
 8007cf0:	e021      	b.n	8007d36 <_dtoa_r+0xa6>
 8007cf2:	4b9a      	ldr	r3, [pc, #616]	; (8007f5c <_dtoa_r+0x2cc>)
 8007cf4:	9304      	str	r3, [sp, #16]
 8007cf6:	3303      	adds	r3, #3
 8007cf8:	9a24      	ldr	r2, [sp, #144]	; 0x90
 8007cfa:	6013      	str	r3, [r2, #0]
 8007cfc:	9804      	ldr	r0, [sp, #16]
 8007cfe:	b017      	add	sp, #92	; 0x5c
 8007d00:	e8bd 8ff0 	ldmia.w	sp!, {r4, r5, r6, r7, r8, r9, sl, fp, pc}
 8007d04:	4b96      	ldr	r3, [pc, #600]	; (8007f60 <_dtoa_r+0x2d0>)
 8007d06:	9304      	str	r3, [sp, #16]
 8007d08:	3308      	adds	r3, #8
 8007d0a:	e7f5      	b.n	8007cf8 <_dtoa_r+0x68>
 8007d0c:	2200      	movs	r2, #0
 8007d0e:	2300      	movs	r3, #0
 8007d10:	4650      	mov	r0, sl
 8007d12:	4659      	mov	r1, fp
 8007d14:	e9cd ab0c 	strd	sl, fp, [sp, #48]	; 0x30
 8007d18:	f7f8 fe58 	bl	80009cc <__aeabi_dcmpeq>
 8007d1c:	4607      	mov	r7, r0
 8007d1e:	b160      	cbz	r0, 8007d3a <_dtoa_r+0xaa>
 8007d20:	2301      	movs	r3, #1
 8007d22:	9a22      	ldr	r2, [sp, #136]	; 0x88
 8007d24:	6013      	str	r3, [r2, #0]
 8007d26:	9b24      	ldr	r3, [sp, #144]	; 0x90
 8007d28:	2b00      	cmp	r3, #0
 8007d2a:	f000 8561 	beq.w	80087f0 <_dtoa_r+0xb60>
 8007d2e:	4b8d      	ldr	r3, [pc, #564]	; (8007f64 <_dtoa_r+0x2d4>)
 8007d30:	9a24      	ldr	r2, [sp, #144]	; 0x90
 8007d32:	6013      	str	r3, [r2, #0]
 8007d34:	3b01      	subs	r3, #1
 8007d36:	9304      	str	r3, [sp, #16]
 8007d38:	e7e0      	b.n	8007cfc <_dtoa_r+0x6c>
 8007d3a:	ab14      	add	r3, sp, #80	; 0x50
 8007d3c:	9301      	str	r3, [sp, #4]
 8007d3e:	ab15      	add	r3, sp, #84	; 0x54
 8007d40:	9300      	str	r3, [sp, #0]
 8007d42:	4648      	mov	r0, r9
 8007d44:	e9dd 230c 	ldrd	r2, r3, [sp, #48]	; 0x30
 8007d48:	f002 fb96 	bl	800a478 <__d2b>
 8007d4c:	9b03      	ldr	r3, [sp, #12]
 8007d4e:	4680      	mov	r8, r0
 8007d50:	f3c3 560a 	ubfx	r6, r3, #20, #11
 8007d54:	2e00      	cmp	r6, #0
 8007d56:	f000 8082 	beq.w	8007e5e <_dtoa_r+0x1ce>
 8007d5a:	e9dd 010c 	ldrd	r0, r1, [sp, #48]	; 0x30
 8007d5e:	9b0d      	ldr	r3, [sp, #52]	; 0x34
 8007d60:	f2a6 36ff 	subw	r6, r6, #1023	; 0x3ff
 8007d64:	f3c3 0313 	ubfx	r3, r3, #0, #20
 8007d68:	f043 537f 	orr.w	r3, r3, #1069547520	; 0x3fc00000
 8007d6c:	f443 1340 	orr.w	r3, r3, #3145728	; 0x300000
 8007d70:	9713      	str	r7, [sp, #76]	; 0x4c
 8007d72:	4619      	mov	r1, r3
 8007d74:	2200      	movs	r2, #0
 8007d76:	4b7c      	ldr	r3, [pc, #496]	; (8007f68 <_dtoa_r+0x2d8>)
 8007d78:	f7f8 fa08 	bl	800018c <__aeabi_dsub>
 8007d7c:	a370      	add	r3, pc, #448	; (adr r3, 8007f40 <_dtoa_r+0x2b0>)
 8007d7e:	e9d3 2300 	ldrd	r2, r3, [r3]
 8007d82:	f7f8 fbbb 	bl	80004fc <__aeabi_dmul>
 8007d86:	a370      	add	r3, pc, #448	; (adr r3, 8007f48 <_dtoa_r+0x2b8>)
 8007d88:	e9d3 2300 	ldrd	r2, r3, [r3]
 8007d8c:	f7f8 fa00 	bl	8000190 <__adddf3>
 8007d90:	4604      	mov	r4, r0
 8007d92:	4630      	mov	r0, r6
 8007d94:	460d      	mov	r5, r1
 8007d96:	f7f8 fb47 	bl	8000428 <__aeabi_i2d>
 8007d9a:	a36d      	add	r3, pc, #436	; (adr r3, 8007f50 <_dtoa_r+0x2c0>)
 8007d9c:	e9d3 2300 	ldrd	r2, r3, [r3]
 8007da0:	f7f8 fbac 	bl	80004fc <__aeabi_dmul>
 8007da4:	4602      	mov	r2, r0
 8007da6:	460b      	mov	r3, r1
 8007da8:	4620      	mov	r0, r4
 8007daa:	4629      	mov	r1, r5
 8007dac:	f7f8 f9f0 	bl	8000190 <__adddf3>
 8007db0:	4604      	mov	r4, r0
 8007db2:	460d      	mov	r5, r1
 8007db4:	f7f8 fe52 	bl	8000a5c <__aeabi_d2iz>
 8007db8:	2200      	movs	r2, #0
 8007dba:	9003      	str	r0, [sp, #12]
 8007dbc:	2300      	movs	r3, #0
 8007dbe:	4620      	mov	r0, r4
 8007dc0:	4629      	mov	r1, r5
 8007dc2:	f7f8 fe0d 	bl	80009e0 <__aeabi_dcmplt>
 8007dc6:	b150      	cbz	r0, 8007dde <_dtoa_r+0x14e>
 8007dc8:	9803      	ldr	r0, [sp, #12]
 8007dca:	f7f8 fb2d 	bl	8000428 <__aeabi_i2d>
 8007dce:	4622      	mov	r2, r4
 8007dd0:	462b      	mov	r3, r5
 8007dd2:	f7f8 fdfb 	bl	80009cc <__aeabi_dcmpeq>
 8007dd6:	b910      	cbnz	r0, 8007dde <_dtoa_r+0x14e>
 8007dd8:	9b03      	ldr	r3, [sp, #12]
 8007dda:	3b01      	subs	r3, #1
 8007ddc:	9303      	str	r3, [sp, #12]
 8007dde:	9b03      	ldr	r3, [sp, #12]
 8007de0:	2b16      	cmp	r3, #22
 8007de2:	d85a      	bhi.n	8007e9a <_dtoa_r+0x20a>
 8007de4:	e9dd 010c 	ldrd	r0, r1, [sp, #48]	; 0x30
 8007de8:	9a03      	ldr	r2, [sp, #12]
 8007dea:	4b60      	ldr	r3, [pc, #384]	; (8007f6c <_dtoa_r+0x2dc>)
 8007dec:	eb03 03c2 	add.w	r3, r3, r2, lsl #3
 8007df0:	e9d3 2300 	ldrd	r2, r3, [r3]
 8007df4:	f7f8 fdf4 	bl	80009e0 <__aeabi_dcmplt>
 8007df8:	2800      	cmp	r0, #0
 8007dfa:	d050      	beq.n	8007e9e <_dtoa_r+0x20e>
 8007dfc:	9b03      	ldr	r3, [sp, #12]
 8007dfe:	3b01      	subs	r3, #1
 8007e00:	9303      	str	r3, [sp, #12]
 8007e02:	2300      	movs	r3, #0
 8007e04:	9311      	str	r3, [sp, #68]	; 0x44
 8007e06:	9b14      	ldr	r3, [sp, #80]	; 0x50
 8007e08:	1b9b      	subs	r3, r3, r6
 8007e0a:	1e5a      	subs	r2, r3, #1
 8007e0c:	bf49      	itett	mi
 8007e0e:	f1c3 0301 	rsbmi	r3, r3, #1
 8007e12:	2300      	movpl	r3, #0
 8007e14:	9306      	strmi	r3, [sp, #24]
 8007e16:	2300      	movmi	r3, #0
 8007e18:	bf58      	it	pl
 8007e1a:	9306      	strpl	r3, [sp, #24]
 8007e1c:	9209      	str	r2, [sp, #36]	; 0x24
 8007e1e:	bf48      	it	mi
 8007e20:	9309      	strmi	r3, [sp, #36]	; 0x24
 8007e22:	9b03      	ldr	r3, [sp, #12]
 8007e24:	2b00      	cmp	r3, #0
 8007e26:	db3c      	blt.n	8007ea2 <_dtoa_r+0x212>
 8007e28:	9b09      	ldr	r3, [sp, #36]	; 0x24
 8007e2a:	9a03      	ldr	r2, [sp, #12]
 8007e2c:	4413      	add	r3, r2
 8007e2e:	9309      	str	r3, [sp, #36]	; 0x24
 8007e30:	2300      	movs	r3, #0
 8007e32:	9210      	str	r2, [sp, #64]	; 0x40
 8007e34:	930a      	str	r3, [sp, #40]	; 0x28
 8007e36:	9b20      	ldr	r3, [sp, #128]	; 0x80
 8007e38:	2b09      	cmp	r3, #9
 8007e3a:	d86a      	bhi.n	8007f12 <_dtoa_r+0x282>
 8007e3c:	2b05      	cmp	r3, #5
 8007e3e:	bfc4      	itt	gt
 8007e40:	3b04      	subgt	r3, #4
 8007e42:	9320      	strgt	r3, [sp, #128]	; 0x80
 8007e44:	9b20      	ldr	r3, [sp, #128]	; 0x80
 8007e46:	bfc8      	it	gt
 8007e48:	2400      	movgt	r4, #0
 8007e4a:	f1a3 0302 	sub.w	r3, r3, #2
 8007e4e:	bfd8      	it	le
 8007e50:	2401      	movle	r4, #1
 8007e52:	2b03      	cmp	r3, #3
 8007e54:	d868      	bhi.n	8007f28 <_dtoa_r+0x298>
 8007e56:	e8df f003 	tbb	[pc, r3]
 8007e5a:	3a2d      	.short	0x3a2d
 8007e5c:	5a38      	.short	0x5a38
 8007e5e:	e9dd 6314 	ldrd	r6, r3, [sp, #80]	; 0x50
 8007e62:	441e      	add	r6, r3
 8007e64:	f206 4332 	addw	r3, r6, #1074	; 0x432
 8007e68:	2b20      	cmp	r3, #32
 8007e6a:	bfc1      	itttt	gt
 8007e6c:	9a03      	ldrgt	r2, [sp, #12]
 8007e6e:	f1c3 0340 	rsbgt	r3, r3, #64	; 0x40
 8007e72:	409a      	lslgt	r2, r3
 8007e74:	f206 4312 	addwgt	r3, r6, #1042	; 0x412
 8007e78:	bfcb      	itete	gt
 8007e7a:	fa24 f303 	lsrgt.w	r3, r4, r3
 8007e7e:	f1c3 0320 	rsble	r3, r3, #32
 8007e82:	ea42 0003 	orrgt.w	r0, r2, r3
 8007e86:	fa04 f003 	lslle.w	r0, r4, r3
 8007e8a:	f7f8 fabd 	bl	8000408 <__aeabi_ui2d>
 8007e8e:	2201      	movs	r2, #1
 8007e90:	f1a1 73f8 	sub.w	r3, r1, #32505856	; 0x1f00000
 8007e94:	3e01      	subs	r6, #1
 8007e96:	9213      	str	r2, [sp, #76]	; 0x4c
 8007e98:	e76b      	b.n	8007d72 <_dtoa_r+0xe2>
 8007e9a:	2301      	movs	r3, #1
 8007e9c:	e7b2      	b.n	8007e04 <_dtoa_r+0x174>
 8007e9e:	9011      	str	r0, [sp, #68]	; 0x44
 8007ea0:	e7b1      	b.n	8007e06 <_dtoa_r+0x176>
 8007ea2:	9b06      	ldr	r3, [sp, #24]
 8007ea4:	9a03      	ldr	r2, [sp, #12]
 8007ea6:	1a9b      	subs	r3, r3, r2
 8007ea8:	9306      	str	r3, [sp, #24]
 8007eaa:	4253      	negs	r3, r2
 8007eac:	930a      	str	r3, [sp, #40]	; 0x28
 8007eae:	2300      	movs	r3, #0
 8007eb0:	9310      	str	r3, [sp, #64]	; 0x40
 8007eb2:	e7c0      	b.n	8007e36 <_dtoa_r+0x1a6>
 8007eb4:	2300      	movs	r3, #0
 8007eb6:	930b      	str	r3, [sp, #44]	; 0x2c
 8007eb8:	9b21      	ldr	r3, [sp, #132]	; 0x84
 8007eba:	2b00      	cmp	r3, #0
 8007ebc:	dc37      	bgt.n	8007f2e <_dtoa_r+0x29e>
 8007ebe:	2301      	movs	r3, #1
 8007ec0:	461a      	mov	r2, r3
 8007ec2:	9308      	str	r3, [sp, #32]
 8007ec4:	9305      	str	r3, [sp, #20]
 8007ec6:	9221      	str	r2, [sp, #132]	; 0x84
 8007ec8:	e00c      	b.n	8007ee4 <_dtoa_r+0x254>
 8007eca:	2301      	movs	r3, #1
 8007ecc:	e7f3      	b.n	8007eb6 <_dtoa_r+0x226>
 8007ece:	2300      	movs	r3, #0
 8007ed0:	9a21      	ldr	r2, [sp, #132]	; 0x84
 8007ed2:	930b      	str	r3, [sp, #44]	; 0x2c
 8007ed4:	9b03      	ldr	r3, [sp, #12]
 8007ed6:	4413      	add	r3, r2
 8007ed8:	9308      	str	r3, [sp, #32]
 8007eda:	3301      	adds	r3, #1
 8007edc:	2b01      	cmp	r3, #1
 8007ede:	9305      	str	r3, [sp, #20]
 8007ee0:	bfb8      	it	lt
 8007ee2:	2301      	movlt	r3, #1
 8007ee4:	2100      	movs	r1, #0
 8007ee6:	2204      	movs	r2, #4
 8007ee8:	f102 0014 	add.w	r0, r2, #20
 8007eec:	4298      	cmp	r0, r3
 8007eee:	d922      	bls.n	8007f36 <_dtoa_r+0x2a6>
 8007ef0:	4648      	mov	r0, r9
 8007ef2:	f8c9 103c 	str.w	r1, [r9, #60]	; 0x3c
 8007ef6:	f001 ffeb 	bl	8009ed0 <_Balloc>
 8007efa:	9004      	str	r0, [sp, #16]
 8007efc:	2800      	cmp	r0, #0
 8007efe:	d13b      	bne.n	8007f78 <_dtoa_r+0x2e8>
 8007f00:	4602      	mov	r2, r0
 8007f02:	f240 11af 	movw	r1, #431	; 0x1af
 8007f06:	4b1a      	ldr	r3, [pc, #104]	; (8007f70 <_dtoa_r+0x2e0>)
 8007f08:	481a      	ldr	r0, [pc, #104]	; (8007f74 <_dtoa_r+0x2e4>)
 8007f0a:	f002 fe63 	bl	800abd4 <__assert_func>
 8007f0e:	2301      	movs	r3, #1
 8007f10:	e7de      	b.n	8007ed0 <_dtoa_r+0x240>
 8007f12:	2401      	movs	r4, #1
 8007f14:	2300      	movs	r3, #0
 8007f16:	940b      	str	r4, [sp, #44]	; 0x2c
 8007f18:	9320      	str	r3, [sp, #128]	; 0x80
 8007f1a:	f04f 33ff 	mov.w	r3, #4294967295	; 0xffffffff
 8007f1e:	2200      	movs	r2, #0
 8007f20:	9308      	str	r3, [sp, #32]
 8007f22:	9305      	str	r3, [sp, #20]
 8007f24:	2312      	movs	r3, #18
 8007f26:	e7ce      	b.n	8007ec6 <_dtoa_r+0x236>
 8007f28:	2301      	movs	r3, #1
 8007f2a:	930b      	str	r3, [sp, #44]	; 0x2c
 8007f2c:	e7f5      	b.n	8007f1a <_dtoa_r+0x28a>
 8007f2e:	9b21      	ldr	r3, [sp, #132]	; 0x84
 8007f30:	9308      	str	r3, [sp, #32]
 8007f32:	9305      	str	r3, [sp, #20]
 8007f34:	e7d6      	b.n	8007ee4 <_dtoa_r+0x254>
 8007f36:	3101      	adds	r1, #1
 8007f38:	0052      	lsls	r2, r2, #1
 8007f3a:	e7d5      	b.n	8007ee8 <_dtoa_r+0x258>
 8007f3c:	f3af 8000 	nop.w
 8007f40:	636f4361 	.word	0x636f4361
 8007f44:	3fd287a7 	.word	0x3fd287a7
 8007f48:	8b60c8b3 	.word	0x8b60c8b3
 8007f4c:	3fc68a28 	.word	0x3fc68a28
 8007f50:	509f79fb 	.word	0x509f79fb
 8007f54:	3fd34413 	.word	0x3fd34413
 8007f58:	7ff00000 	.word	0x7ff00000
 8007f5c:	0800c581 	.word	0x0800c581
 8007f60:	0800c578 	.word	0x0800c578
 8007f64:	0800c42c 	.word	0x0800c42c
 8007f68:	3ff80000 	.word	0x3ff80000
 8007f6c:	0800c690 	.word	0x0800c690
 8007f70:	0800c585 	.word	0x0800c585
 8007f74:	0800c596 	.word	0x0800c596
 8007f78:	9b04      	ldr	r3, [sp, #16]
 8007f7a:	f8c9 3038 	str.w	r3, [r9, #56]	; 0x38
 8007f7e:	9b05      	ldr	r3, [sp, #20]
 8007f80:	2b0e      	cmp	r3, #14
 8007f82:	f200 80a2 	bhi.w	80080ca <_dtoa_r+0x43a>
 8007f86:	2c00      	cmp	r4, #0
 8007f88:	f000 809f 	beq.w	80080ca <_dtoa_r+0x43a>
 8007f8c:	9b03      	ldr	r3, [sp, #12]
 8007f8e:	2b00      	cmp	r3, #0
 8007f90:	dd35      	ble.n	8007ffe <_dtoa_r+0x36e>
 8007f92:	f003 020f 	and.w	r2, r3, #15
 8007f96:	4b96      	ldr	r3, [pc, #600]	; (80081f0 <_dtoa_r+0x560>)
 8007f98:	eb03 03c2 	add.w	r3, r3, r2, lsl #3
 8007f9c:	e9d3 4500 	ldrd	r4, r5, [r3]
 8007fa0:	9b03      	ldr	r3, [sp, #12]
 8007fa2:	05d8      	lsls	r0, r3, #23
 8007fa4:	ea4f 1623 	mov.w	r6, r3, asr #4
 8007fa8:	d517      	bpl.n	8007fda <_dtoa_r+0x34a>
 8007faa:	e9dd 010c 	ldrd	r0, r1, [sp, #48]	; 0x30
 8007fae:	4b91      	ldr	r3, [pc, #580]	; (80081f4 <_dtoa_r+0x564>)
 8007fb0:	2703      	movs	r7, #3
 8007fb2:	e9d3 2308 	ldrd	r2, r3, [r3, #32]
 8007fb6:	f7f8 fbcb 	bl	8000750 <__aeabi_ddiv>
 8007fba:	4682      	mov	sl, r0
 8007fbc:	468b      	mov	fp, r1
 8007fbe:	f006 060f 	and.w	r6, r6, #15
 8007fc2:	4b8c      	ldr	r3, [pc, #560]	; (80081f4 <_dtoa_r+0x564>)
 8007fc4:	930e      	str	r3, [sp, #56]	; 0x38
 8007fc6:	b956      	cbnz	r6, 8007fde <_dtoa_r+0x34e>
 8007fc8:	4622      	mov	r2, r4
 8007fca:	462b      	mov	r3, r5
 8007fcc:	4650      	mov	r0, sl
 8007fce:	4659      	mov	r1, fp
 8007fd0:	f7f8 fbbe 	bl	8000750 <__aeabi_ddiv>
 8007fd4:	4682      	mov	sl, r0
 8007fd6:	468b      	mov	fp, r1
 8007fd8:	e02a      	b.n	8008030 <_dtoa_r+0x3a0>
 8007fda:	2702      	movs	r7, #2
 8007fdc:	e7f1      	b.n	8007fc2 <_dtoa_r+0x332>
 8007fde:	07f1      	lsls	r1, r6, #31
 8007fe0:	d509      	bpl.n	8007ff6 <_dtoa_r+0x366>
 8007fe2:	9b0e      	ldr	r3, [sp, #56]	; 0x38
 8007fe4:	4620      	mov	r0, r4
 8007fe6:	e9d3 2300 	ldrd	r2, r3, [r3]
 8007fea:	4629      	mov	r1, r5
 8007fec:	f7f8 fa86 	bl	80004fc <__aeabi_dmul>
 8007ff0:	4604      	mov	r4, r0
 8007ff2:	460d      	mov	r5, r1
 8007ff4:	3701      	adds	r7, #1
 8007ff6:	9b0e      	ldr	r3, [sp, #56]	; 0x38
 8007ff8:	1076      	asrs	r6, r6, #1
 8007ffa:	3308      	adds	r3, #8
 8007ffc:	e7e2      	b.n	8007fc4 <_dtoa_r+0x334>
 8007ffe:	f000 809f 	beq.w	8008140 <_dtoa_r+0x4b0>
 8008002:	e9dd 010c 	ldrd	r0, r1, [sp, #48]	; 0x30
 8008006:	9b03      	ldr	r3, [sp, #12]
 8008008:	2702      	movs	r7, #2
 800800a:	425c      	negs	r4, r3
 800800c:	4b78      	ldr	r3, [pc, #480]	; (80081f0 <_dtoa_r+0x560>)
 800800e:	f004 020f 	and.w	r2, r4, #15
 8008012:	eb03 03c2 	add.w	r3, r3, r2, lsl #3
 8008016:	e9d3 2300 	ldrd	r2, r3, [r3]
 800801a:	f7f8 fa6f 	bl	80004fc <__aeabi_dmul>
 800801e:	2300      	movs	r3, #0
 8008020:	4682      	mov	sl, r0
 8008022:	468b      	mov	fp, r1
 8008024:	4d73      	ldr	r5, [pc, #460]	; (80081f4 <_dtoa_r+0x564>)
 8008026:	1124      	asrs	r4, r4, #4
 8008028:	2c00      	cmp	r4, #0
 800802a:	d17e      	bne.n	800812a <_dtoa_r+0x49a>
 800802c:	2b00      	cmp	r3, #0
 800802e:	d1d1      	bne.n	8007fd4 <_dtoa_r+0x344>
 8008030:	9b11      	ldr	r3, [sp, #68]	; 0x44
 8008032:	e9cd ab0e 	strd	sl, fp, [sp, #56]	; 0x38
 8008036:	2b00      	cmp	r3, #0
 8008038:	f000 8084 	beq.w	8008144 <_dtoa_r+0x4b4>
 800803c:	2200      	movs	r2, #0
 800803e:	4650      	mov	r0, sl
 8008040:	4659      	mov	r1, fp
 8008042:	4b6d      	ldr	r3, [pc, #436]	; (80081f8 <_dtoa_r+0x568>)
 8008044:	f7f8 fccc 	bl	80009e0 <__aeabi_dcmplt>
 8008048:	2800      	cmp	r0, #0
 800804a:	d07b      	beq.n	8008144 <_dtoa_r+0x4b4>
 800804c:	9b05      	ldr	r3, [sp, #20]
 800804e:	2b00      	cmp	r3, #0
 8008050:	d078      	beq.n	8008144 <_dtoa_r+0x4b4>
 8008052:	9b08      	ldr	r3, [sp, #32]
 8008054:	2b00      	cmp	r3, #0
 8008056:	dd36      	ble.n	80080c6 <_dtoa_r+0x436>
 8008058:	9b03      	ldr	r3, [sp, #12]
 800805a:	4650      	mov	r0, sl
 800805c:	4659      	mov	r1, fp
 800805e:	2200      	movs	r2, #0
 8008060:	1e5d      	subs	r5, r3, #1
 8008062:	4b66      	ldr	r3, [pc, #408]	; (80081fc <_dtoa_r+0x56c>)
 8008064:	f7f8 fa4a 	bl	80004fc <__aeabi_dmul>
 8008068:	4682      	mov	sl, r0
 800806a:	468b      	mov	fp, r1
 800806c:	9c08      	ldr	r4, [sp, #32]
 800806e:	3701      	adds	r7, #1
 8008070:	4638      	mov	r0, r7
 8008072:	f7f8 f9d9 	bl	8000428 <__aeabi_i2d>
 8008076:	4652      	mov	r2, sl
 8008078:	465b      	mov	r3, fp
 800807a:	f7f8 fa3f 	bl	80004fc <__aeabi_dmul>
 800807e:	2200      	movs	r2, #0
 8008080:	4b5f      	ldr	r3, [pc, #380]	; (8008200 <_dtoa_r+0x570>)
 8008082:	f7f8 f885 	bl	8000190 <__adddf3>
 8008086:	f1a1 7650 	sub.w	r6, r1, #54525952	; 0x3400000
 800808a:	e9cd 010e 	strd	r0, r1, [sp, #56]	; 0x38
 800808e:	960f      	str	r6, [sp, #60]	; 0x3c
 8008090:	2c00      	cmp	r4, #0
 8008092:	d15a      	bne.n	800814a <_dtoa_r+0x4ba>
 8008094:	2200      	movs	r2, #0
 8008096:	4650      	mov	r0, sl
 8008098:	4659      	mov	r1, fp
 800809a:	4b5a      	ldr	r3, [pc, #360]	; (8008204 <_dtoa_r+0x574>)
 800809c:	f7f8 f876 	bl	800018c <__aeabi_dsub>
 80080a0:	4633      	mov	r3, r6
 80080a2:	9a0e      	ldr	r2, [sp, #56]	; 0x38
 80080a4:	4682      	mov	sl, r0
 80080a6:	468b      	mov	fp, r1
 80080a8:	f7f8 fcb8 	bl	8000a1c <__aeabi_dcmpgt>
 80080ac:	2800      	cmp	r0, #0
 80080ae:	f040 8295 	bne.w	80085dc <_dtoa_r+0x94c>
 80080b2:	4650      	mov	r0, sl
 80080b4:	4659      	mov	r1, fp
 80080b6:	9a0e      	ldr	r2, [sp, #56]	; 0x38
 80080b8:	f106 4300 	add.w	r3, r6, #2147483648	; 0x80000000
 80080bc:	f7f8 fc90 	bl	80009e0 <__aeabi_dcmplt>
 80080c0:	2800      	cmp	r0, #0
 80080c2:	f040 8289 	bne.w	80085d8 <_dtoa_r+0x948>
 80080c6:	e9dd ab0c 	ldrd	sl, fp, [sp, #48]	; 0x30
 80080ca:	9b15      	ldr	r3, [sp, #84]	; 0x54
 80080cc:	2b00      	cmp	r3, #0
 80080ce:	f2c0 814e 	blt.w	800836e <_dtoa_r+0x6de>
 80080d2:	9a03      	ldr	r2, [sp, #12]
 80080d4:	2a0e      	cmp	r2, #14
 80080d6:	f300 814a 	bgt.w	800836e <_dtoa_r+0x6de>
 80080da:	4b45      	ldr	r3, [pc, #276]	; (80081f0 <_dtoa_r+0x560>)
 80080dc:	eb03 03c2 	add.w	r3, r3, r2, lsl #3
 80080e0:	e9d3 3400 	ldrd	r3, r4, [r3]
 80080e4:	e9cd 3406 	strd	r3, r4, [sp, #24]
 80080e8:	9b21      	ldr	r3, [sp, #132]	; 0x84
 80080ea:	2b00      	cmp	r3, #0
 80080ec:	f280 80d7 	bge.w	800829e <_dtoa_r+0x60e>
 80080f0:	9b05      	ldr	r3, [sp, #20]
 80080f2:	2b00      	cmp	r3, #0
 80080f4:	f300 80d3 	bgt.w	800829e <_dtoa_r+0x60e>
 80080f8:	f040 826d 	bne.w	80085d6 <_dtoa_r+0x946>
 80080fc:	e9dd 0106 	ldrd	r0, r1, [sp, #24]
 8008100:	2200      	movs	r2, #0
 8008102:	4b40      	ldr	r3, [pc, #256]	; (8008204 <_dtoa_r+0x574>)
 8008104:	f7f8 f9fa 	bl	80004fc <__aeabi_dmul>
 8008108:	4652      	mov	r2, sl
 800810a:	465b      	mov	r3, fp
 800810c:	f7f8 fc7c 	bl	8000a08 <__aeabi_dcmpge>
 8008110:	9c05      	ldr	r4, [sp, #20]
 8008112:	4625      	mov	r5, r4
 8008114:	2800      	cmp	r0, #0
 8008116:	f040 8246 	bne.w	80085a6 <_dtoa_r+0x916>
 800811a:	2331      	movs	r3, #49	; 0x31
 800811c:	9e04      	ldr	r6, [sp, #16]
 800811e:	f806 3b01 	strb.w	r3, [r6], #1
 8008122:	9b03      	ldr	r3, [sp, #12]
 8008124:	3301      	adds	r3, #1
 8008126:	9303      	str	r3, [sp, #12]
 8008128:	e241      	b.n	80085ae <_dtoa_r+0x91e>
 800812a:	07e2      	lsls	r2, r4, #31
 800812c:	d505      	bpl.n	800813a <_dtoa_r+0x4aa>
 800812e:	e9d5 2300 	ldrd	r2, r3, [r5]
 8008132:	f7f8 f9e3 	bl	80004fc <__aeabi_dmul>
 8008136:	2301      	movs	r3, #1
 8008138:	3701      	adds	r7, #1
 800813a:	1064      	asrs	r4, r4, #1
 800813c:	3508      	adds	r5, #8
 800813e:	e773      	b.n	8008028 <_dtoa_r+0x398>
 8008140:	2702      	movs	r7, #2
 8008142:	e775      	b.n	8008030 <_dtoa_r+0x3a0>
 8008144:	9d03      	ldr	r5, [sp, #12]
 8008146:	9c05      	ldr	r4, [sp, #20]
 8008148:	e792      	b.n	8008070 <_dtoa_r+0x3e0>
 800814a:	9904      	ldr	r1, [sp, #16]
 800814c:	4b28      	ldr	r3, [pc, #160]	; (80081f0 <_dtoa_r+0x560>)
 800814e:	4421      	add	r1, r4
 8008150:	9112      	str	r1, [sp, #72]	; 0x48
 8008152:	990b      	ldr	r1, [sp, #44]	; 0x2c
 8008154:	eb03 03c4 	add.w	r3, r3, r4, lsl #3
 8008158:	e9dd 670e 	ldrd	r6, r7, [sp, #56]	; 0x38
 800815c:	e953 2302 	ldrd	r2, r3, [r3, #-8]
 8008160:	2900      	cmp	r1, #0
 8008162:	d053      	beq.n	800820c <_dtoa_r+0x57c>
 8008164:	2000      	movs	r0, #0
 8008166:	4928      	ldr	r1, [pc, #160]	; (8008208 <_dtoa_r+0x578>)
 8008168:	f7f8 faf2 	bl	8000750 <__aeabi_ddiv>
 800816c:	4632      	mov	r2, r6
 800816e:	463b      	mov	r3, r7
 8008170:	f7f8 f80c 	bl	800018c <__aeabi_dsub>
 8008174:	e9cd 010e 	strd	r0, r1, [sp, #56]	; 0x38
 8008178:	9e04      	ldr	r6, [sp, #16]
 800817a:	4659      	mov	r1, fp
 800817c:	4650      	mov	r0, sl
 800817e:	f7f8 fc6d 	bl	8000a5c <__aeabi_d2iz>
 8008182:	4604      	mov	r4, r0
 8008184:	f7f8 f950 	bl	8000428 <__aeabi_i2d>
 8008188:	4602      	mov	r2, r0
 800818a:	460b      	mov	r3, r1
 800818c:	4650      	mov	r0, sl
 800818e:	4659      	mov	r1, fp
 8008190:	f7f7 fffc 	bl	800018c <__aeabi_dsub>
 8008194:	e9dd 230e 	ldrd	r2, r3, [sp, #56]	; 0x38
 8008198:	3430      	adds	r4, #48	; 0x30
 800819a:	f806 4b01 	strb.w	r4, [r6], #1
 800819e:	4682      	mov	sl, r0
 80081a0:	468b      	mov	fp, r1
 80081a2:	f7f8 fc1d 	bl	80009e0 <__aeabi_dcmplt>
 80081a6:	2800      	cmp	r0, #0
 80081a8:	d171      	bne.n	800828e <_dtoa_r+0x5fe>
 80081aa:	4652      	mov	r2, sl
 80081ac:	465b      	mov	r3, fp
 80081ae:	2000      	movs	r0, #0
 80081b0:	4911      	ldr	r1, [pc, #68]	; (80081f8 <_dtoa_r+0x568>)
 80081b2:	f7f7 ffeb 	bl	800018c <__aeabi_dsub>
 80081b6:	e9dd 230e 	ldrd	r2, r3, [sp, #56]	; 0x38
 80081ba:	f7f8 fc11 	bl	80009e0 <__aeabi_dcmplt>
 80081be:	2800      	cmp	r0, #0
 80081c0:	f040 80b7 	bne.w	8008332 <_dtoa_r+0x6a2>
 80081c4:	9b12      	ldr	r3, [sp, #72]	; 0x48
 80081c6:	429e      	cmp	r6, r3
 80081c8:	f43f af7d 	beq.w	80080c6 <_dtoa_r+0x436>
 80081cc:	e9dd 010e 	ldrd	r0, r1, [sp, #56]	; 0x38
 80081d0:	2200      	movs	r2, #0
 80081d2:	4b0a      	ldr	r3, [pc, #40]	; (80081fc <_dtoa_r+0x56c>)
 80081d4:	f7f8 f992 	bl	80004fc <__aeabi_dmul>
 80081d8:	2200      	movs	r2, #0
 80081da:	e9cd 010e 	strd	r0, r1, [sp, #56]	; 0x38
 80081de:	4b07      	ldr	r3, [pc, #28]	; (80081fc <_dtoa_r+0x56c>)
 80081e0:	4650      	mov	r0, sl
 80081e2:	4659      	mov	r1, fp
 80081e4:	f7f8 f98a 	bl	80004fc <__aeabi_dmul>
 80081e8:	4682      	mov	sl, r0
 80081ea:	468b      	mov	fp, r1
 80081ec:	e7c5      	b.n	800817a <_dtoa_r+0x4ea>
 80081ee:	bf00      	nop
 80081f0:	0800c690 	.word	0x0800c690
 80081f4:	0800c668 	.word	0x0800c668
 80081f8:	3ff00000 	.word	0x3ff00000
 80081fc:	40240000 	.word	0x40240000
 8008200:	401c0000 	.word	0x401c0000
 8008204:	40140000 	.word	0x40140000
 8008208:	3fe00000 	.word	0x3fe00000
 800820c:	4630      	mov	r0, r6
 800820e:	4639      	mov	r1, r7
 8008210:	f7f8 f974 	bl	80004fc <__aeabi_dmul>
 8008214:	e9cd 010e 	strd	r0, r1, [sp, #56]	; 0x38
 8008218:	9f12      	ldr	r7, [sp, #72]	; 0x48
 800821a:	9e04      	ldr	r6, [sp, #16]
 800821c:	4659      	mov	r1, fp
 800821e:	4650      	mov	r0, sl
 8008220:	f7f8 fc1c 	bl	8000a5c <__aeabi_d2iz>
 8008224:	4604      	mov	r4, r0
 8008226:	f7f8 f8ff 	bl	8000428 <__aeabi_i2d>
 800822a:	4602      	mov	r2, r0
 800822c:	460b      	mov	r3, r1
 800822e:	4650      	mov	r0, sl
 8008230:	4659      	mov	r1, fp
 8008232:	f7f7 ffab 	bl	800018c <__aeabi_dsub>
 8008236:	3430      	adds	r4, #48	; 0x30
 8008238:	9b12      	ldr	r3, [sp, #72]	; 0x48
 800823a:	f806 4b01 	strb.w	r4, [r6], #1
 800823e:	429e      	cmp	r6, r3
 8008240:	4682      	mov	sl, r0
 8008242:	468b      	mov	fp, r1
 8008244:	f04f 0200 	mov.w	r2, #0
 8008248:	d123      	bne.n	8008292 <_dtoa_r+0x602>
 800824a:	e9dd 010e 	ldrd	r0, r1, [sp, #56]	; 0x38
 800824e:	4bb1      	ldr	r3, [pc, #708]	; (8008514 <_dtoa_r+0x884>)
 8008250:	f7f7 ff9e 	bl	8000190 <__adddf3>
 8008254:	4602      	mov	r2, r0
 8008256:	460b      	mov	r3, r1
 8008258:	4650      	mov	r0, sl
 800825a:	4659      	mov	r1, fp
 800825c:	f7f8 fbde 	bl	8000a1c <__aeabi_dcmpgt>
 8008260:	2800      	cmp	r0, #0
 8008262:	d166      	bne.n	8008332 <_dtoa_r+0x6a2>
 8008264:	e9dd 230e 	ldrd	r2, r3, [sp, #56]	; 0x38
 8008268:	2000      	movs	r0, #0
 800826a:	49aa      	ldr	r1, [pc, #680]	; (8008514 <_dtoa_r+0x884>)
 800826c:	f7f7 ff8e 	bl	800018c <__aeabi_dsub>
 8008270:	4602      	mov	r2, r0
 8008272:	460b      	mov	r3, r1
 8008274:	4650      	mov	r0, sl
 8008276:	4659      	mov	r1, fp
 8008278:	f7f8 fbb2 	bl	80009e0 <__aeabi_dcmplt>
 800827c:	2800      	cmp	r0, #0
 800827e:	f43f af22 	beq.w	80080c6 <_dtoa_r+0x436>
 8008282:	463e      	mov	r6, r7
 8008284:	f816 3c01 	ldrb.w	r3, [r6, #-1]
 8008288:	3f01      	subs	r7, #1
 800828a:	2b30      	cmp	r3, #48	; 0x30
 800828c:	d0f9      	beq.n	8008282 <_dtoa_r+0x5f2>
 800828e:	9503      	str	r5, [sp, #12]
 8008290:	e03e      	b.n	8008310 <_dtoa_r+0x680>
 8008292:	4ba1      	ldr	r3, [pc, #644]	; (8008518 <_dtoa_r+0x888>)
 8008294:	f7f8 f932 	bl	80004fc <__aeabi_dmul>
 8008298:	4682      	mov	sl, r0
 800829a:	468b      	mov	fp, r1
 800829c:	e7be      	b.n	800821c <_dtoa_r+0x58c>
 800829e:	4654      	mov	r4, sl
 80082a0:	f04f 0a00 	mov.w	sl, #0
 80082a4:	465d      	mov	r5, fp
 80082a6:	9e04      	ldr	r6, [sp, #16]
 80082a8:	f8df b26c 	ldr.w	fp, [pc, #620]	; 8008518 <_dtoa_r+0x888>
 80082ac:	e9dd 2306 	ldrd	r2, r3, [sp, #24]
 80082b0:	4620      	mov	r0, r4
 80082b2:	4629      	mov	r1, r5
 80082b4:	f7f8 fa4c 	bl	8000750 <__aeabi_ddiv>
 80082b8:	f7f8 fbd0 	bl	8000a5c <__aeabi_d2iz>
 80082bc:	4607      	mov	r7, r0
 80082be:	f7f8 f8b3 	bl	8000428 <__aeabi_i2d>
 80082c2:	e9dd 2306 	ldrd	r2, r3, [sp, #24]
 80082c6:	f7f8 f919 	bl	80004fc <__aeabi_dmul>
 80082ca:	4602      	mov	r2, r0
 80082cc:	460b      	mov	r3, r1
 80082ce:	4620      	mov	r0, r4
 80082d0:	4629      	mov	r1, r5
 80082d2:	f7f7 ff5b 	bl	800018c <__aeabi_dsub>
 80082d6:	f107 0430 	add.w	r4, r7, #48	; 0x30
 80082da:	f806 4b01 	strb.w	r4, [r6], #1
 80082de:	9c04      	ldr	r4, [sp, #16]
 80082e0:	9d05      	ldr	r5, [sp, #20]
 80082e2:	1b34      	subs	r4, r6, r4
 80082e4:	42a5      	cmp	r5, r4
 80082e6:	4602      	mov	r2, r0
 80082e8:	460b      	mov	r3, r1
 80082ea:	d133      	bne.n	8008354 <_dtoa_r+0x6c4>
 80082ec:	f7f7 ff50 	bl	8000190 <__adddf3>
 80082f0:	e9dd 2306 	ldrd	r2, r3, [sp, #24]
 80082f4:	4604      	mov	r4, r0
 80082f6:	460d      	mov	r5, r1
 80082f8:	f7f8 fb90 	bl	8000a1c <__aeabi_dcmpgt>
 80082fc:	b9c0      	cbnz	r0, 8008330 <_dtoa_r+0x6a0>
 80082fe:	e9dd 2306 	ldrd	r2, r3, [sp, #24]
 8008302:	4620      	mov	r0, r4
 8008304:	4629      	mov	r1, r5
 8008306:	f7f8 fb61 	bl	80009cc <__aeabi_dcmpeq>
 800830a:	b108      	cbz	r0, 8008310 <_dtoa_r+0x680>
 800830c:	07fb      	lsls	r3, r7, #31
 800830e:	d40f      	bmi.n	8008330 <_dtoa_r+0x6a0>
 8008310:	4641      	mov	r1, r8
 8008312:	4648      	mov	r0, r9
 8008314:	f001 fe01 	bl	8009f1a <_Bfree>
 8008318:	2300      	movs	r3, #0
 800831a:	7033      	strb	r3, [r6, #0]
 800831c:	9b03      	ldr	r3, [sp, #12]
 800831e:	9a22      	ldr	r2, [sp, #136]	; 0x88
 8008320:	3301      	adds	r3, #1
 8008322:	6013      	str	r3, [r2, #0]
 8008324:	9b24      	ldr	r3, [sp, #144]	; 0x90
 8008326:	2b00      	cmp	r3, #0
 8008328:	f43f ace8 	beq.w	8007cfc <_dtoa_r+0x6c>
 800832c:	601e      	str	r6, [r3, #0]
 800832e:	e4e5      	b.n	8007cfc <_dtoa_r+0x6c>
 8008330:	9d03      	ldr	r5, [sp, #12]
 8008332:	4633      	mov	r3, r6
 8008334:	461e      	mov	r6, r3
 8008336:	f813 2d01 	ldrb.w	r2, [r3, #-1]!
 800833a:	2a39      	cmp	r2, #57	; 0x39
 800833c:	d106      	bne.n	800834c <_dtoa_r+0x6bc>
 800833e:	9a04      	ldr	r2, [sp, #16]
 8008340:	429a      	cmp	r2, r3
 8008342:	d1f7      	bne.n	8008334 <_dtoa_r+0x6a4>
 8008344:	2230      	movs	r2, #48	; 0x30
 8008346:	9904      	ldr	r1, [sp, #16]
 8008348:	3501      	adds	r5, #1
 800834a:	700a      	strb	r2, [r1, #0]
 800834c:	781a      	ldrb	r2, [r3, #0]
 800834e:	3201      	adds	r2, #1
 8008350:	701a      	strb	r2, [r3, #0]
 8008352:	e79c      	b.n	800828e <_dtoa_r+0x5fe>
 8008354:	4652      	mov	r2, sl
 8008356:	465b      	mov	r3, fp
 8008358:	f7f8 f8d0 	bl	80004fc <__aeabi_dmul>
 800835c:	2200      	movs	r2, #0
 800835e:	2300      	movs	r3, #0
 8008360:	4604      	mov	r4, r0
 8008362:	460d      	mov	r5, r1
 8008364:	f7f8 fb32 	bl	80009cc <__aeabi_dcmpeq>
 8008368:	2800      	cmp	r0, #0
 800836a:	d09f      	beq.n	80082ac <_dtoa_r+0x61c>
 800836c:	e7d0      	b.n	8008310 <_dtoa_r+0x680>
 800836e:	9a0b      	ldr	r2, [sp, #44]	; 0x2c
 8008370:	2a00      	cmp	r2, #0
 8008372:	f000 80ca 	beq.w	800850a <_dtoa_r+0x87a>
 8008376:	9a20      	ldr	r2, [sp, #128]	; 0x80
 8008378:	2a01      	cmp	r2, #1
 800837a:	f300 80ad 	bgt.w	80084d8 <_dtoa_r+0x848>
 800837e:	9a13      	ldr	r2, [sp, #76]	; 0x4c
 8008380:	2a00      	cmp	r2, #0
 8008382:	f000 80a5 	beq.w	80084d0 <_dtoa_r+0x840>
 8008386:	f203 4333 	addw	r3, r3, #1075	; 0x433
 800838a:	9c0a      	ldr	r4, [sp, #40]	; 0x28
 800838c:	9e06      	ldr	r6, [sp, #24]
 800838e:	9a06      	ldr	r2, [sp, #24]
 8008390:	2101      	movs	r1, #1
 8008392:	441a      	add	r2, r3
 8008394:	9206      	str	r2, [sp, #24]
 8008396:	9a09      	ldr	r2, [sp, #36]	; 0x24
 8008398:	4648      	mov	r0, r9
 800839a:	441a      	add	r2, r3
 800839c:	9209      	str	r2, [sp, #36]	; 0x24
 800839e:	f001 fe59 	bl	800a054 <__i2b>
 80083a2:	4605      	mov	r5, r0
 80083a4:	b166      	cbz	r6, 80083c0 <_dtoa_r+0x730>
 80083a6:	9b09      	ldr	r3, [sp, #36]	; 0x24
 80083a8:	2b00      	cmp	r3, #0
 80083aa:	dd09      	ble.n	80083c0 <_dtoa_r+0x730>
 80083ac:	42b3      	cmp	r3, r6
 80083ae:	bfa8      	it	ge
 80083b0:	4633      	movge	r3, r6
 80083b2:	9a06      	ldr	r2, [sp, #24]
 80083b4:	1af6      	subs	r6, r6, r3
 80083b6:	1ad2      	subs	r2, r2, r3
 80083b8:	9206      	str	r2, [sp, #24]
 80083ba:	9a09      	ldr	r2, [sp, #36]	; 0x24
 80083bc:	1ad3      	subs	r3, r2, r3
 80083be:	9309      	str	r3, [sp, #36]	; 0x24
 80083c0:	9b0a      	ldr	r3, [sp, #40]	; 0x28
 80083c2:	b1f3      	cbz	r3, 8008402 <_dtoa_r+0x772>
 80083c4:	9b0b      	ldr	r3, [sp, #44]	; 0x2c
 80083c6:	2b00      	cmp	r3, #0
 80083c8:	f000 80a8 	beq.w	800851c <_dtoa_r+0x88c>
 80083cc:	2c00      	cmp	r4, #0
 80083ce:	dd10      	ble.n	80083f2 <_dtoa_r+0x762>
 80083d0:	4629      	mov	r1, r5
 80083d2:	4622      	mov	r2, r4
 80083d4:	4648      	mov	r0, r9
 80083d6:	f001 fefb 	bl	800a1d0 <__pow5mult>
 80083da:	4642      	mov	r2, r8
 80083dc:	4601      	mov	r1, r0
 80083de:	4605      	mov	r5, r0
 80083e0:	4648      	mov	r0, r9
 80083e2:	f001 fe4d 	bl	800a080 <__multiply>
 80083e6:	4607      	mov	r7, r0
 80083e8:	4641      	mov	r1, r8
 80083ea:	4648      	mov	r0, r9
 80083ec:	f001 fd95 	bl	8009f1a <_Bfree>
 80083f0:	46b8      	mov	r8, r7
 80083f2:	9b0a      	ldr	r3, [sp, #40]	; 0x28
 80083f4:	1b1a      	subs	r2, r3, r4
 80083f6:	d004      	beq.n	8008402 <_dtoa_r+0x772>
 80083f8:	4641      	mov	r1, r8
 80083fa:	4648      	mov	r0, r9
 80083fc:	f001 fee8 	bl	800a1d0 <__pow5mult>
 8008400:	4680      	mov	r8, r0
 8008402:	2101      	movs	r1, #1
 8008404:	4648      	mov	r0, r9
 8008406:	f001 fe25 	bl	800a054 <__i2b>
 800840a:	9b10      	ldr	r3, [sp, #64]	; 0x40
 800840c:	4604      	mov	r4, r0
 800840e:	2b00      	cmp	r3, #0
 8008410:	f340 8086 	ble.w	8008520 <_dtoa_r+0x890>
 8008414:	461a      	mov	r2, r3
 8008416:	4601      	mov	r1, r0
 8008418:	4648      	mov	r0, r9
 800841a:	f001 fed9 	bl	800a1d0 <__pow5mult>
 800841e:	9b20      	ldr	r3, [sp, #128]	; 0x80
 8008420:	4604      	mov	r4, r0
 8008422:	2b01      	cmp	r3, #1
 8008424:	dd7f      	ble.n	8008526 <_dtoa_r+0x896>
 8008426:	2700      	movs	r7, #0
 8008428:	6923      	ldr	r3, [r4, #16]
 800842a:	eb04 0383 	add.w	r3, r4, r3, lsl #2
 800842e:	6918      	ldr	r0, [r3, #16]
 8008430:	f001 fdc2 	bl	8009fb8 <__hi0bits>
 8008434:	f1c0 0020 	rsb	r0, r0, #32
 8008438:	9b09      	ldr	r3, [sp, #36]	; 0x24
 800843a:	4418      	add	r0, r3
 800843c:	f010 001f 	ands.w	r0, r0, #31
 8008440:	f000 8098 	beq.w	8008574 <_dtoa_r+0x8e4>
 8008444:	f1c0 0320 	rsb	r3, r0, #32
 8008448:	2b04      	cmp	r3, #4
 800844a:	f340 8088 	ble.w	800855e <_dtoa_r+0x8ce>
 800844e:	9b06      	ldr	r3, [sp, #24]
 8008450:	f1c0 001c 	rsb	r0, r0, #28
 8008454:	4403      	add	r3, r0
 8008456:	9306      	str	r3, [sp, #24]
 8008458:	9b09      	ldr	r3, [sp, #36]	; 0x24
 800845a:	4406      	add	r6, r0
 800845c:	4403      	add	r3, r0
 800845e:	9309      	str	r3, [sp, #36]	; 0x24
 8008460:	9b06      	ldr	r3, [sp, #24]
 8008462:	2b00      	cmp	r3, #0
 8008464:	dd05      	ble.n	8008472 <_dtoa_r+0x7e2>
 8008466:	4641      	mov	r1, r8
 8008468:	461a      	mov	r2, r3
 800846a:	4648      	mov	r0, r9
 800846c:	f001 fef0 	bl	800a250 <__lshift>
 8008470:	4680      	mov	r8, r0
 8008472:	9b09      	ldr	r3, [sp, #36]	; 0x24
 8008474:	2b00      	cmp	r3, #0
 8008476:	dd05      	ble.n	8008484 <_dtoa_r+0x7f4>
 8008478:	4621      	mov	r1, r4
 800847a:	461a      	mov	r2, r3
 800847c:	4648      	mov	r0, r9
 800847e:	f001 fee7 	bl	800a250 <__lshift>
 8008482:	4604      	mov	r4, r0
 8008484:	9b11      	ldr	r3, [sp, #68]	; 0x44
 8008486:	2b00      	cmp	r3, #0
 8008488:	d076      	beq.n	8008578 <_dtoa_r+0x8e8>
 800848a:	4621      	mov	r1, r4
 800848c:	4640      	mov	r0, r8
 800848e:	f001 ff4b 	bl	800a328 <__mcmp>
 8008492:	2800      	cmp	r0, #0
 8008494:	da70      	bge.n	8008578 <_dtoa_r+0x8e8>
 8008496:	9b03      	ldr	r3, [sp, #12]
 8008498:	4641      	mov	r1, r8
 800849a:	3b01      	subs	r3, #1
 800849c:	9303      	str	r3, [sp, #12]
 800849e:	220a      	movs	r2, #10
 80084a0:	2300      	movs	r3, #0
 80084a2:	4648      	mov	r0, r9
 80084a4:	f001 fd42 	bl	8009f2c <__multadd>
 80084a8:	9b0b      	ldr	r3, [sp, #44]	; 0x2c
 80084aa:	4680      	mov	r8, r0
 80084ac:	2b00      	cmp	r3, #0
 80084ae:	f000 81a9 	beq.w	8008804 <_dtoa_r+0xb74>
 80084b2:	2300      	movs	r3, #0
 80084b4:	4629      	mov	r1, r5
 80084b6:	220a      	movs	r2, #10
 80084b8:	4648      	mov	r0, r9
 80084ba:	f001 fd37 	bl	8009f2c <__multadd>
 80084be:	9b08      	ldr	r3, [sp, #32]
 80084c0:	4605      	mov	r5, r0
 80084c2:	2b00      	cmp	r3, #0
 80084c4:	f300 8093 	bgt.w	80085ee <_dtoa_r+0x95e>
 80084c8:	9b20      	ldr	r3, [sp, #128]	; 0x80
 80084ca:	2b02      	cmp	r3, #2
 80084cc:	dc5c      	bgt.n	8008588 <_dtoa_r+0x8f8>
 80084ce:	e08e      	b.n	80085ee <_dtoa_r+0x95e>
 80084d0:	9b14      	ldr	r3, [sp, #80]	; 0x50
 80084d2:	f1c3 0336 	rsb	r3, r3, #54	; 0x36
 80084d6:	e758      	b.n	800838a <_dtoa_r+0x6fa>
 80084d8:	9b05      	ldr	r3, [sp, #20]
 80084da:	1e5c      	subs	r4, r3, #1
 80084dc:	9b0a      	ldr	r3, [sp, #40]	; 0x28
 80084de:	42a3      	cmp	r3, r4
 80084e0:	bfbf      	itttt	lt
 80084e2:	9b0a      	ldrlt	r3, [sp, #40]	; 0x28
 80084e4:	9a10      	ldrlt	r2, [sp, #64]	; 0x40
 80084e6:	1ae3      	sublt	r3, r4, r3
 80084e8:	18d2      	addlt	r2, r2, r3
 80084ea:	bfa8      	it	ge
 80084ec:	1b1c      	subge	r4, r3, r4
 80084ee:	9b05      	ldr	r3, [sp, #20]
 80084f0:	bfbe      	ittt	lt
 80084f2:	9210      	strlt	r2, [sp, #64]	; 0x40
 80084f4:	940a      	strlt	r4, [sp, #40]	; 0x28
 80084f6:	2400      	movlt	r4, #0
 80084f8:	2b00      	cmp	r3, #0
 80084fa:	bfb7      	itett	lt
 80084fc:	e9dd 2305 	ldrdlt	r2, r3, [sp, #20]
 8008500:	e9dd 3605 	ldrdge	r3, r6, [sp, #20]
 8008504:	1a9e      	sublt	r6, r3, r2
 8008506:	2300      	movlt	r3, #0
 8008508:	e741      	b.n	800838e <_dtoa_r+0x6fe>
 800850a:	9c0a      	ldr	r4, [sp, #40]	; 0x28
 800850c:	9e06      	ldr	r6, [sp, #24]
 800850e:	9d0b      	ldr	r5, [sp, #44]	; 0x2c
 8008510:	e748      	b.n	80083a4 <_dtoa_r+0x714>
 8008512:	bf00      	nop
 8008514:	3fe00000 	.word	0x3fe00000
 8008518:	40240000 	.word	0x40240000
 800851c:	9a0a      	ldr	r2, [sp, #40]	; 0x28
 800851e:	e76b      	b.n	80083f8 <_dtoa_r+0x768>
 8008520:	9b20      	ldr	r3, [sp, #128]	; 0x80
 8008522:	2b01      	cmp	r3, #1
 8008524:	dc17      	bgt.n	8008556 <_dtoa_r+0x8c6>
 8008526:	f1ba 0f00 	cmp.w	sl, #0
 800852a:	d114      	bne.n	8008556 <_dtoa_r+0x8c6>
 800852c:	f3cb 0313 	ubfx	r3, fp, #0, #20
 8008530:	b99b      	cbnz	r3, 800855a <_dtoa_r+0x8ca>
 8008532:	f02b 4700 	bic.w	r7, fp, #2147483648	; 0x80000000
 8008536:	0d3f      	lsrs	r7, r7, #20
 8008538:	053f      	lsls	r7, r7, #20
 800853a:	b137      	cbz	r7, 800854a <_dtoa_r+0x8ba>
 800853c:	2701      	movs	r7, #1
 800853e:	9b06      	ldr	r3, [sp, #24]
 8008540:	3301      	adds	r3, #1
 8008542:	9306      	str	r3, [sp, #24]
 8008544:	9b09      	ldr	r3, [sp, #36]	; 0x24
 8008546:	3301      	adds	r3, #1
 8008548:	9309      	str	r3, [sp, #36]	; 0x24
 800854a:	9b10      	ldr	r3, [sp, #64]	; 0x40
 800854c:	2b00      	cmp	r3, #0
 800854e:	f47f af6b 	bne.w	8008428 <_dtoa_r+0x798>
 8008552:	2001      	movs	r0, #1
 8008554:	e770      	b.n	8008438 <_dtoa_r+0x7a8>
 8008556:	2700      	movs	r7, #0
 8008558:	e7f7      	b.n	800854a <_dtoa_r+0x8ba>
 800855a:	4657      	mov	r7, sl
 800855c:	e7f5      	b.n	800854a <_dtoa_r+0x8ba>
 800855e:	f43f af7f 	beq.w	8008460 <_dtoa_r+0x7d0>
 8008562:	9a06      	ldr	r2, [sp, #24]
 8008564:	331c      	adds	r3, #28
 8008566:	441a      	add	r2, r3
 8008568:	9206      	str	r2, [sp, #24]
 800856a:	9a09      	ldr	r2, [sp, #36]	; 0x24
 800856c:	441e      	add	r6, r3
 800856e:	441a      	add	r2, r3
 8008570:	9209      	str	r2, [sp, #36]	; 0x24
 8008572:	e775      	b.n	8008460 <_dtoa_r+0x7d0>
 8008574:	4603      	mov	r3, r0
 8008576:	e7f4      	b.n	8008562 <_dtoa_r+0x8d2>
 8008578:	9b05      	ldr	r3, [sp, #20]
 800857a:	2b00      	cmp	r3, #0
 800857c:	dc31      	bgt.n	80085e2 <_dtoa_r+0x952>
 800857e:	9b20      	ldr	r3, [sp, #128]	; 0x80
 8008580:	2b02      	cmp	r3, #2
 8008582:	dd2e      	ble.n	80085e2 <_dtoa_r+0x952>
 8008584:	9b05      	ldr	r3, [sp, #20]
 8008586:	9308      	str	r3, [sp, #32]
 8008588:	9b08      	ldr	r3, [sp, #32]
 800858a:	b963      	cbnz	r3, 80085a6 <_dtoa_r+0x916>
 800858c:	4621      	mov	r1, r4
 800858e:	2205      	movs	r2, #5
 8008590:	4648      	mov	r0, r9
 8008592:	f001 fccb 	bl	8009f2c <__multadd>
 8008596:	4601      	mov	r1, r0
 8008598:	4604      	mov	r4, r0
 800859a:	4640      	mov	r0, r8
 800859c:	f001 fec4 	bl	800a328 <__mcmp>
 80085a0:	2800      	cmp	r0, #0
 80085a2:	f73f adba 	bgt.w	800811a <_dtoa_r+0x48a>
 80085a6:	9b21      	ldr	r3, [sp, #132]	; 0x84
 80085a8:	9e04      	ldr	r6, [sp, #16]
 80085aa:	43db      	mvns	r3, r3
 80085ac:	9303      	str	r3, [sp, #12]
 80085ae:	2700      	movs	r7, #0
 80085b0:	4621      	mov	r1, r4
 80085b2:	4648      	mov	r0, r9
 80085b4:	f001 fcb1 	bl	8009f1a <_Bfree>
 80085b8:	2d00      	cmp	r5, #0
 80085ba:	f43f aea9 	beq.w	8008310 <_dtoa_r+0x680>
 80085be:	b12f      	cbz	r7, 80085cc <_dtoa_r+0x93c>
 80085c0:	42af      	cmp	r7, r5
 80085c2:	d003      	beq.n	80085cc <_dtoa_r+0x93c>
 80085c4:	4639      	mov	r1, r7
 80085c6:	4648      	mov	r0, r9
 80085c8:	f001 fca7 	bl	8009f1a <_Bfree>
 80085cc:	4629      	mov	r1, r5
 80085ce:	4648      	mov	r0, r9
 80085d0:	f001 fca3 	bl	8009f1a <_Bfree>
 80085d4:	e69c      	b.n	8008310 <_dtoa_r+0x680>
 80085d6:	2400      	movs	r4, #0
 80085d8:	4625      	mov	r5, r4
 80085da:	e7e4      	b.n	80085a6 <_dtoa_r+0x916>
 80085dc:	9503      	str	r5, [sp, #12]
 80085de:	4625      	mov	r5, r4
 80085e0:	e59b      	b.n	800811a <_dtoa_r+0x48a>
 80085e2:	9b0b      	ldr	r3, [sp, #44]	; 0x2c
 80085e4:	2b00      	cmp	r3, #0
 80085e6:	f000 80c4 	beq.w	8008772 <_dtoa_r+0xae2>
 80085ea:	9b05      	ldr	r3, [sp, #20]
 80085ec:	9308      	str	r3, [sp, #32]
 80085ee:	2e00      	cmp	r6, #0
 80085f0:	dd05      	ble.n	80085fe <_dtoa_r+0x96e>
 80085f2:	4629      	mov	r1, r5
 80085f4:	4632      	mov	r2, r6
 80085f6:	4648      	mov	r0, r9
 80085f8:	f001 fe2a 	bl	800a250 <__lshift>
 80085fc:	4605      	mov	r5, r0
 80085fe:	2f00      	cmp	r7, #0
 8008600:	d058      	beq.n	80086b4 <_dtoa_r+0xa24>
 8008602:	4648      	mov	r0, r9
 8008604:	6869      	ldr	r1, [r5, #4]
 8008606:	f001 fc63 	bl	8009ed0 <_Balloc>
 800860a:	4606      	mov	r6, r0
 800860c:	b920      	cbnz	r0, 8008618 <_dtoa_r+0x988>
 800860e:	4602      	mov	r2, r0
 8008610:	f240 21ef 	movw	r1, #751	; 0x2ef
 8008614:	4b7f      	ldr	r3, [pc, #508]	; (8008814 <_dtoa_r+0xb84>)
 8008616:	e477      	b.n	8007f08 <_dtoa_r+0x278>
 8008618:	692a      	ldr	r2, [r5, #16]
 800861a:	f105 010c 	add.w	r1, r5, #12
 800861e:	3202      	adds	r2, #2
 8008620:	0092      	lsls	r2, r2, #2
 8008622:	300c      	adds	r0, #12
 8008624:	f7ff fa42 	bl	8007aac <memcpy>
 8008628:	2201      	movs	r2, #1
 800862a:	4631      	mov	r1, r6
 800862c:	4648      	mov	r0, r9
 800862e:	f001 fe0f 	bl	800a250 <__lshift>
 8008632:	462f      	mov	r7, r5
 8008634:	4605      	mov	r5, r0
 8008636:	9b04      	ldr	r3, [sp, #16]
 8008638:	9a04      	ldr	r2, [sp, #16]
 800863a:	3301      	adds	r3, #1
 800863c:	9305      	str	r3, [sp, #20]
 800863e:	9b08      	ldr	r3, [sp, #32]
 8008640:	4413      	add	r3, r2
 8008642:	930a      	str	r3, [sp, #40]	; 0x28
 8008644:	f00a 0301 	and.w	r3, sl, #1
 8008648:	9309      	str	r3, [sp, #36]	; 0x24
 800864a:	9b05      	ldr	r3, [sp, #20]
 800864c:	4621      	mov	r1, r4
 800864e:	4640      	mov	r0, r8
 8008650:	f103 3bff 	add.w	fp, r3, #4294967295	; 0xffffffff
 8008654:	f7ff fa92 	bl	8007b7c <quorem>
 8008658:	4639      	mov	r1, r7
 800865a:	9006      	str	r0, [sp, #24]
 800865c:	f100 0a30 	add.w	sl, r0, #48	; 0x30
 8008660:	4640      	mov	r0, r8
 8008662:	f001 fe61 	bl	800a328 <__mcmp>
 8008666:	462a      	mov	r2, r5
 8008668:	9008      	str	r0, [sp, #32]
 800866a:	4621      	mov	r1, r4
 800866c:	4648      	mov	r0, r9
 800866e:	f001 fe77 	bl	800a360 <__mdiff>
 8008672:	68c2      	ldr	r2, [r0, #12]
 8008674:	4606      	mov	r6, r0
 8008676:	b9fa      	cbnz	r2, 80086b8 <_dtoa_r+0xa28>
 8008678:	4601      	mov	r1, r0
 800867a:	4640      	mov	r0, r8
 800867c:	f001 fe54 	bl	800a328 <__mcmp>
 8008680:	4602      	mov	r2, r0
 8008682:	4631      	mov	r1, r6
 8008684:	4648      	mov	r0, r9
 8008686:	920b      	str	r2, [sp, #44]	; 0x2c
 8008688:	f001 fc47 	bl	8009f1a <_Bfree>
 800868c:	9b20      	ldr	r3, [sp, #128]	; 0x80
 800868e:	9a0b      	ldr	r2, [sp, #44]	; 0x2c
 8008690:	9e05      	ldr	r6, [sp, #20]
 8008692:	ea43 0102 	orr.w	r1, r3, r2
 8008696:	9b09      	ldr	r3, [sp, #36]	; 0x24
 8008698:	4319      	orrs	r1, r3
 800869a:	d10f      	bne.n	80086bc <_dtoa_r+0xa2c>
 800869c:	f1ba 0f39 	cmp.w	sl, #57	; 0x39
 80086a0:	d028      	beq.n	80086f4 <_dtoa_r+0xa64>
 80086a2:	9b08      	ldr	r3, [sp, #32]
 80086a4:	2b00      	cmp	r3, #0
 80086a6:	dd02      	ble.n	80086ae <_dtoa_r+0xa1e>
 80086a8:	9b06      	ldr	r3, [sp, #24]
 80086aa:	f103 0a31 	add.w	sl, r3, #49	; 0x31
 80086ae:	f88b a000 	strb.w	sl, [fp]
 80086b2:	e77d      	b.n	80085b0 <_dtoa_r+0x920>
 80086b4:	4628      	mov	r0, r5
 80086b6:	e7bc      	b.n	8008632 <_dtoa_r+0x9a2>
 80086b8:	2201      	movs	r2, #1
 80086ba:	e7e2      	b.n	8008682 <_dtoa_r+0x9f2>
 80086bc:	9b08      	ldr	r3, [sp, #32]
 80086be:	2b00      	cmp	r3, #0
 80086c0:	db04      	blt.n	80086cc <_dtoa_r+0xa3c>
 80086c2:	9920      	ldr	r1, [sp, #128]	; 0x80
 80086c4:	430b      	orrs	r3, r1
 80086c6:	9909      	ldr	r1, [sp, #36]	; 0x24
 80086c8:	430b      	orrs	r3, r1
 80086ca:	d120      	bne.n	800870e <_dtoa_r+0xa7e>
 80086cc:	2a00      	cmp	r2, #0
 80086ce:	ddee      	ble.n	80086ae <_dtoa_r+0xa1e>
 80086d0:	4641      	mov	r1, r8
 80086d2:	2201      	movs	r2, #1
 80086d4:	4648      	mov	r0, r9
 80086d6:	f001 fdbb 	bl	800a250 <__lshift>
 80086da:	4621      	mov	r1, r4
 80086dc:	4680      	mov	r8, r0
 80086de:	f001 fe23 	bl	800a328 <__mcmp>
 80086e2:	2800      	cmp	r0, #0
 80086e4:	dc03      	bgt.n	80086ee <_dtoa_r+0xa5e>
 80086e6:	d1e2      	bne.n	80086ae <_dtoa_r+0xa1e>
 80086e8:	f01a 0f01 	tst.w	sl, #1
 80086ec:	d0df      	beq.n	80086ae <_dtoa_r+0xa1e>
 80086ee:	f1ba 0f39 	cmp.w	sl, #57	; 0x39
 80086f2:	d1d9      	bne.n	80086a8 <_dtoa_r+0xa18>
 80086f4:	2339      	movs	r3, #57	; 0x39
 80086f6:	f88b 3000 	strb.w	r3, [fp]
 80086fa:	4633      	mov	r3, r6
 80086fc:	461e      	mov	r6, r3
 80086fe:	f816 2c01 	ldrb.w	r2, [r6, #-1]
 8008702:	3b01      	subs	r3, #1
 8008704:	2a39      	cmp	r2, #57	; 0x39
 8008706:	d06a      	beq.n	80087de <_dtoa_r+0xb4e>
 8008708:	3201      	adds	r2, #1
 800870a:	701a      	strb	r2, [r3, #0]
 800870c:	e750      	b.n	80085b0 <_dtoa_r+0x920>
 800870e:	2a00      	cmp	r2, #0
 8008710:	dd07      	ble.n	8008722 <_dtoa_r+0xa92>
 8008712:	f1ba 0f39 	cmp.w	sl, #57	; 0x39
 8008716:	d0ed      	beq.n	80086f4 <_dtoa_r+0xa64>
 8008718:	f10a 0301 	add.w	r3, sl, #1
 800871c:	f88b 3000 	strb.w	r3, [fp]
 8008720:	e746      	b.n	80085b0 <_dtoa_r+0x920>
 8008722:	9b05      	ldr	r3, [sp, #20]
 8008724:	9a0a      	ldr	r2, [sp, #40]	; 0x28
 8008726:	f803 ac01 	strb.w	sl, [r3, #-1]
 800872a:	4293      	cmp	r3, r2
 800872c:	d041      	beq.n	80087b2 <_dtoa_r+0xb22>
 800872e:	4641      	mov	r1, r8
 8008730:	2300      	movs	r3, #0
 8008732:	220a      	movs	r2, #10
 8008734:	4648      	mov	r0, r9
 8008736:	f001 fbf9 	bl	8009f2c <__multadd>
 800873a:	42af      	cmp	r7, r5
 800873c:	4680      	mov	r8, r0
 800873e:	f04f 0300 	mov.w	r3, #0
 8008742:	f04f 020a 	mov.w	r2, #10
 8008746:	4639      	mov	r1, r7
 8008748:	4648      	mov	r0, r9
 800874a:	d107      	bne.n	800875c <_dtoa_r+0xacc>
 800874c:	f001 fbee 	bl	8009f2c <__multadd>
 8008750:	4607      	mov	r7, r0
 8008752:	4605      	mov	r5, r0
 8008754:	9b05      	ldr	r3, [sp, #20]
 8008756:	3301      	adds	r3, #1
 8008758:	9305      	str	r3, [sp, #20]
 800875a:	e776      	b.n	800864a <_dtoa_r+0x9ba>
 800875c:	f001 fbe6 	bl	8009f2c <__multadd>
 8008760:	4629      	mov	r1, r5
 8008762:	4607      	mov	r7, r0
 8008764:	2300      	movs	r3, #0
 8008766:	220a      	movs	r2, #10
 8008768:	4648      	mov	r0, r9
 800876a:	f001 fbdf 	bl	8009f2c <__multadd>
 800876e:	4605      	mov	r5, r0
 8008770:	e7f0      	b.n	8008754 <_dtoa_r+0xac4>
 8008772:	9b05      	ldr	r3, [sp, #20]
 8008774:	9308      	str	r3, [sp, #32]
 8008776:	9e04      	ldr	r6, [sp, #16]
 8008778:	4621      	mov	r1, r4
 800877a:	4640      	mov	r0, r8
 800877c:	f7ff f9fe 	bl	8007b7c <quorem>
 8008780:	9b04      	ldr	r3, [sp, #16]
 8008782:	f100 0a30 	add.w	sl, r0, #48	; 0x30
 8008786:	f806 ab01 	strb.w	sl, [r6], #1
 800878a:	1af2      	subs	r2, r6, r3
 800878c:	9b08      	ldr	r3, [sp, #32]
 800878e:	4293      	cmp	r3, r2
 8008790:	dd07      	ble.n	80087a2 <_dtoa_r+0xb12>
 8008792:	4641      	mov	r1, r8
 8008794:	2300      	movs	r3, #0
 8008796:	220a      	movs	r2, #10
 8008798:	4648      	mov	r0, r9
 800879a:	f001 fbc7 	bl	8009f2c <__multadd>
 800879e:	4680      	mov	r8, r0
 80087a0:	e7ea      	b.n	8008778 <_dtoa_r+0xae8>
 80087a2:	9b08      	ldr	r3, [sp, #32]
 80087a4:	2700      	movs	r7, #0
 80087a6:	2b00      	cmp	r3, #0
 80087a8:	bfcc      	ite	gt
 80087aa:	461e      	movgt	r6, r3
 80087ac:	2601      	movle	r6, #1
 80087ae:	9b04      	ldr	r3, [sp, #16]
 80087b0:	441e      	add	r6, r3
 80087b2:	4641      	mov	r1, r8
 80087b4:	2201      	movs	r2, #1
 80087b6:	4648      	mov	r0, r9
 80087b8:	f001 fd4a 	bl	800a250 <__lshift>
 80087bc:	4621      	mov	r1, r4
 80087be:	4680      	mov	r8, r0
 80087c0:	f001 fdb2 	bl	800a328 <__mcmp>
 80087c4:	2800      	cmp	r0, #0
 80087c6:	dc98      	bgt.n	80086fa <_dtoa_r+0xa6a>
 80087c8:	d102      	bne.n	80087d0 <_dtoa_r+0xb40>
 80087ca:	f01a 0f01 	tst.w	sl, #1
 80087ce:	d194      	bne.n	80086fa <_dtoa_r+0xa6a>
 80087d0:	4633      	mov	r3, r6
 80087d2:	461e      	mov	r6, r3
 80087d4:	f813 2d01 	ldrb.w	r2, [r3, #-1]!
 80087d8:	2a30      	cmp	r2, #48	; 0x30
 80087da:	d0fa      	beq.n	80087d2 <_dtoa_r+0xb42>
 80087dc:	e6e8      	b.n	80085b0 <_dtoa_r+0x920>
 80087de:	9a04      	ldr	r2, [sp, #16]
 80087e0:	429a      	cmp	r2, r3
 80087e2:	d18b      	bne.n	80086fc <_dtoa_r+0xa6c>
 80087e4:	9b03      	ldr	r3, [sp, #12]
 80087e6:	3301      	adds	r3, #1
 80087e8:	9303      	str	r3, [sp, #12]
 80087ea:	2331      	movs	r3, #49	; 0x31
 80087ec:	7013      	strb	r3, [r2, #0]
 80087ee:	e6df      	b.n	80085b0 <_dtoa_r+0x920>
 80087f0:	4b09      	ldr	r3, [pc, #36]	; (8008818 <_dtoa_r+0xb88>)
 80087f2:	f7ff baa0 	b.w	8007d36 <_dtoa_r+0xa6>
 80087f6:	9b24      	ldr	r3, [sp, #144]	; 0x90
 80087f8:	2b00      	cmp	r3, #0
 80087fa:	f47f aa83 	bne.w	8007d04 <_dtoa_r+0x74>
 80087fe:	4b07      	ldr	r3, [pc, #28]	; (800881c <_dtoa_r+0xb8c>)
 8008800:	f7ff ba99 	b.w	8007d36 <_dtoa_r+0xa6>
 8008804:	9b08      	ldr	r3, [sp, #32]
 8008806:	2b00      	cmp	r3, #0
 8008808:	dcb5      	bgt.n	8008776 <_dtoa_r+0xae6>
 800880a:	9b20      	ldr	r3, [sp, #128]	; 0x80
 800880c:	2b02      	cmp	r3, #2
 800880e:	f73f aebb 	bgt.w	8008588 <_dtoa_r+0x8f8>
 8008812:	e7b0      	b.n	8008776 <_dtoa_r+0xae6>
 8008814:	0800c585 	.word	0x0800c585
 8008818:	0800c42b 	.word	0x0800c42b
 800881c:	0800c578 	.word	0x0800c578

08008820 <_malloc_trim_r>:
 8008820:	e92d 41f0 	stmdb	sp!, {r4, r5, r6, r7, r8, lr}
 8008824:	4606      	mov	r6, r0
 8008826:	2008      	movs	r0, #8
 8008828:	460c      	mov	r4, r1
 800882a:	f7ff f8fd 	bl	8007a28 <sysconf>
 800882e:	4680      	mov	r8, r0
 8008830:	4f22      	ldr	r7, [pc, #136]	; (80088bc <_malloc_trim_r+0x9c>)
 8008832:	4630      	mov	r0, r6
 8008834:	f7fe fc38 	bl	80070a8 <__malloc_lock>
 8008838:	68bb      	ldr	r3, [r7, #8]
 800883a:	685d      	ldr	r5, [r3, #4]
 800883c:	f025 0503 	bic.w	r5, r5, #3
 8008840:	1b2c      	subs	r4, r5, r4
 8008842:	3c11      	subs	r4, #17
 8008844:	4444      	add	r4, r8
 8008846:	fbb4 f4f8 	udiv	r4, r4, r8
 800884a:	3c01      	subs	r4, #1
 800884c:	fb08 f404 	mul.w	r4, r8, r4
 8008850:	45a0      	cmp	r8, r4
 8008852:	dd05      	ble.n	8008860 <_malloc_trim_r+0x40>
 8008854:	4630      	mov	r0, r6
 8008856:	f7fe fc2d 	bl	80070b4 <__malloc_unlock>
 800885a:	2000      	movs	r0, #0
 800885c:	e8bd 81f0 	ldmia.w	sp!, {r4, r5, r6, r7, r8, pc}
 8008860:	2100      	movs	r1, #0
 8008862:	4630      	mov	r0, r6
 8008864:	f7f9 f954 	bl	8001b10 <_sbrk_r>
 8008868:	68bb      	ldr	r3, [r7, #8]
 800886a:	442b      	add	r3, r5
 800886c:	4298      	cmp	r0, r3
 800886e:	d1f1      	bne.n	8008854 <_malloc_trim_r+0x34>
 8008870:	4630      	mov	r0, r6
 8008872:	4261      	negs	r1, r4
 8008874:	f7f9 f94c 	bl	8001b10 <_sbrk_r>
 8008878:	3001      	adds	r0, #1
 800887a:	d110      	bne.n	800889e <_malloc_trim_r+0x7e>
 800887c:	2100      	movs	r1, #0
 800887e:	4630      	mov	r0, r6
 8008880:	f7f9 f946 	bl	8001b10 <_sbrk_r>
 8008884:	68ba      	ldr	r2, [r7, #8]
 8008886:	1a83      	subs	r3, r0, r2
 8008888:	2b0f      	cmp	r3, #15
 800888a:	dde3      	ble.n	8008854 <_malloc_trim_r+0x34>
 800888c:	490c      	ldr	r1, [pc, #48]	; (80088c0 <_malloc_trim_r+0xa0>)
 800888e:	f043 0301 	orr.w	r3, r3, #1
 8008892:	6809      	ldr	r1, [r1, #0]
 8008894:	6053      	str	r3, [r2, #4]
 8008896:	1a40      	subs	r0, r0, r1
 8008898:	490a      	ldr	r1, [pc, #40]	; (80088c4 <_malloc_trim_r+0xa4>)
 800889a:	6008      	str	r0, [r1, #0]
 800889c:	e7da      	b.n	8008854 <_malloc_trim_r+0x34>
 800889e:	68bb      	ldr	r3, [r7, #8]
 80088a0:	4a08      	ldr	r2, [pc, #32]	; (80088c4 <_malloc_trim_r+0xa4>)
 80088a2:	1b2d      	subs	r5, r5, r4
 80088a4:	f045 0501 	orr.w	r5, r5, #1
 80088a8:	605d      	str	r5, [r3, #4]
 80088aa:	6813      	ldr	r3, [r2, #0]
 80088ac:	4630      	mov	r0, r6
 80088ae:	1b1b      	subs	r3, r3, r4
 80088b0:	6013      	str	r3, [r2, #0]
 80088b2:	f7fe fbff 	bl	80070b4 <__malloc_unlock>
 80088b6:	2001      	movs	r0, #1
 80088b8:	e7d0      	b.n	800885c <_malloc_trim_r+0x3c>
 80088ba:	bf00      	nop
 80088bc:	20000034 	.word	0x20000034
 80088c0:	2000043c 	.word	0x2000043c
 80088c4:	20000d90 	.word	0x20000d90

080088c8 <_free_r>:
 80088c8:	b5f8      	push	{r3, r4, r5, r6, r7, lr}
 80088ca:	4605      	mov	r5, r0
 80088cc:	460f      	mov	r7, r1
 80088ce:	2900      	cmp	r1, #0
 80088d0:	f000 80b1 	beq.w	8008a36 <_free_r+0x16e>
 80088d4:	f7fe fbe8 	bl	80070a8 <__malloc_lock>
 80088d8:	f857 2c04 	ldr.w	r2, [r7, #-4]
 80088dc:	4856      	ldr	r0, [pc, #344]	; (8008a38 <_free_r+0x170>)
 80088de:	f022 0401 	bic.w	r4, r2, #1
 80088e2:	f1a7 0308 	sub.w	r3, r7, #8
 80088e6:	eb03 0c04 	add.w	ip, r3, r4
 80088ea:	6881      	ldr	r1, [r0, #8]
 80088ec:	f8dc 6004 	ldr.w	r6, [ip, #4]
 80088f0:	4561      	cmp	r1, ip
 80088f2:	f026 0603 	bic.w	r6, r6, #3
 80088f6:	f002 0201 	and.w	r2, r2, #1
 80088fa:	d11b      	bne.n	8008934 <_free_r+0x6c>
 80088fc:	4426      	add	r6, r4
 80088fe:	b93a      	cbnz	r2, 8008910 <_free_r+0x48>
 8008900:	f857 2c08 	ldr.w	r2, [r7, #-8]
 8008904:	1a9b      	subs	r3, r3, r2
 8008906:	4416      	add	r6, r2
 8008908:	e9d3 1202 	ldrd	r1, r2, [r3, #8]
 800890c:	60ca      	str	r2, [r1, #12]
 800890e:	6091      	str	r1, [r2, #8]
 8008910:	f046 0201 	orr.w	r2, r6, #1
 8008914:	605a      	str	r2, [r3, #4]
 8008916:	6083      	str	r3, [r0, #8]
 8008918:	4b48      	ldr	r3, [pc, #288]	; (8008a3c <_free_r+0x174>)
 800891a:	681b      	ldr	r3, [r3, #0]
 800891c:	42b3      	cmp	r3, r6
 800891e:	d804      	bhi.n	800892a <_free_r+0x62>
 8008920:	4b47      	ldr	r3, [pc, #284]	; (8008a40 <_free_r+0x178>)
 8008922:	4628      	mov	r0, r5
 8008924:	6819      	ldr	r1, [r3, #0]
 8008926:	f7ff ff7b 	bl	8008820 <_malloc_trim_r>
 800892a:	4628      	mov	r0, r5
 800892c:	e8bd 40f8 	ldmia.w	sp!, {r3, r4, r5, r6, r7, lr}
 8008930:	f7fe bbc0 	b.w	80070b4 <__malloc_unlock>
 8008934:	f8cc 6004 	str.w	r6, [ip, #4]
 8008938:	2a00      	cmp	r2, #0
 800893a:	d138      	bne.n	80089ae <_free_r+0xe6>
 800893c:	f857 1c08 	ldr.w	r1, [r7, #-8]
 8008940:	f100 0708 	add.w	r7, r0, #8
 8008944:	1a5b      	subs	r3, r3, r1
 8008946:	440c      	add	r4, r1
 8008948:	6899      	ldr	r1, [r3, #8]
 800894a:	42b9      	cmp	r1, r7
 800894c:	d031      	beq.n	80089b2 <_free_r+0xea>
 800894e:	68df      	ldr	r7, [r3, #12]
 8008950:	60cf      	str	r7, [r1, #12]
 8008952:	60b9      	str	r1, [r7, #8]
 8008954:	eb0c 0106 	add.w	r1, ip, r6
 8008958:	6849      	ldr	r1, [r1, #4]
 800895a:	07c9      	lsls	r1, r1, #31
 800895c:	d40b      	bmi.n	8008976 <_free_r+0xae>
 800895e:	f8dc 1008 	ldr.w	r1, [ip, #8]
 8008962:	4434      	add	r4, r6
 8008964:	bb3a      	cbnz	r2, 80089b6 <_free_r+0xee>
 8008966:	4e37      	ldr	r6, [pc, #220]	; (8008a44 <_free_r+0x17c>)
 8008968:	42b1      	cmp	r1, r6
 800896a:	d124      	bne.n	80089b6 <_free_r+0xee>
 800896c:	2201      	movs	r2, #1
 800896e:	e9c0 3304 	strd	r3, r3, [r0, #16]
 8008972:	e9c3 1102 	strd	r1, r1, [r3, #8]
 8008976:	f044 0101 	orr.w	r1, r4, #1
 800897a:	6059      	str	r1, [r3, #4]
 800897c:	511c      	str	r4, [r3, r4]
 800897e:	2a00      	cmp	r2, #0
 8008980:	d1d3      	bne.n	800892a <_free_r+0x62>
 8008982:	f5b4 7f00 	cmp.w	r4, #512	; 0x200
 8008986:	d21b      	bcs.n	80089c0 <_free_r+0xf8>
 8008988:	2101      	movs	r1, #1
 800898a:	08e2      	lsrs	r2, r4, #3
 800898c:	0964      	lsrs	r4, r4, #5
 800898e:	40a1      	lsls	r1, r4
 8008990:	6844      	ldr	r4, [r0, #4]
 8008992:	3201      	adds	r2, #1
 8008994:	4321      	orrs	r1, r4
 8008996:	6041      	str	r1, [r0, #4]
 8008998:	f850 4032 	ldr.w	r4, [r0, r2, lsl #3]
 800899c:	eb00 01c2 	add.w	r1, r0, r2, lsl #3
 80089a0:	3908      	subs	r1, #8
 80089a2:	e9c3 4102 	strd	r4, r1, [r3, #8]
 80089a6:	f840 3032 	str.w	r3, [r0, r2, lsl #3]
 80089aa:	60e3      	str	r3, [r4, #12]
 80089ac:	e7bd      	b.n	800892a <_free_r+0x62>
 80089ae:	2200      	movs	r2, #0
 80089b0:	e7d0      	b.n	8008954 <_free_r+0x8c>
 80089b2:	2201      	movs	r2, #1
 80089b4:	e7ce      	b.n	8008954 <_free_r+0x8c>
 80089b6:	f8dc 600c 	ldr.w	r6, [ip, #12]
 80089ba:	60ce      	str	r6, [r1, #12]
 80089bc:	60b1      	str	r1, [r6, #8]
 80089be:	e7da      	b.n	8008976 <_free_r+0xae>
 80089c0:	f5b4 6f20 	cmp.w	r4, #2560	; 0xa00
 80089c4:	ea4f 2254 	mov.w	r2, r4, lsr #9
 80089c8:	d214      	bcs.n	80089f4 <_free_r+0x12c>
 80089ca:	09a2      	lsrs	r2, r4, #6
 80089cc:	3238      	adds	r2, #56	; 0x38
 80089ce:	1c51      	adds	r1, r2, #1
 80089d0:	f850 1031 	ldr.w	r1, [r0, r1, lsl #3]
 80089d4:	eb00 06c2 	add.w	r6, r0, r2, lsl #3
 80089d8:	428e      	cmp	r6, r1
 80089da:	d125      	bne.n	8008a28 <_free_r+0x160>
 80089dc:	2401      	movs	r4, #1
 80089de:	1092      	asrs	r2, r2, #2
 80089e0:	fa04 f202 	lsl.w	r2, r4, r2
 80089e4:	6844      	ldr	r4, [r0, #4]
 80089e6:	4322      	orrs	r2, r4
 80089e8:	6042      	str	r2, [r0, #4]
 80089ea:	e9c3 1602 	strd	r1, r6, [r3, #8]
 80089ee:	60b3      	str	r3, [r6, #8]
 80089f0:	60cb      	str	r3, [r1, #12]
 80089f2:	e79a      	b.n	800892a <_free_r+0x62>
 80089f4:	2a14      	cmp	r2, #20
 80089f6:	d801      	bhi.n	80089fc <_free_r+0x134>
 80089f8:	325b      	adds	r2, #91	; 0x5b
 80089fa:	e7e8      	b.n	80089ce <_free_r+0x106>
 80089fc:	2a54      	cmp	r2, #84	; 0x54
 80089fe:	d802      	bhi.n	8008a06 <_free_r+0x13e>
 8008a00:	0b22      	lsrs	r2, r4, #12
 8008a02:	326e      	adds	r2, #110	; 0x6e
 8008a04:	e7e3      	b.n	80089ce <_free_r+0x106>
 8008a06:	f5b2 7faa 	cmp.w	r2, #340	; 0x154
 8008a0a:	d802      	bhi.n	8008a12 <_free_r+0x14a>
 8008a0c:	0be2      	lsrs	r2, r4, #15
 8008a0e:	3277      	adds	r2, #119	; 0x77
 8008a10:	e7dd      	b.n	80089ce <_free_r+0x106>
 8008a12:	f240 5154 	movw	r1, #1364	; 0x554
 8008a16:	428a      	cmp	r2, r1
 8008a18:	bf96      	itet	ls
 8008a1a:	0ca2      	lsrls	r2, r4, #18
 8008a1c:	227e      	movhi	r2, #126	; 0x7e
 8008a1e:	327c      	addls	r2, #124	; 0x7c
 8008a20:	e7d5      	b.n	80089ce <_free_r+0x106>
 8008a22:	6889      	ldr	r1, [r1, #8]
 8008a24:	428e      	cmp	r6, r1
 8008a26:	d004      	beq.n	8008a32 <_free_r+0x16a>
 8008a28:	684a      	ldr	r2, [r1, #4]
 8008a2a:	f022 0203 	bic.w	r2, r2, #3
 8008a2e:	42a2      	cmp	r2, r4
 8008a30:	d8f7      	bhi.n	8008a22 <_free_r+0x15a>
 8008a32:	68ce      	ldr	r6, [r1, #12]
 8008a34:	e7d9      	b.n	80089ea <_free_r+0x122>
 8008a36:	bdf8      	pop	{r3, r4, r5, r6, r7, pc}
 8008a38:	20000034 	.word	0x20000034
 8008a3c:	20000440 	.word	0x20000440
 8008a40:	20000dc0 	.word	0x20000dc0
 8008a44:	2000003c 	.word	0x2000003c

08008a48 <__ascii_mbtowc>:
 8008a48:	b082      	sub	sp, #8
 8008a4a:	b901      	cbnz	r1, 8008a4e <__ascii_mbtowc+0x6>
 8008a4c:	a901      	add	r1, sp, #4
 8008a4e:	b142      	cbz	r2, 8008a62 <__ascii_mbtowc+0x1a>
 8008a50:	b14b      	cbz	r3, 8008a66 <__ascii_mbtowc+0x1e>
 8008a52:	7813      	ldrb	r3, [r2, #0]
 8008a54:	600b      	str	r3, [r1, #0]
 8008a56:	7812      	ldrb	r2, [r2, #0]
 8008a58:	1e10      	subs	r0, r2, #0
 8008a5a:	bf18      	it	ne
 8008a5c:	2001      	movne	r0, #1
 8008a5e:	b002      	add	sp, #8
 8008a60:	4770      	bx	lr
 8008a62:	4610      	mov	r0, r2
 8008a64:	e7fb      	b.n	8008a5e <__ascii_mbtowc+0x16>
 8008a66:	f06f 0001 	mvn.w	r0, #1
 8008a6a:	e7f8      	b.n	8008a5e <__ascii_mbtowc+0x16>

08008a6c <_svfprintf_r>:
 8008a6c:	e92d 4ff0 	stmdb	sp!, {r4, r5, r6, r7, r8, r9, sl, fp, lr}
 8008a70:	b0d3      	sub	sp, #332	; 0x14c
 8008a72:	468a      	mov	sl, r1
 8008a74:	4693      	mov	fp, r2
 8008a76:	461d      	mov	r5, r3
 8008a78:	4681      	mov	r9, r0
 8008a7a:	f7fe ffcb 	bl	8007a14 <_localeconv_r>
 8008a7e:	6803      	ldr	r3, [r0, #0]
 8008a80:	4618      	mov	r0, r3
 8008a82:	9317      	str	r3, [sp, #92]	; 0x5c
 8008a84:	f7f7 fb75 	bl	8000172 <strlen>
 8008a88:	f8ba 300c 	ldrh.w	r3, [sl, #12]
 8008a8c:	9012      	str	r0, [sp, #72]	; 0x48
 8008a8e:	0618      	lsls	r0, r3, #24
 8008a90:	d518      	bpl.n	8008ac4 <_svfprintf_r+0x58>
 8008a92:	f8da 3010 	ldr.w	r3, [sl, #16]
 8008a96:	b9ab      	cbnz	r3, 8008ac4 <_svfprintf_r+0x58>
 8008a98:	2140      	movs	r1, #64	; 0x40
 8008a9a:	4648      	mov	r0, r9
 8008a9c:	f7fc f95c 	bl	8004d58 <_malloc_r>
 8008aa0:	f8ca 0000 	str.w	r0, [sl]
 8008aa4:	f8ca 0010 	str.w	r0, [sl, #16]
 8008aa8:	b948      	cbnz	r0, 8008abe <_svfprintf_r+0x52>
 8008aaa:	230c      	movs	r3, #12
 8008aac:	f8c9 3000 	str.w	r3, [r9]
 8008ab0:	f04f 33ff 	mov.w	r3, #4294967295	; 0xffffffff
 8008ab4:	930f      	str	r3, [sp, #60]	; 0x3c
 8008ab6:	980f      	ldr	r0, [sp, #60]	; 0x3c
 8008ab8:	b053      	add	sp, #332	; 0x14c
 8008aba:	e8bd 8ff0 	ldmia.w	sp!, {r4, r5, r6, r7, r8, r9, sl, fp, pc}
 8008abe:	2340      	movs	r3, #64	; 0x40
 8008ac0:	f8ca 3014 	str.w	r3, [sl, #20]
 8008ac4:	2300      	movs	r3, #0
 8008ac6:	2200      	movs	r2, #0
 8008ac8:	e9cd 3327 	strd	r3, r3, [sp, #156]	; 0x9c
 8008acc:	9309      	str	r3, [sp, #36]	; 0x24
 8008ace:	2300      	movs	r3, #0
 8008ad0:	e9cd 2310 	strd	r2, r3, [sp, #64]	; 0x40
 8008ad4:	2300      	movs	r3, #0
 8008ad6:	e9cd 3319 	strd	r3, r3, [sp, #100]	; 0x64
 8008ada:	ac29      	add	r4, sp, #164	; 0xa4
 8008adc:	9426      	str	r4, [sp, #152]	; 0x98
 8008ade:	930d      	str	r3, [sp, #52]	; 0x34
 8008ae0:	9315      	str	r3, [sp, #84]	; 0x54
 8008ae2:	9318      	str	r3, [sp, #96]	; 0x60
 8008ae4:	930f      	str	r3, [sp, #60]	; 0x3c
 8008ae6:	465b      	mov	r3, fp
 8008ae8:	461e      	mov	r6, r3
 8008aea:	f813 2b01 	ldrb.w	r2, [r3], #1
 8008aee:	b10a      	cbz	r2, 8008af4 <_svfprintf_r+0x88>
 8008af0:	2a25      	cmp	r2, #37	; 0x25
 8008af2:	d1f9      	bne.n	8008ae8 <_svfprintf_r+0x7c>
 8008af4:	ebb6 070b 	subs.w	r7, r6, fp
 8008af8:	d00d      	beq.n	8008b16 <_svfprintf_r+0xaa>
 8008afa:	9b28      	ldr	r3, [sp, #160]	; 0xa0
 8008afc:	e9c4 b700 	strd	fp, r7, [r4]
 8008b00:	443b      	add	r3, r7
 8008b02:	9328      	str	r3, [sp, #160]	; 0xa0
 8008b04:	9b27      	ldr	r3, [sp, #156]	; 0x9c
 8008b06:	3301      	adds	r3, #1
 8008b08:	2b07      	cmp	r3, #7
 8008b0a:	9327      	str	r3, [sp, #156]	; 0x9c
 8008b0c:	dc79      	bgt.n	8008c02 <_svfprintf_r+0x196>
 8008b0e:	3408      	adds	r4, #8
 8008b10:	9b0f      	ldr	r3, [sp, #60]	; 0x3c
 8008b12:	443b      	add	r3, r7
 8008b14:	930f      	str	r3, [sp, #60]	; 0x3c
 8008b16:	7833      	ldrb	r3, [r6, #0]
 8008b18:	2b00      	cmp	r3, #0
 8008b1a:	f001 8133 	beq.w	8009d84 <_svfprintf_r+0x1318>
 8008b1e:	2300      	movs	r3, #0
 8008b20:	f04f 32ff 	mov.w	r2, #4294967295	; 0xffffffff
 8008b24:	4698      	mov	r8, r3
 8008b26:	270a      	movs	r7, #10
 8008b28:	212b      	movs	r1, #43	; 0x2b
 8008b2a:	3601      	adds	r6, #1
 8008b2c:	f88d 307b 	strb.w	r3, [sp, #123]	; 0x7b
 8008b30:	9207      	str	r2, [sp, #28]
 8008b32:	9313      	str	r3, [sp, #76]	; 0x4c
 8008b34:	4633      	mov	r3, r6
 8008b36:	f813 2b01 	ldrb.w	r2, [r3], #1
 8008b3a:	920b      	str	r2, [sp, #44]	; 0x2c
 8008b3c:	930e      	str	r3, [sp, #56]	; 0x38
 8008b3e:	9b0b      	ldr	r3, [sp, #44]	; 0x2c
 8008b40:	3b20      	subs	r3, #32
 8008b42:	2b5a      	cmp	r3, #90	; 0x5a
 8008b44:	f200 85a6 	bhi.w	8009694 <_svfprintf_r+0xc28>
 8008b48:	e8df f013 	tbh	[pc, r3, lsl #1]
 8008b4c:	05a4007e 	.word	0x05a4007e
 8008b50:	008605a4 	.word	0x008605a4
 8008b54:	05a405a4 	.word	0x05a405a4
 8008b58:	006505a4 	.word	0x006505a4
 8008b5c:	05a405a4 	.word	0x05a405a4
 8008b60:	00930089 	.word	0x00930089
 8008b64:	009005a4 	.word	0x009005a4
 8008b68:	05a40096 	.word	0x05a40096
 8008b6c:	00b500b2 	.word	0x00b500b2
 8008b70:	00b500b5 	.word	0x00b500b5
 8008b74:	00b500b5 	.word	0x00b500b5
 8008b78:	00b500b5 	.word	0x00b500b5
 8008b7c:	00b500b5 	.word	0x00b500b5
 8008b80:	05a405a4 	.word	0x05a405a4
 8008b84:	05a405a4 	.word	0x05a405a4
 8008b88:	05a405a4 	.word	0x05a405a4
 8008b8c:	012405a4 	.word	0x012405a4
 8008b90:	00e205a4 	.word	0x00e205a4
 8008b94:	012400f5 	.word	0x012400f5
 8008b98:	01240124 	.word	0x01240124
 8008b9c:	05a405a4 	.word	0x05a405a4
 8008ba0:	05a405a4 	.word	0x05a405a4
 8008ba4:	05a400c5 	.word	0x05a400c5
 8008ba8:	048305a4 	.word	0x048305a4
 8008bac:	05a405a4 	.word	0x05a405a4
 8008bb0:	04cd05a4 	.word	0x04cd05a4
 8008bb4:	04ee05a4 	.word	0x04ee05a4
 8008bb8:	05a405a4 	.word	0x05a405a4
 8008bbc:	05a40510 	.word	0x05a40510
 8008bc0:	05a405a4 	.word	0x05a405a4
 8008bc4:	05a405a4 	.word	0x05a405a4
 8008bc8:	05a405a4 	.word	0x05a405a4
 8008bcc:	012405a4 	.word	0x012405a4
 8008bd0:	00e205a4 	.word	0x00e205a4
 8008bd4:	012400f7 	.word	0x012400f7
 8008bd8:	01240124 	.word	0x01240124
 8008bdc:	00f700c8 	.word	0x00f700c8
 8008be0:	05a400dc 	.word	0x05a400dc
 8008be4:	05a400d5 	.word	0x05a400d5
 8008be8:	0485045e 	.word	0x0485045e
 8008bec:	00dc04bc 	.word	0x00dc04bc
 8008bf0:	04cd05a4 	.word	0x04cd05a4
 8008bf4:	04f0007c 	.word	0x04f0007c
 8008bf8:	05a405a4 	.word	0x05a405a4
 8008bfc:	05a4052f 	.word	0x05a4052f
 8008c00:	007c      	.short	0x007c
 8008c02:	4651      	mov	r1, sl
 8008c04:	4648      	mov	r0, r9
 8008c06:	aa26      	add	r2, sp, #152	; 0x98
 8008c08:	f002 f84a 	bl	800aca0 <__ssprint_r>
 8008c0c:	2800      	cmp	r0, #0
 8008c0e:	f040 812d 	bne.w	8008e6c <_svfprintf_r+0x400>
 8008c12:	ac29      	add	r4, sp, #164	; 0xa4
 8008c14:	e77c      	b.n	8008b10 <_svfprintf_r+0xa4>
 8008c16:	4648      	mov	r0, r9
 8008c18:	f7fe fefc 	bl	8007a14 <_localeconv_r>
 8008c1c:	6843      	ldr	r3, [r0, #4]
 8008c1e:	4618      	mov	r0, r3
 8008c20:	9318      	str	r3, [sp, #96]	; 0x60
 8008c22:	f7f7 faa6 	bl	8000172 <strlen>
 8008c26:	9015      	str	r0, [sp, #84]	; 0x54
 8008c28:	4648      	mov	r0, r9
 8008c2a:	f7fe fef3 	bl	8007a14 <_localeconv_r>
 8008c2e:	6883      	ldr	r3, [r0, #8]
 8008c30:	212b      	movs	r1, #43	; 0x2b
 8008c32:	930d      	str	r3, [sp, #52]	; 0x34
 8008c34:	9b15      	ldr	r3, [sp, #84]	; 0x54
 8008c36:	b12b      	cbz	r3, 8008c44 <_svfprintf_r+0x1d8>
 8008c38:	9b0d      	ldr	r3, [sp, #52]	; 0x34
 8008c3a:	b11b      	cbz	r3, 8008c44 <_svfprintf_r+0x1d8>
 8008c3c:	781b      	ldrb	r3, [r3, #0]
 8008c3e:	b10b      	cbz	r3, 8008c44 <_svfprintf_r+0x1d8>
 8008c40:	f448 6880 	orr.w	r8, r8, #1024	; 0x400
 8008c44:	9e0e      	ldr	r6, [sp, #56]	; 0x38
 8008c46:	e775      	b.n	8008b34 <_svfprintf_r+0xc8>
 8008c48:	f89d 307b 	ldrb.w	r3, [sp, #123]	; 0x7b
 8008c4c:	2b00      	cmp	r3, #0
 8008c4e:	d1f9      	bne.n	8008c44 <_svfprintf_r+0x1d8>
 8008c50:	2320      	movs	r3, #32
 8008c52:	f88d 307b 	strb.w	r3, [sp, #123]	; 0x7b
 8008c56:	e7f5      	b.n	8008c44 <_svfprintf_r+0x1d8>
 8008c58:	f048 0801 	orr.w	r8, r8, #1
 8008c5c:	e7f2      	b.n	8008c44 <_svfprintf_r+0x1d8>
 8008c5e:	f855 3b04 	ldr.w	r3, [r5], #4
 8008c62:	2b00      	cmp	r3, #0
 8008c64:	9313      	str	r3, [sp, #76]	; 0x4c
 8008c66:	daed      	bge.n	8008c44 <_svfprintf_r+0x1d8>
 8008c68:	425b      	negs	r3, r3
 8008c6a:	9313      	str	r3, [sp, #76]	; 0x4c
 8008c6c:	f048 0804 	orr.w	r8, r8, #4
 8008c70:	e7e8      	b.n	8008c44 <_svfprintf_r+0x1d8>
 8008c72:	f88d 107b 	strb.w	r1, [sp, #123]	; 0x7b
 8008c76:	e7e5      	b.n	8008c44 <_svfprintf_r+0x1d8>
 8008c78:	9b0e      	ldr	r3, [sp, #56]	; 0x38
 8008c7a:	f813 2b01 	ldrb.w	r2, [r3], #1
 8008c7e:	2a2a      	cmp	r2, #42	; 0x2a
 8008c80:	920b      	str	r2, [sp, #44]	; 0x2c
 8008c82:	d112      	bne.n	8008caa <_svfprintf_r+0x23e>
 8008c84:	f855 2b04 	ldr.w	r2, [r5], #4
 8008c88:	930e      	str	r3, [sp, #56]	; 0x38
 8008c8a:	ea42 72e2 	orr.w	r2, r2, r2, asr #31
 8008c8e:	9207      	str	r2, [sp, #28]
 8008c90:	e7d8      	b.n	8008c44 <_svfprintf_r+0x1d8>
 8008c92:	9807      	ldr	r0, [sp, #28]
 8008c94:	fb07 2200 	mla	r2, r7, r0, r2
 8008c98:	9207      	str	r2, [sp, #28]
 8008c9a:	f813 2b01 	ldrb.w	r2, [r3], #1
 8008c9e:	920b      	str	r2, [sp, #44]	; 0x2c
 8008ca0:	9a0b      	ldr	r2, [sp, #44]	; 0x2c
 8008ca2:	3a30      	subs	r2, #48	; 0x30
 8008ca4:	2a09      	cmp	r2, #9
 8008ca6:	d9f4      	bls.n	8008c92 <_svfprintf_r+0x226>
 8008ca8:	e748      	b.n	8008b3c <_svfprintf_r+0xd0>
 8008caa:	2200      	movs	r2, #0
 8008cac:	9207      	str	r2, [sp, #28]
 8008cae:	e7f7      	b.n	8008ca0 <_svfprintf_r+0x234>
 8008cb0:	f048 0880 	orr.w	r8, r8, #128	; 0x80
 8008cb4:	e7c6      	b.n	8008c44 <_svfprintf_r+0x1d8>
 8008cb6:	2200      	movs	r2, #0
 8008cb8:	9b0e      	ldr	r3, [sp, #56]	; 0x38
 8008cba:	9213      	str	r2, [sp, #76]	; 0x4c
 8008cbc:	9a0b      	ldr	r2, [sp, #44]	; 0x2c
 8008cbe:	9813      	ldr	r0, [sp, #76]	; 0x4c
 8008cc0:	3a30      	subs	r2, #48	; 0x30
 8008cc2:	fb07 2200 	mla	r2, r7, r0, r2
 8008cc6:	9213      	str	r2, [sp, #76]	; 0x4c
 8008cc8:	f813 2b01 	ldrb.w	r2, [r3], #1
 8008ccc:	920b      	str	r2, [sp, #44]	; 0x2c
 8008cce:	3a30      	subs	r2, #48	; 0x30
 8008cd0:	2a09      	cmp	r2, #9
 8008cd2:	d9f3      	bls.n	8008cbc <_svfprintf_r+0x250>
 8008cd4:	e732      	b.n	8008b3c <_svfprintf_r+0xd0>
 8008cd6:	f048 0808 	orr.w	r8, r8, #8
 8008cda:	e7b3      	b.n	8008c44 <_svfprintf_r+0x1d8>
 8008cdc:	9b0e      	ldr	r3, [sp, #56]	; 0x38
 8008cde:	781b      	ldrb	r3, [r3, #0]
 8008ce0:	2b68      	cmp	r3, #104	; 0x68
 8008ce2:	bf01      	itttt	eq
 8008ce4:	9b0e      	ldreq	r3, [sp, #56]	; 0x38
 8008ce6:	f448 7800 	orreq.w	r8, r8, #512	; 0x200
 8008cea:	3301      	addeq	r3, #1
 8008cec:	930e      	streq	r3, [sp, #56]	; 0x38
 8008cee:	bf18      	it	ne
 8008cf0:	f048 0840 	orrne.w	r8, r8, #64	; 0x40
 8008cf4:	e7a6      	b.n	8008c44 <_svfprintf_r+0x1d8>
 8008cf6:	9b0e      	ldr	r3, [sp, #56]	; 0x38
 8008cf8:	781b      	ldrb	r3, [r3, #0]
 8008cfa:	2b6c      	cmp	r3, #108	; 0x6c
 8008cfc:	d105      	bne.n	8008d0a <_svfprintf_r+0x29e>
 8008cfe:	9b0e      	ldr	r3, [sp, #56]	; 0x38
 8008d00:	3301      	adds	r3, #1
 8008d02:	930e      	str	r3, [sp, #56]	; 0x38
 8008d04:	f048 0820 	orr.w	r8, r8, #32
 8008d08:	e79c      	b.n	8008c44 <_svfprintf_r+0x1d8>
 8008d0a:	f048 0810 	orr.w	r8, r8, #16
 8008d0e:	e799      	b.n	8008c44 <_svfprintf_r+0x1d8>
 8008d10:	462a      	mov	r2, r5
 8008d12:	f852 3b04 	ldr.w	r3, [r2], #4
 8008d16:	f88d 30e4 	strb.w	r3, [sp, #228]	; 0xe4
 8008d1a:	2300      	movs	r3, #0
 8008d1c:	920a      	str	r2, [sp, #40]	; 0x28
 8008d1e:	f88d 307b 	strb.w	r3, [sp, #123]	; 0x7b
 8008d22:	2700      	movs	r7, #0
 8008d24:	9308      	str	r3, [sp, #32]
 8008d26:	2301      	movs	r3, #1
 8008d28:	463e      	mov	r6, r7
 8008d2a:	463d      	mov	r5, r7
 8008d2c:	9307      	str	r3, [sp, #28]
 8008d2e:	970c      	str	r7, [sp, #48]	; 0x30
 8008d30:	f10d 0be4 	add.w	fp, sp, #228	; 0xe4
 8008d34:	e1b0      	b.n	8009098 <_svfprintf_r+0x62c>
 8008d36:	f048 0810 	orr.w	r8, r8, #16
 8008d3a:	f018 0f20 	tst.w	r8, #32
 8008d3e:	d011      	beq.n	8008d64 <_svfprintf_r+0x2f8>
 8008d40:	3507      	adds	r5, #7
 8008d42:	f025 0307 	bic.w	r3, r5, #7
 8008d46:	461a      	mov	r2, r3
 8008d48:	f852 5b08 	ldr.w	r5, [r2], #8
 8008d4c:	685e      	ldr	r6, [r3, #4]
 8008d4e:	920a      	str	r2, [sp, #40]	; 0x28
 8008d50:	2e00      	cmp	r6, #0
 8008d52:	da05      	bge.n	8008d60 <_svfprintf_r+0x2f4>
 8008d54:	232d      	movs	r3, #45	; 0x2d
 8008d56:	426d      	negs	r5, r5
 8008d58:	eb66 0646 	sbc.w	r6, r6, r6, lsl #1
 8008d5c:	f88d 307b 	strb.w	r3, [sp, #123]	; 0x7b
 8008d60:	2301      	movs	r3, #1
 8008d62:	e389      	b.n	8009478 <_svfprintf_r+0xa0c>
 8008d64:	462b      	mov	r3, r5
 8008d66:	f853 6b04 	ldr.w	r6, [r3], #4
 8008d6a:	f018 0f10 	tst.w	r8, #16
 8008d6e:	930a      	str	r3, [sp, #40]	; 0x28
 8008d70:	d002      	beq.n	8008d78 <_svfprintf_r+0x30c>
 8008d72:	4635      	mov	r5, r6
 8008d74:	17f6      	asrs	r6, r6, #31
 8008d76:	e7eb      	b.n	8008d50 <_svfprintf_r+0x2e4>
 8008d78:	f018 0f40 	tst.w	r8, #64	; 0x40
 8008d7c:	d003      	beq.n	8008d86 <_svfprintf_r+0x31a>
 8008d7e:	b235      	sxth	r5, r6
 8008d80:	f346 36c0 	sbfx	r6, r6, #15, #1
 8008d84:	e7e4      	b.n	8008d50 <_svfprintf_r+0x2e4>
 8008d86:	f418 7f00 	tst.w	r8, #512	; 0x200
 8008d8a:	d0f2      	beq.n	8008d72 <_svfprintf_r+0x306>
 8008d8c:	b275      	sxtb	r5, r6
 8008d8e:	f346 16c0 	sbfx	r6, r6, #7, #1
 8008d92:	e7dd      	b.n	8008d50 <_svfprintf_r+0x2e4>
 8008d94:	3507      	adds	r5, #7
 8008d96:	f025 0307 	bic.w	r3, r5, #7
 8008d9a:	4619      	mov	r1, r3
 8008d9c:	e8f1 2302 	ldrd	r2, r3, [r1], #8
 8008da0:	e9cd 2310 	strd	r2, r3, [sp, #64]	; 0x40
 8008da4:	e9dd 6310 	ldrd	r6, r3, [sp, #64]	; 0x40
 8008da8:	f023 4500 	bic.w	r5, r3, #2147483648	; 0x80000000
 8008dac:	910a      	str	r1, [sp, #40]	; 0x28
 8008dae:	f04f 32ff 	mov.w	r2, #4294967295	; 0xffffffff
 8008db2:	4630      	mov	r0, r6
 8008db4:	4629      	mov	r1, r5
 8008db6:	4b3a      	ldr	r3, [pc, #232]	; (8008ea0 <_svfprintf_r+0x434>)
 8008db8:	f7f7 fe3a 	bl	8000a30 <__aeabi_dcmpun>
 8008dbc:	bb18      	cbnz	r0, 8008e06 <_svfprintf_r+0x39a>
 8008dbe:	f04f 32ff 	mov.w	r2, #4294967295	; 0xffffffff
 8008dc2:	4630      	mov	r0, r6
 8008dc4:	4629      	mov	r1, r5
 8008dc6:	4b36      	ldr	r3, [pc, #216]	; (8008ea0 <_svfprintf_r+0x434>)
 8008dc8:	f7f7 fe14 	bl	80009f4 <__aeabi_dcmple>
 8008dcc:	b9d8      	cbnz	r0, 8008e06 <_svfprintf_r+0x39a>
 8008dce:	e9dd 0110 	ldrd	r0, r1, [sp, #64]	; 0x40
 8008dd2:	2200      	movs	r2, #0
 8008dd4:	2300      	movs	r3, #0
 8008dd6:	f7f7 fe03 	bl	80009e0 <__aeabi_dcmplt>
 8008dda:	b110      	cbz	r0, 8008de2 <_svfprintf_r+0x376>
 8008ddc:	232d      	movs	r3, #45	; 0x2d
 8008dde:	f88d 307b 	strb.w	r3, [sp, #123]	; 0x7b
 8008de2:	4a30      	ldr	r2, [pc, #192]	; (8008ea4 <_svfprintf_r+0x438>)
 8008de4:	4b30      	ldr	r3, [pc, #192]	; (8008ea8 <_svfprintf_r+0x43c>)
 8008de6:	990b      	ldr	r1, [sp, #44]	; 0x2c
 8008de8:	f028 0880 	bic.w	r8, r8, #128	; 0x80
 8008dec:	2947      	cmp	r1, #71	; 0x47
 8008dee:	bfd4      	ite	le
 8008df0:	4693      	movle	fp, r2
 8008df2:	469b      	movgt	fp, r3
 8008df4:	2303      	movs	r3, #3
 8008df6:	2100      	movs	r1, #0
 8008df8:	e9cd 3107 	strd	r3, r1, [sp, #28]
 8008dfc:	2700      	movs	r7, #0
 8008dfe:	463e      	mov	r6, r7
 8008e00:	463b      	mov	r3, r7
 8008e02:	f000 bff9 	b.w	8009df8 <_svfprintf_r+0x138c>
 8008e06:	e9dd 2310 	ldrd	r2, r3, [sp, #64]	; 0x40
 8008e0a:	4610      	mov	r0, r2
 8008e0c:	4619      	mov	r1, r3
 8008e0e:	f7f7 fe0f 	bl	8000a30 <__aeabi_dcmpun>
 8008e12:	b140      	cbz	r0, 8008e26 <_svfprintf_r+0x3ba>
 8008e14:	9b11      	ldr	r3, [sp, #68]	; 0x44
 8008e16:	4a25      	ldr	r2, [pc, #148]	; (8008eac <_svfprintf_r+0x440>)
 8008e18:	2b00      	cmp	r3, #0
 8008e1a:	bfbc      	itt	lt
 8008e1c:	232d      	movlt	r3, #45	; 0x2d
 8008e1e:	f88d 307b 	strblt.w	r3, [sp, #123]	; 0x7b
 8008e22:	4b23      	ldr	r3, [pc, #140]	; (8008eb0 <_svfprintf_r+0x444>)
 8008e24:	e7df      	b.n	8008de6 <_svfprintf_r+0x37a>
 8008e26:	9b0b      	ldr	r3, [sp, #44]	; 0x2c
 8008e28:	f023 0320 	bic.w	r3, r3, #32
 8008e2c:	2b41      	cmp	r3, #65	; 0x41
 8008e2e:	930c      	str	r3, [sp, #48]	; 0x30
 8008e30:	d125      	bne.n	8008e7e <_svfprintf_r+0x412>
 8008e32:	2330      	movs	r3, #48	; 0x30
 8008e34:	f88d 307c 	strb.w	r3, [sp, #124]	; 0x7c
 8008e38:	9b0b      	ldr	r3, [sp, #44]	; 0x2c
 8008e3a:	f048 0802 	orr.w	r8, r8, #2
 8008e3e:	2b61      	cmp	r3, #97	; 0x61
 8008e40:	bf0c      	ite	eq
 8008e42:	2378      	moveq	r3, #120	; 0x78
 8008e44:	2358      	movne	r3, #88	; 0x58
 8008e46:	f88d 307d 	strb.w	r3, [sp, #125]	; 0x7d
 8008e4a:	9b07      	ldr	r3, [sp, #28]
 8008e4c:	2b63      	cmp	r3, #99	; 0x63
 8008e4e:	dd31      	ble.n	8008eb4 <_svfprintf_r+0x448>
 8008e50:	4648      	mov	r0, r9
 8008e52:	1c59      	adds	r1, r3, #1
 8008e54:	f7fb ff80 	bl	8004d58 <_malloc_r>
 8008e58:	4683      	mov	fp, r0
 8008e5a:	2800      	cmp	r0, #0
 8008e5c:	f040 81f8 	bne.w	8009250 <_svfprintf_r+0x7e4>
 8008e60:	f8ba 300c 	ldrh.w	r3, [sl, #12]
 8008e64:	f043 0340 	orr.w	r3, r3, #64	; 0x40
 8008e68:	f8aa 300c 	strh.w	r3, [sl, #12]
 8008e6c:	f8ba 300c 	ldrh.w	r3, [sl, #12]
 8008e70:	f013 0f40 	tst.w	r3, #64	; 0x40
 8008e74:	9b0f      	ldr	r3, [sp, #60]	; 0x3c
 8008e76:	bf18      	it	ne
 8008e78:	f04f 33ff 	movne.w	r3, #4294967295	; 0xffffffff
 8008e7c:	e61a      	b.n	8008ab4 <_svfprintf_r+0x48>
 8008e7e:	9b07      	ldr	r3, [sp, #28]
 8008e80:	3301      	adds	r3, #1
 8008e82:	f000 81e7 	beq.w	8009254 <_svfprintf_r+0x7e8>
 8008e86:	9b0c      	ldr	r3, [sp, #48]	; 0x30
 8008e88:	2b47      	cmp	r3, #71	; 0x47
 8008e8a:	f040 81e6 	bne.w	800925a <_svfprintf_r+0x7ee>
 8008e8e:	9b07      	ldr	r3, [sp, #28]
 8008e90:	2b00      	cmp	r3, #0
 8008e92:	f040 81e2 	bne.w	800925a <_svfprintf_r+0x7ee>
 8008e96:	9308      	str	r3, [sp, #32]
 8008e98:	2301      	movs	r3, #1
 8008e9a:	9307      	str	r3, [sp, #28]
 8008e9c:	e00d      	b.n	8008eba <_svfprintf_r+0x44e>
 8008e9e:	bf00      	nop
 8008ea0:	7fefffff 	.word	0x7fefffff
 8008ea4:	0800c3f9 	.word	0x0800c3f9
 8008ea8:	0800c3fd 	.word	0x0800c3fd
 8008eac:	0800c401 	.word	0x0800c401
 8008eb0:	0800c405 	.word	0x0800c405
 8008eb4:	9008      	str	r0, [sp, #32]
 8008eb6:	f10d 0be4 	add.w	fp, sp, #228	; 0xe4
 8008eba:	f448 7380 	orr.w	r3, r8, #256	; 0x100
 8008ebe:	9314      	str	r3, [sp, #80]	; 0x50
 8008ec0:	e9dd 7310 	ldrd	r7, r3, [sp, #64]	; 0x40
 8008ec4:	1e1d      	subs	r5, r3, #0
 8008ec6:	bfae      	itee	ge
 8008ec8:	2300      	movge	r3, #0
 8008eca:	f103 4500 	addlt.w	r5, r3, #2147483648	; 0x80000000
 8008ece:	232d      	movlt	r3, #45	; 0x2d
 8008ed0:	931c      	str	r3, [sp, #112]	; 0x70
 8008ed2:	9b0c      	ldr	r3, [sp, #48]	; 0x30
 8008ed4:	2b41      	cmp	r3, #65	; 0x41
 8008ed6:	f040 81d8 	bne.w	800928a <_svfprintf_r+0x81e>
 8008eda:	4638      	mov	r0, r7
 8008edc:	aa20      	add	r2, sp, #128	; 0x80
 8008ede:	4629      	mov	r1, r5
 8008ee0:	f7fe fe08 	bl	8007af4 <frexp>
 8008ee4:	2200      	movs	r2, #0
 8008ee6:	f04f 537f 	mov.w	r3, #1069547520	; 0x3fc00000
 8008eea:	f7f7 fb07 	bl	80004fc <__aeabi_dmul>
 8008eee:	2200      	movs	r2, #0
 8008ef0:	2300      	movs	r3, #0
 8008ef2:	4606      	mov	r6, r0
 8008ef4:	460f      	mov	r7, r1
 8008ef6:	f7f7 fd69 	bl	80009cc <__aeabi_dcmpeq>
 8008efa:	b108      	cbz	r0, 8008f00 <_svfprintf_r+0x494>
 8008efc:	2301      	movs	r3, #1
 8008efe:	9320      	str	r3, [sp, #128]	; 0x80
 8008f00:	4bad      	ldr	r3, [pc, #692]	; (80091b8 <_svfprintf_r+0x74c>)
 8008f02:	4aae      	ldr	r2, [pc, #696]	; (80091bc <_svfprintf_r+0x750>)
 8008f04:	990b      	ldr	r1, [sp, #44]	; 0x2c
 8008f06:	465d      	mov	r5, fp
 8008f08:	2961      	cmp	r1, #97	; 0x61
 8008f0a:	bf18      	it	ne
 8008f0c:	461a      	movne	r2, r3
 8008f0e:	9b07      	ldr	r3, [sp, #28]
 8008f10:	921b      	str	r2, [sp, #108]	; 0x6c
 8008f12:	3b01      	subs	r3, #1
 8008f14:	9309      	str	r3, [sp, #36]	; 0x24
 8008f16:	2200      	movs	r2, #0
 8008f18:	4ba9      	ldr	r3, [pc, #676]	; (80091c0 <_svfprintf_r+0x754>)
 8008f1a:	4630      	mov	r0, r6
 8008f1c:	4639      	mov	r1, r7
 8008f1e:	f7f7 faed 	bl	80004fc <__aeabi_dmul>
 8008f22:	460f      	mov	r7, r1
 8008f24:	4606      	mov	r6, r0
 8008f26:	f7f7 fd99 	bl	8000a5c <__aeabi_d2iz>
 8008f2a:	901d      	str	r0, [sp, #116]	; 0x74
 8008f2c:	f7f7 fa7c 	bl	8000428 <__aeabi_i2d>
 8008f30:	4602      	mov	r2, r0
 8008f32:	460b      	mov	r3, r1
 8008f34:	4630      	mov	r0, r6
 8008f36:	4639      	mov	r1, r7
 8008f38:	f7f7 f928 	bl	800018c <__aeabi_dsub>
 8008f3c:	9a1d      	ldr	r2, [sp, #116]	; 0x74
 8008f3e:	9b1b      	ldr	r3, [sp, #108]	; 0x6c
 8008f40:	4606      	mov	r6, r0
 8008f42:	5c9b      	ldrb	r3, [r3, r2]
 8008f44:	460f      	mov	r7, r1
 8008f46:	f805 3b01 	strb.w	r3, [r5], #1
 8008f4a:	9b09      	ldr	r3, [sp, #36]	; 0x24
 8008f4c:	1c5a      	adds	r2, r3, #1
 8008f4e:	9316      	str	r3, [sp, #88]	; 0x58
 8008f50:	d007      	beq.n	8008f62 <_svfprintf_r+0x4f6>
 8008f52:	3b01      	subs	r3, #1
 8008f54:	9309      	str	r3, [sp, #36]	; 0x24
 8008f56:	2200      	movs	r2, #0
 8008f58:	2300      	movs	r3, #0
 8008f5a:	f7f7 fd37 	bl	80009cc <__aeabi_dcmpeq>
 8008f5e:	2800      	cmp	r0, #0
 8008f60:	d0d9      	beq.n	8008f16 <_svfprintf_r+0x4aa>
 8008f62:	2200      	movs	r2, #0
 8008f64:	4630      	mov	r0, r6
 8008f66:	4639      	mov	r1, r7
 8008f68:	4b96      	ldr	r3, [pc, #600]	; (80091c4 <_svfprintf_r+0x758>)
 8008f6a:	f7f7 fd57 	bl	8000a1c <__aeabi_dcmpgt>
 8008f6e:	b960      	cbnz	r0, 8008f8a <_svfprintf_r+0x51e>
 8008f70:	2200      	movs	r2, #0
 8008f72:	4630      	mov	r0, r6
 8008f74:	4639      	mov	r1, r7
 8008f76:	4b93      	ldr	r3, [pc, #588]	; (80091c4 <_svfprintf_r+0x758>)
 8008f78:	f7f7 fd28 	bl	80009cc <__aeabi_dcmpeq>
 8008f7c:	2800      	cmp	r0, #0
 8008f7e:	f000 817f 	beq.w	8009280 <_svfprintf_r+0x814>
 8008f82:	9b1d      	ldr	r3, [sp, #116]	; 0x74
 8008f84:	07db      	lsls	r3, r3, #31
 8008f86:	f140 817b 	bpl.w	8009280 <_svfprintf_r+0x814>
 8008f8a:	2030      	movs	r0, #48	; 0x30
 8008f8c:	9b1b      	ldr	r3, [sp, #108]	; 0x6c
 8008f8e:	9524      	str	r5, [sp, #144]	; 0x90
 8008f90:	7bd9      	ldrb	r1, [r3, #15]
 8008f92:	9a24      	ldr	r2, [sp, #144]	; 0x90
 8008f94:	1e53      	subs	r3, r2, #1
 8008f96:	9324      	str	r3, [sp, #144]	; 0x90
 8008f98:	f812 3c01 	ldrb.w	r3, [r2, #-1]
 8008f9c:	428b      	cmp	r3, r1
 8008f9e:	f000 815e 	beq.w	800925e <_svfprintf_r+0x7f2>
 8008fa2:	2b39      	cmp	r3, #57	; 0x39
 8008fa4:	bf0b      	itete	eq
 8008fa6:	9b1b      	ldreq	r3, [sp, #108]	; 0x6c
 8008fa8:	3301      	addne	r3, #1
 8008faa:	7a9b      	ldrbeq	r3, [r3, #10]
 8008fac:	b2db      	uxtbne	r3, r3
 8008fae:	f802 3c01 	strb.w	r3, [r2, #-1]
 8008fb2:	eba5 030b 	sub.w	r3, r5, fp
 8008fb6:	9309      	str	r3, [sp, #36]	; 0x24
 8008fb8:	9b0c      	ldr	r3, [sp, #48]	; 0x30
 8008fba:	9d20      	ldr	r5, [sp, #128]	; 0x80
 8008fbc:	2b47      	cmp	r3, #71	; 0x47
 8008fbe:	f040 81b3 	bne.w	8009328 <_svfprintf_r+0x8bc>
 8008fc2:	1cef      	adds	r7, r5, #3
 8008fc4:	db03      	blt.n	8008fce <_svfprintf_r+0x562>
 8008fc6:	9b07      	ldr	r3, [sp, #28]
 8008fc8:	42ab      	cmp	r3, r5
 8008fca:	f280 81d3 	bge.w	8009374 <_svfprintf_r+0x908>
 8008fce:	9b0b      	ldr	r3, [sp, #44]	; 0x2c
 8008fd0:	3b02      	subs	r3, #2
 8008fd2:	930b      	str	r3, [sp, #44]	; 0x2c
 8008fd4:	990b      	ldr	r1, [sp, #44]	; 0x2c
 8008fd6:	f89d 202c 	ldrb.w	r2, [sp, #44]	; 0x2c
 8008fda:	f021 0120 	bic.w	r1, r1, #32
 8008fde:	2941      	cmp	r1, #65	; 0x41
 8008fe0:	bf08      	it	eq
 8008fe2:	320f      	addeq	r2, #15
 8008fe4:	f105 33ff 	add.w	r3, r5, #4294967295	; 0xffffffff
 8008fe8:	bf06      	itte	eq
 8008fea:	b2d2      	uxtbeq	r2, r2
 8008fec:	2101      	moveq	r1, #1
 8008fee:	2100      	movne	r1, #0
 8008ff0:	2b00      	cmp	r3, #0
 8008ff2:	f88d 2088 	strb.w	r2, [sp, #136]	; 0x88
 8008ff6:	bfb4      	ite	lt
 8008ff8:	222d      	movlt	r2, #45	; 0x2d
 8008ffa:	222b      	movge	r2, #43	; 0x2b
 8008ffc:	9320      	str	r3, [sp, #128]	; 0x80
 8008ffe:	bfb8      	it	lt
 8009000:	f1c5 0301 	rsblt	r3, r5, #1
 8009004:	2b09      	cmp	r3, #9
 8009006:	f88d 2089 	strb.w	r2, [sp, #137]	; 0x89
 800900a:	f340 81a6 	ble.w	800935a <_svfprintf_r+0x8ee>
 800900e:	260a      	movs	r6, #10
 8009010:	f10d 0097 	add.w	r0, sp, #151	; 0x97
 8009014:	fb93 f5f6 	sdiv	r5, r3, r6
 8009018:	4602      	mov	r2, r0
 800901a:	fb06 3115 	mls	r1, r6, r5, r3
 800901e:	3130      	adds	r1, #48	; 0x30
 8009020:	f802 1c01 	strb.w	r1, [r2, #-1]
 8009024:	4619      	mov	r1, r3
 8009026:	2963      	cmp	r1, #99	; 0x63
 8009028:	462b      	mov	r3, r5
 800902a:	f100 30ff 	add.w	r0, r0, #4294967295	; 0xffffffff
 800902e:	dcf1      	bgt.n	8009014 <_svfprintf_r+0x5a8>
 8009030:	3330      	adds	r3, #48	; 0x30
 8009032:	1e91      	subs	r1, r2, #2
 8009034:	f800 3c01 	strb.w	r3, [r0, #-1]
 8009038:	460b      	mov	r3, r1
 800903a:	f10d 0589 	add.w	r5, sp, #137	; 0x89
 800903e:	f10d 0097 	add.w	r0, sp, #151	; 0x97
 8009042:	4283      	cmp	r3, r0
 8009044:	f0c0 8184 	bcc.w	8009350 <_svfprintf_r+0x8e4>
 8009048:	f10d 0399 	add.w	r3, sp, #153	; 0x99
 800904c:	1a9b      	subs	r3, r3, r2
 800904e:	4281      	cmp	r1, r0
 8009050:	bf88      	it	hi
 8009052:	2300      	movhi	r3, #0
 8009054:	f10d 028a 	add.w	r2, sp, #138	; 0x8a
 8009058:	441a      	add	r2, r3
 800905a:	ab22      	add	r3, sp, #136	; 0x88
 800905c:	1ad3      	subs	r3, r2, r3
 800905e:	9a09      	ldr	r2, [sp, #36]	; 0x24
 8009060:	9319      	str	r3, [sp, #100]	; 0x64
 8009062:	2a01      	cmp	r2, #1
 8009064:	4413      	add	r3, r2
 8009066:	9307      	str	r3, [sp, #28]
 8009068:	dc02      	bgt.n	8009070 <_svfprintf_r+0x604>
 800906a:	f018 0f01 	tst.w	r8, #1
 800906e:	d003      	beq.n	8009078 <_svfprintf_r+0x60c>
 8009070:	9b07      	ldr	r3, [sp, #28]
 8009072:	9a12      	ldr	r2, [sp, #72]	; 0x48
 8009074:	4413      	add	r3, r2
 8009076:	9307      	str	r3, [sp, #28]
 8009078:	2600      	movs	r6, #0
 800907a:	4635      	mov	r5, r6
 800907c:	f428 6380 	bic.w	r3, r8, #1024	; 0x400
 8009080:	f443 7380 	orr.w	r3, r3, #256	; 0x100
 8009084:	9314      	str	r3, [sp, #80]	; 0x50
 8009086:	960c      	str	r6, [sp, #48]	; 0x30
 8009088:	9b1c      	ldr	r3, [sp, #112]	; 0x70
 800908a:	b113      	cbz	r3, 8009092 <_svfprintf_r+0x626>
 800908c:	232d      	movs	r3, #45	; 0x2d
 800908e:	f88d 307b 	strb.w	r3, [sp, #123]	; 0x7b
 8009092:	2700      	movs	r7, #0
 8009094:	f8dd 8050 	ldr.w	r8, [sp, #80]	; 0x50
 8009098:	9b07      	ldr	r3, [sp, #28]
 800909a:	42bb      	cmp	r3, r7
 800909c:	bfb8      	it	lt
 800909e:	463b      	movlt	r3, r7
 80090a0:	9314      	str	r3, [sp, #80]	; 0x50
 80090a2:	f89d 307b 	ldrb.w	r3, [sp, #123]	; 0x7b
 80090a6:	b113      	cbz	r3, 80090ae <_svfprintf_r+0x642>
 80090a8:	9b14      	ldr	r3, [sp, #80]	; 0x50
 80090aa:	3301      	adds	r3, #1
 80090ac:	9314      	str	r3, [sp, #80]	; 0x50
 80090ae:	f018 0302 	ands.w	r3, r8, #2
 80090b2:	931b      	str	r3, [sp, #108]	; 0x6c
 80090b4:	bf1e      	ittt	ne
 80090b6:	9b14      	ldrne	r3, [sp, #80]	; 0x50
 80090b8:	3302      	addne	r3, #2
 80090ba:	9314      	strne	r3, [sp, #80]	; 0x50
 80090bc:	f018 0384 	ands.w	r3, r8, #132	; 0x84
 80090c0:	931c      	str	r3, [sp, #112]	; 0x70
 80090c2:	d121      	bne.n	8009108 <_svfprintf_r+0x69c>
 80090c4:	e9dd 3213 	ldrd	r3, r2, [sp, #76]	; 0x4c
 80090c8:	1a9b      	subs	r3, r3, r2
 80090ca:	2b00      	cmp	r3, #0
 80090cc:	9316      	str	r3, [sp, #88]	; 0x58
 80090ce:	dd1b      	ble.n	8009108 <_svfprintf_r+0x69c>
 80090d0:	e9dd 2327 	ldrd	r2, r3, [sp, #156]	; 0x9c
 80090d4:	9816      	ldr	r0, [sp, #88]	; 0x58
 80090d6:	3201      	adds	r2, #1
 80090d8:	2810      	cmp	r0, #16
 80090da:	483b      	ldr	r0, [pc, #236]	; (80091c8 <_svfprintf_r+0x75c>)
 80090dc:	f104 0108 	add.w	r1, r4, #8
 80090e0:	6020      	str	r0, [r4, #0]
 80090e2:	f300 82e6 	bgt.w	80096b2 <_svfprintf_r+0xc46>
 80090e6:	9816      	ldr	r0, [sp, #88]	; 0x58
 80090e8:	2a07      	cmp	r2, #7
 80090ea:	4403      	add	r3, r0
 80090ec:	e9cd 2327 	strd	r2, r3, [sp, #156]	; 0x9c
 80090f0:	6060      	str	r0, [r4, #4]
 80090f2:	f340 82f3 	ble.w	80096dc <_svfprintf_r+0xc70>
 80090f6:	4651      	mov	r1, sl
 80090f8:	4648      	mov	r0, r9
 80090fa:	aa26      	add	r2, sp, #152	; 0x98
 80090fc:	f001 fdd0 	bl	800aca0 <__ssprint_r>
 8009100:	2800      	cmp	r0, #0
 8009102:	f040 861d 	bne.w	8009d40 <_svfprintf_r+0x12d4>
 8009106:	ac29      	add	r4, sp, #164	; 0xa4
 8009108:	f89d 207b 	ldrb.w	r2, [sp, #123]	; 0x7b
 800910c:	9b28      	ldr	r3, [sp, #160]	; 0xa0
 800910e:	b16a      	cbz	r2, 800912c <_svfprintf_r+0x6c0>
 8009110:	f10d 027b 	add.w	r2, sp, #123	; 0x7b
 8009114:	6022      	str	r2, [r4, #0]
 8009116:	2201      	movs	r2, #1
 8009118:	4413      	add	r3, r2
 800911a:	9328      	str	r3, [sp, #160]	; 0xa0
 800911c:	9b27      	ldr	r3, [sp, #156]	; 0x9c
 800911e:	6062      	str	r2, [r4, #4]
 8009120:	4413      	add	r3, r2
 8009122:	2b07      	cmp	r3, #7
 8009124:	9327      	str	r3, [sp, #156]	; 0x9c
 8009126:	f300 82db 	bgt.w	80096e0 <_svfprintf_r+0xc74>
 800912a:	3408      	adds	r4, #8
 800912c:	9a1b      	ldr	r2, [sp, #108]	; 0x6c
 800912e:	9b28      	ldr	r3, [sp, #160]	; 0xa0
 8009130:	b162      	cbz	r2, 800914c <_svfprintf_r+0x6e0>
 8009132:	aa1f      	add	r2, sp, #124	; 0x7c
 8009134:	6022      	str	r2, [r4, #0]
 8009136:	2202      	movs	r2, #2
 8009138:	4413      	add	r3, r2
 800913a:	9328      	str	r3, [sp, #160]	; 0xa0
 800913c:	9b27      	ldr	r3, [sp, #156]	; 0x9c
 800913e:	6062      	str	r2, [r4, #4]
 8009140:	3301      	adds	r3, #1
 8009142:	2b07      	cmp	r3, #7
 8009144:	9327      	str	r3, [sp, #156]	; 0x9c
 8009146:	f300 82d5 	bgt.w	80096f4 <_svfprintf_r+0xc88>
 800914a:	3408      	adds	r4, #8
 800914c:	9b1c      	ldr	r3, [sp, #112]	; 0x70
 800914e:	2b80      	cmp	r3, #128	; 0x80
 8009150:	d121      	bne.n	8009196 <_svfprintf_r+0x72a>
 8009152:	e9dd 3213 	ldrd	r3, r2, [sp, #76]	; 0x4c
 8009156:	1a9b      	subs	r3, r3, r2
 8009158:	2b00      	cmp	r3, #0
 800915a:	9316      	str	r3, [sp, #88]	; 0x58
 800915c:	dd1b      	ble.n	8009196 <_svfprintf_r+0x72a>
 800915e:	e9dd 2327 	ldrd	r2, r3, [sp, #156]	; 0x9c
 8009162:	9816      	ldr	r0, [sp, #88]	; 0x58
 8009164:	3201      	adds	r2, #1
 8009166:	2810      	cmp	r0, #16
 8009168:	4818      	ldr	r0, [pc, #96]	; (80091cc <_svfprintf_r+0x760>)
 800916a:	f104 0108 	add.w	r1, r4, #8
 800916e:	6020      	str	r0, [r4, #0]
 8009170:	f300 82ca 	bgt.w	8009708 <_svfprintf_r+0xc9c>
 8009174:	9816      	ldr	r0, [sp, #88]	; 0x58
 8009176:	2a07      	cmp	r2, #7
 8009178:	4403      	add	r3, r0
 800917a:	e9cd 2327 	strd	r2, r3, [sp, #156]	; 0x9c
 800917e:	6060      	str	r0, [r4, #4]
 8009180:	f340 82d7 	ble.w	8009732 <_svfprintf_r+0xcc6>
 8009184:	4651      	mov	r1, sl
 8009186:	4648      	mov	r0, r9
 8009188:	aa26      	add	r2, sp, #152	; 0x98
 800918a:	f001 fd89 	bl	800aca0 <__ssprint_r>
 800918e:	2800      	cmp	r0, #0
 8009190:	f040 85d6 	bne.w	8009d40 <_svfprintf_r+0x12d4>
 8009194:	ac29      	add	r4, sp, #164	; 0xa4
 8009196:	9b07      	ldr	r3, [sp, #28]
 8009198:	1aff      	subs	r7, r7, r3
 800919a:	2f00      	cmp	r7, #0
 800919c:	dd28      	ble.n	80091f0 <_svfprintf_r+0x784>
 800919e:	e9dd 3227 	ldrd	r3, r2, [sp, #156]	; 0x9c
 80091a2:	480a      	ldr	r0, [pc, #40]	; (80091cc <_svfprintf_r+0x760>)
 80091a4:	2f10      	cmp	r7, #16
 80091a6:	f103 0301 	add.w	r3, r3, #1
 80091aa:	f104 0108 	add.w	r1, r4, #8
 80091ae:	6020      	str	r0, [r4, #0]
 80091b0:	f300 82c1 	bgt.w	8009736 <_svfprintf_r+0xcca>
 80091b4:	e00c      	b.n	80091d0 <_svfprintf_r+0x764>
 80091b6:	bf00      	nop
 80091b8:	0800c41a 	.word	0x0800c41a
 80091bc:	0800c409 	.word	0x0800c409
 80091c0:	40300000 	.word	0x40300000
 80091c4:	3fe00000 	.word	0x3fe00000
 80091c8:	0800c5ee 	.word	0x0800c5ee
 80091cc:	0800c5fe 	.word	0x0800c5fe
 80091d0:	6067      	str	r7, [r4, #4]
 80091d2:	2b07      	cmp	r3, #7
 80091d4:	4417      	add	r7, r2
 80091d6:	e9cd 3727 	strd	r3, r7, [sp, #156]	; 0x9c
 80091da:	f340 82bf 	ble.w	800975c <_svfprintf_r+0xcf0>
 80091de:	4651      	mov	r1, sl
 80091e0:	4648      	mov	r0, r9
 80091e2:	aa26      	add	r2, sp, #152	; 0x98
 80091e4:	f001 fd5c 	bl	800aca0 <__ssprint_r>
 80091e8:	2800      	cmp	r0, #0
 80091ea:	f040 85a9 	bne.w	8009d40 <_svfprintf_r+0x12d4>
 80091ee:	ac29      	add	r4, sp, #164	; 0xa4
 80091f0:	f418 7f80 	tst.w	r8, #256	; 0x100
 80091f4:	9f28      	ldr	r7, [sp, #160]	; 0xa0
 80091f6:	f040 82b7 	bne.w	8009768 <_svfprintf_r+0xcfc>
 80091fa:	9b07      	ldr	r3, [sp, #28]
 80091fc:	f8c4 b000 	str.w	fp, [r4]
 8009200:	441f      	add	r7, r3
 8009202:	6063      	str	r3, [r4, #4]
 8009204:	9728      	str	r7, [sp, #160]	; 0xa0
 8009206:	9b27      	ldr	r3, [sp, #156]	; 0x9c
 8009208:	3301      	adds	r3, #1
 800920a:	2b07      	cmp	r3, #7
 800920c:	9327      	str	r3, [sp, #156]	; 0x9c
 800920e:	f300 82f0 	bgt.w	80097f2 <_svfprintf_r+0xd86>
 8009212:	3408      	adds	r4, #8
 8009214:	f018 0f04 	tst.w	r8, #4
 8009218:	f040 8574 	bne.w	8009d04 <_svfprintf_r+0x1298>
 800921c:	e9dd 2113 	ldrd	r2, r1, [sp, #76]	; 0x4c
 8009220:	9b0f      	ldr	r3, [sp, #60]	; 0x3c
 8009222:	428a      	cmp	r2, r1
 8009224:	bfac      	ite	ge
 8009226:	189b      	addge	r3, r3, r2
 8009228:	185b      	addlt	r3, r3, r1
 800922a:	930f      	str	r3, [sp, #60]	; 0x3c
 800922c:	9b28      	ldr	r3, [sp, #160]	; 0xa0
 800922e:	b13b      	cbz	r3, 8009240 <_svfprintf_r+0x7d4>
 8009230:	4651      	mov	r1, sl
 8009232:	4648      	mov	r0, r9
 8009234:	aa26      	add	r2, sp, #152	; 0x98
 8009236:	f001 fd33 	bl	800aca0 <__ssprint_r>
 800923a:	2800      	cmp	r0, #0
 800923c:	f040 8580 	bne.w	8009d40 <_svfprintf_r+0x12d4>
 8009240:	2300      	movs	r3, #0
 8009242:	9327      	str	r3, [sp, #156]	; 0x9c
 8009244:	9b08      	ldr	r3, [sp, #32]
 8009246:	2b00      	cmp	r3, #0
 8009248:	f040 8596 	bne.w	8009d78 <_svfprintf_r+0x130c>
 800924c:	ac29      	add	r4, sp, #164	; 0xa4
 800924e:	e0e6      	b.n	800941e <_svfprintf_r+0x9b2>
 8009250:	9008      	str	r0, [sp, #32]
 8009252:	e632      	b.n	8008eba <_svfprintf_r+0x44e>
 8009254:	2306      	movs	r3, #6
 8009256:	9008      	str	r0, [sp, #32]
 8009258:	e61f      	b.n	8008e9a <_svfprintf_r+0x42e>
 800925a:	9008      	str	r0, [sp, #32]
 800925c:	e62d      	b.n	8008eba <_svfprintf_r+0x44e>
 800925e:	f802 0c01 	strb.w	r0, [r2, #-1]
 8009262:	e696      	b.n	8008f92 <_svfprintf_r+0x526>
 8009264:	f803 0b01 	strb.w	r0, [r3], #1
 8009268:	1aca      	subs	r2, r1, r3
 800926a:	2a00      	cmp	r2, #0
 800926c:	dafa      	bge.n	8009264 <_svfprintf_r+0x7f8>
 800926e:	9a16      	ldr	r2, [sp, #88]	; 0x58
 8009270:	9b16      	ldr	r3, [sp, #88]	; 0x58
 8009272:	3201      	adds	r2, #1
 8009274:	f103 0301 	add.w	r3, r3, #1
 8009278:	bfb8      	it	lt
 800927a:	2300      	movlt	r3, #0
 800927c:	441d      	add	r5, r3
 800927e:	e698      	b.n	8008fb2 <_svfprintf_r+0x546>
 8009280:	9a16      	ldr	r2, [sp, #88]	; 0x58
 8009282:	462b      	mov	r3, r5
 8009284:	2030      	movs	r0, #48	; 0x30
 8009286:	18a9      	adds	r1, r5, r2
 8009288:	e7ee      	b.n	8009268 <_svfprintf_r+0x7fc>
 800928a:	9b0c      	ldr	r3, [sp, #48]	; 0x30
 800928c:	2b46      	cmp	r3, #70	; 0x46
 800928e:	d005      	beq.n	800929c <_svfprintf_r+0x830>
 8009290:	2b45      	cmp	r3, #69	; 0x45
 8009292:	d11d      	bne.n	80092d0 <_svfprintf_r+0x864>
 8009294:	9b07      	ldr	r3, [sp, #28]
 8009296:	1c5e      	adds	r6, r3, #1
 8009298:	2302      	movs	r3, #2
 800929a:	e001      	b.n	80092a0 <_svfprintf_r+0x834>
 800929c:	2303      	movs	r3, #3
 800929e:	9e07      	ldr	r6, [sp, #28]
 80092a0:	aa24      	add	r2, sp, #144	; 0x90
 80092a2:	9204      	str	r2, [sp, #16]
 80092a4:	aa21      	add	r2, sp, #132	; 0x84
 80092a6:	9203      	str	r2, [sp, #12]
 80092a8:	aa20      	add	r2, sp, #128	; 0x80
 80092aa:	e9cd 6201 	strd	r6, r2, [sp, #4]
 80092ae:	9300      	str	r3, [sp, #0]
 80092b0:	463a      	mov	r2, r7
 80092b2:	462b      	mov	r3, r5
 80092b4:	4648      	mov	r0, r9
 80092b6:	f7fe fceb 	bl	8007c90 <_dtoa_r>
 80092ba:	9b0c      	ldr	r3, [sp, #48]	; 0x30
 80092bc:	4683      	mov	fp, r0
 80092be:	2b47      	cmp	r3, #71	; 0x47
 80092c0:	d108      	bne.n	80092d4 <_svfprintf_r+0x868>
 80092c2:	f018 0f01 	tst.w	r8, #1
 80092c6:	d105      	bne.n	80092d4 <_svfprintf_r+0x868>
 80092c8:	9b24      	ldr	r3, [sp, #144]	; 0x90
 80092ca:	eba3 030b 	sub.w	r3, r3, fp
 80092ce:	e672      	b.n	8008fb6 <_svfprintf_r+0x54a>
 80092d0:	9e07      	ldr	r6, [sp, #28]
 80092d2:	e7e1      	b.n	8009298 <_svfprintf_r+0x82c>
 80092d4:	eb0b 0306 	add.w	r3, fp, r6
 80092d8:	9309      	str	r3, [sp, #36]	; 0x24
 80092da:	9b0c      	ldr	r3, [sp, #48]	; 0x30
 80092dc:	2b46      	cmp	r3, #70	; 0x46
 80092de:	d111      	bne.n	8009304 <_svfprintf_r+0x898>
 80092e0:	f89b 3000 	ldrb.w	r3, [fp]
 80092e4:	2b30      	cmp	r3, #48	; 0x30
 80092e6:	d109      	bne.n	80092fc <_svfprintf_r+0x890>
 80092e8:	2200      	movs	r2, #0
 80092ea:	2300      	movs	r3, #0
 80092ec:	4638      	mov	r0, r7
 80092ee:	4629      	mov	r1, r5
 80092f0:	f7f7 fb6c 	bl	80009cc <__aeabi_dcmpeq>
 80092f4:	b910      	cbnz	r0, 80092fc <_svfprintf_r+0x890>
 80092f6:	f1c6 0601 	rsb	r6, r6, #1
 80092fa:	9620      	str	r6, [sp, #128]	; 0x80
 80092fc:	9a09      	ldr	r2, [sp, #36]	; 0x24
 80092fe:	9b20      	ldr	r3, [sp, #128]	; 0x80
 8009300:	441a      	add	r2, r3
 8009302:	9209      	str	r2, [sp, #36]	; 0x24
 8009304:	2200      	movs	r2, #0
 8009306:	2300      	movs	r3, #0
 8009308:	4638      	mov	r0, r7
 800930a:	4629      	mov	r1, r5
 800930c:	f7f7 fb5e 	bl	80009cc <__aeabi_dcmpeq>
 8009310:	b108      	cbz	r0, 8009316 <_svfprintf_r+0x8aa>
 8009312:	9b09      	ldr	r3, [sp, #36]	; 0x24
 8009314:	9324      	str	r3, [sp, #144]	; 0x90
 8009316:	2230      	movs	r2, #48	; 0x30
 8009318:	9b24      	ldr	r3, [sp, #144]	; 0x90
 800931a:	9909      	ldr	r1, [sp, #36]	; 0x24
 800931c:	4299      	cmp	r1, r3
 800931e:	d9d3      	bls.n	80092c8 <_svfprintf_r+0x85c>
 8009320:	1c59      	adds	r1, r3, #1
 8009322:	9124      	str	r1, [sp, #144]	; 0x90
 8009324:	701a      	strb	r2, [r3, #0]
 8009326:	e7f7      	b.n	8009318 <_svfprintf_r+0x8ac>
 8009328:	9b0c      	ldr	r3, [sp, #48]	; 0x30
 800932a:	2b46      	cmp	r3, #70	; 0x46
 800932c:	f47f ae52 	bne.w	8008fd4 <_svfprintf_r+0x568>
 8009330:	9a07      	ldr	r2, [sp, #28]
 8009332:	f008 0301 	and.w	r3, r8, #1
 8009336:	2d00      	cmp	r5, #0
 8009338:	ea43 0302 	orr.w	r3, r3, r2
 800933c:	dd29      	ble.n	8009392 <_svfprintf_r+0x926>
 800933e:	2b00      	cmp	r3, #0
 8009340:	d034      	beq.n	80093ac <_svfprintf_r+0x940>
 8009342:	9b12      	ldr	r3, [sp, #72]	; 0x48
 8009344:	18eb      	adds	r3, r5, r3
 8009346:	441a      	add	r2, r3
 8009348:	9207      	str	r2, [sp, #28]
 800934a:	2366      	movs	r3, #102	; 0x66
 800934c:	930b      	str	r3, [sp, #44]	; 0x2c
 800934e:	e033      	b.n	80093b8 <_svfprintf_r+0x94c>
 8009350:	f813 6b01 	ldrb.w	r6, [r3], #1
 8009354:	f805 6f01 	strb.w	r6, [r5, #1]!
 8009358:	e673      	b.n	8009042 <_svfprintf_r+0x5d6>
 800935a:	b941      	cbnz	r1, 800936e <_svfprintf_r+0x902>
 800935c:	2230      	movs	r2, #48	; 0x30
 800935e:	f88d 208a 	strb.w	r2, [sp, #138]	; 0x8a
 8009362:	f10d 028b 	add.w	r2, sp, #139	; 0x8b
 8009366:	3330      	adds	r3, #48	; 0x30
 8009368:	f802 3b01 	strb.w	r3, [r2], #1
 800936c:	e675      	b.n	800905a <_svfprintf_r+0x5ee>
 800936e:	f10d 028a 	add.w	r2, sp, #138	; 0x8a
 8009372:	e7f8      	b.n	8009366 <_svfprintf_r+0x8fa>
 8009374:	9b09      	ldr	r3, [sp, #36]	; 0x24
 8009376:	42ab      	cmp	r3, r5
 8009378:	dd10      	ble.n	800939c <_svfprintf_r+0x930>
 800937a:	9b09      	ldr	r3, [sp, #36]	; 0x24
 800937c:	9a12      	ldr	r2, [sp, #72]	; 0x48
 800937e:	2d00      	cmp	r5, #0
 8009380:	4413      	add	r3, r2
 8009382:	9307      	str	r3, [sp, #28]
 8009384:	dc10      	bgt.n	80093a8 <_svfprintf_r+0x93c>
 8009386:	9a07      	ldr	r2, [sp, #28]
 8009388:	f1c5 0301 	rsb	r3, r5, #1
 800938c:	441a      	add	r2, r3
 800938e:	9207      	str	r2, [sp, #28]
 8009390:	e00a      	b.n	80093a8 <_svfprintf_r+0x93c>
 8009392:	b16b      	cbz	r3, 80093b0 <_svfprintf_r+0x944>
 8009394:	9b12      	ldr	r3, [sp, #72]	; 0x48
 8009396:	9a07      	ldr	r2, [sp, #28]
 8009398:	3301      	adds	r3, #1
 800939a:	e7d4      	b.n	8009346 <_svfprintf_r+0x8da>
 800939c:	f018 0f01 	tst.w	r8, #1
 80093a0:	d01f      	beq.n	80093e2 <_svfprintf_r+0x976>
 80093a2:	9b12      	ldr	r3, [sp, #72]	; 0x48
 80093a4:	18eb      	adds	r3, r5, r3
 80093a6:	9307      	str	r3, [sp, #28]
 80093a8:	2367      	movs	r3, #103	; 0x67
 80093aa:	e7cf      	b.n	800934c <_svfprintf_r+0x8e0>
 80093ac:	9507      	str	r5, [sp, #28]
 80093ae:	e7cc      	b.n	800934a <_svfprintf_r+0x8de>
 80093b0:	2366      	movs	r3, #102	; 0x66
 80093b2:	930b      	str	r3, [sp, #44]	; 0x2c
 80093b4:	2301      	movs	r3, #1
 80093b6:	9307      	str	r3, [sp, #28]
 80093b8:	f418 6380 	ands.w	r3, r8, #1024	; 0x400
 80093bc:	930c      	str	r3, [sp, #48]	; 0x30
 80093be:	d021      	beq.n	8009404 <_svfprintf_r+0x998>
 80093c0:	2600      	movs	r6, #0
 80093c2:	2d00      	cmp	r5, #0
 80093c4:	960c      	str	r6, [sp, #48]	; 0x30
 80093c6:	f77f ae5f 	ble.w	8009088 <_svfprintf_r+0x61c>
 80093ca:	9b0d      	ldr	r3, [sp, #52]	; 0x34
 80093cc:	781b      	ldrb	r3, [r3, #0]
 80093ce:	2bff      	cmp	r3, #255	; 0xff
 80093d0:	d109      	bne.n	80093e6 <_svfprintf_r+0x97a>
 80093d2:	9b0c      	ldr	r3, [sp, #48]	; 0x30
 80093d4:	9a07      	ldr	r2, [sp, #28]
 80093d6:	9915      	ldr	r1, [sp, #84]	; 0x54
 80093d8:	4433      	add	r3, r6
 80093da:	fb01 2303 	mla	r3, r1, r3, r2
 80093de:	9307      	str	r3, [sp, #28]
 80093e0:	e652      	b.n	8009088 <_svfprintf_r+0x61c>
 80093e2:	9507      	str	r5, [sp, #28]
 80093e4:	e7e0      	b.n	80093a8 <_svfprintf_r+0x93c>
 80093e6:	42ab      	cmp	r3, r5
 80093e8:	daf3      	bge.n	80093d2 <_svfprintf_r+0x966>
 80093ea:	1aed      	subs	r5, r5, r3
 80093ec:	9b0d      	ldr	r3, [sp, #52]	; 0x34
 80093ee:	785b      	ldrb	r3, [r3, #1]
 80093f0:	b133      	cbz	r3, 8009400 <_svfprintf_r+0x994>
 80093f2:	9b0c      	ldr	r3, [sp, #48]	; 0x30
 80093f4:	3301      	adds	r3, #1
 80093f6:	930c      	str	r3, [sp, #48]	; 0x30
 80093f8:	9b0d      	ldr	r3, [sp, #52]	; 0x34
 80093fa:	3301      	adds	r3, #1
 80093fc:	930d      	str	r3, [sp, #52]	; 0x34
 80093fe:	e7e4      	b.n	80093ca <_svfprintf_r+0x95e>
 8009400:	3601      	adds	r6, #1
 8009402:	e7e2      	b.n	80093ca <_svfprintf_r+0x95e>
 8009404:	9e0c      	ldr	r6, [sp, #48]	; 0x30
 8009406:	e63f      	b.n	8009088 <_svfprintf_r+0x61c>
 8009408:	1d2b      	adds	r3, r5, #4
 800940a:	f018 0f20 	tst.w	r8, #32
 800940e:	930a      	str	r3, [sp, #40]	; 0x28
 8009410:	d00a      	beq.n	8009428 <_svfprintf_r+0x9bc>
 8009412:	9a0f      	ldr	r2, [sp, #60]	; 0x3c
 8009414:	682b      	ldr	r3, [r5, #0]
 8009416:	990f      	ldr	r1, [sp, #60]	; 0x3c
 8009418:	17d2      	asrs	r2, r2, #31
 800941a:	e9c3 1200 	strd	r1, r2, [r3]
 800941e:	9d0a      	ldr	r5, [sp, #40]	; 0x28
 8009420:	f8dd b038 	ldr.w	fp, [sp, #56]	; 0x38
 8009424:	f7ff bb5f 	b.w	8008ae6 <_svfprintf_r+0x7a>
 8009428:	f018 0f10 	tst.w	r8, #16
 800942c:	d003      	beq.n	8009436 <_svfprintf_r+0x9ca>
 800942e:	682b      	ldr	r3, [r5, #0]
 8009430:	9a0f      	ldr	r2, [sp, #60]	; 0x3c
 8009432:	601a      	str	r2, [r3, #0]
 8009434:	e7f3      	b.n	800941e <_svfprintf_r+0x9b2>
 8009436:	f018 0f40 	tst.w	r8, #64	; 0x40
 800943a:	d003      	beq.n	8009444 <_svfprintf_r+0x9d8>
 800943c:	682b      	ldr	r3, [r5, #0]
 800943e:	9a0f      	ldr	r2, [sp, #60]	; 0x3c
 8009440:	801a      	strh	r2, [r3, #0]
 8009442:	e7ec      	b.n	800941e <_svfprintf_r+0x9b2>
 8009444:	f418 7f00 	tst.w	r8, #512	; 0x200
 8009448:	d0f1      	beq.n	800942e <_svfprintf_r+0x9c2>
 800944a:	682b      	ldr	r3, [r5, #0]
 800944c:	9a0f      	ldr	r2, [sp, #60]	; 0x3c
 800944e:	701a      	strb	r2, [r3, #0]
 8009450:	e7e5      	b.n	800941e <_svfprintf_r+0x9b2>
 8009452:	f048 0810 	orr.w	r8, r8, #16
 8009456:	f018 0320 	ands.w	r3, r8, #32
 800945a:	d020      	beq.n	800949e <_svfprintf_r+0xa32>
 800945c:	3507      	adds	r5, #7
 800945e:	f025 0307 	bic.w	r3, r5, #7
 8009462:	461a      	mov	r2, r3
 8009464:	f852 5b08 	ldr.w	r5, [r2], #8
 8009468:	685e      	ldr	r6, [r3, #4]
 800946a:	920a      	str	r2, [sp, #40]	; 0x28
 800946c:	2300      	movs	r3, #0
 800946e:	f428 6880 	bic.w	r8, r8, #1024	; 0x400
 8009472:	2200      	movs	r2, #0
 8009474:	f88d 207b 	strb.w	r2, [sp, #123]	; 0x7b
 8009478:	9a07      	ldr	r2, [sp, #28]
 800947a:	3201      	adds	r2, #1
 800947c:	f000 848d 	beq.w	8009d9a <_svfprintf_r+0x132e>
 8009480:	f028 0280 	bic.w	r2, r8, #128	; 0x80
 8009484:	9208      	str	r2, [sp, #32]
 8009486:	ea55 0206 	orrs.w	r2, r5, r6
 800948a:	f040 848c 	bne.w	8009da6 <_svfprintf_r+0x133a>
 800948e:	9a07      	ldr	r2, [sp, #28]
 8009490:	2a00      	cmp	r2, #0
 8009492:	f000 80f4 	beq.w	800967e <_svfprintf_r+0xc12>
 8009496:	2b01      	cmp	r3, #1
 8009498:	f040 8488 	bne.w	8009dac <_svfprintf_r+0x1340>
 800949c:	e09e      	b.n	80095dc <_svfprintf_r+0xb70>
 800949e:	462a      	mov	r2, r5
 80094a0:	f852 5b04 	ldr.w	r5, [r2], #4
 80094a4:	f018 0610 	ands.w	r6, r8, #16
 80094a8:	920a      	str	r2, [sp, #40]	; 0x28
 80094aa:	d001      	beq.n	80094b0 <_svfprintf_r+0xa44>
 80094ac:	461e      	mov	r6, r3
 80094ae:	e7dd      	b.n	800946c <_svfprintf_r+0xa00>
 80094b0:	f018 0340 	ands.w	r3, r8, #64	; 0x40
 80094b4:	d001      	beq.n	80094ba <_svfprintf_r+0xa4e>
 80094b6:	b2ad      	uxth	r5, r5
 80094b8:	e7d8      	b.n	800946c <_svfprintf_r+0xa00>
 80094ba:	f418 7600 	ands.w	r6, r8, #512	; 0x200
 80094be:	d0d5      	beq.n	800946c <_svfprintf_r+0xa00>
 80094c0:	b2ed      	uxtb	r5, r5
 80094c2:	e7f3      	b.n	80094ac <_svfprintf_r+0xa40>
 80094c4:	462b      	mov	r3, r5
 80094c6:	f853 5b04 	ldr.w	r5, [r3], #4
 80094ca:	2278      	movs	r2, #120	; 0x78
 80094cc:	930a      	str	r3, [sp, #40]	; 0x28
 80094ce:	f647 0330 	movw	r3, #30768	; 0x7830
 80094d2:	f8ad 307c 	strh.w	r3, [sp, #124]	; 0x7c
 80094d6:	4ba2      	ldr	r3, [pc, #648]	; (8009760 <_svfprintf_r+0xcf4>)
 80094d8:	2600      	movs	r6, #0
 80094da:	931a      	str	r3, [sp, #104]	; 0x68
 80094dc:	f048 0802 	orr.w	r8, r8, #2
 80094e0:	2302      	movs	r3, #2
 80094e2:	920b      	str	r2, [sp, #44]	; 0x2c
 80094e4:	e7c5      	b.n	8009472 <_svfprintf_r+0xa06>
 80094e6:	462b      	mov	r3, r5
 80094e8:	2500      	movs	r5, #0
 80094ea:	f853 bb04 	ldr.w	fp, [r3], #4
 80094ee:	f88d 507b 	strb.w	r5, [sp, #123]	; 0x7b
 80094f2:	930a      	str	r3, [sp, #40]	; 0x28
 80094f4:	9b07      	ldr	r3, [sp, #28]
 80094f6:	1c58      	adds	r0, r3, #1
 80094f8:	d010      	beq.n	800951c <_svfprintf_r+0xab0>
 80094fa:	461a      	mov	r2, r3
 80094fc:	4629      	mov	r1, r5
 80094fe:	4658      	mov	r0, fp
 8009500:	f7fe fac6 	bl	8007a90 <memchr>
 8009504:	9008      	str	r0, [sp, #32]
 8009506:	2800      	cmp	r0, #0
 8009508:	f000 80d0 	beq.w	80096ac <_svfprintf_r+0xc40>
 800950c:	eba0 030b 	sub.w	r3, r0, fp
 8009510:	462f      	mov	r7, r5
 8009512:	462e      	mov	r6, r5
 8009514:	e9cd 3507 	strd	r3, r5, [sp, #28]
 8009518:	950c      	str	r5, [sp, #48]	; 0x30
 800951a:	e5bd      	b.n	8009098 <_svfprintf_r+0x62c>
 800951c:	4658      	mov	r0, fp
 800951e:	f7f6 fe28 	bl	8000172 <strlen>
 8009522:	e9cd 0507 	strd	r0, r5, [sp, #28]
 8009526:	e469      	b.n	8008dfc <_svfprintf_r+0x390>
 8009528:	f048 0810 	orr.w	r8, r8, #16
 800952c:	f018 0320 	ands.w	r3, r8, #32
 8009530:	d009      	beq.n	8009546 <_svfprintf_r+0xada>
 8009532:	3507      	adds	r5, #7
 8009534:	f025 0307 	bic.w	r3, r5, #7
 8009538:	461a      	mov	r2, r3
 800953a:	f852 5b08 	ldr.w	r5, [r2], #8
 800953e:	685e      	ldr	r6, [r3, #4]
 8009540:	920a      	str	r2, [sp, #40]	; 0x28
 8009542:	2301      	movs	r3, #1
 8009544:	e795      	b.n	8009472 <_svfprintf_r+0xa06>
 8009546:	462a      	mov	r2, r5
 8009548:	f852 5b04 	ldr.w	r5, [r2], #4
 800954c:	f018 0610 	ands.w	r6, r8, #16
 8009550:	920a      	str	r2, [sp, #40]	; 0x28
 8009552:	d001      	beq.n	8009558 <_svfprintf_r+0xaec>
 8009554:	461e      	mov	r6, r3
 8009556:	e7f4      	b.n	8009542 <_svfprintf_r+0xad6>
 8009558:	f018 0340 	ands.w	r3, r8, #64	; 0x40
 800955c:	d001      	beq.n	8009562 <_svfprintf_r+0xaf6>
 800955e:	b2ad      	uxth	r5, r5
 8009560:	e7ef      	b.n	8009542 <_svfprintf_r+0xad6>
 8009562:	f418 7600 	ands.w	r6, r8, #512	; 0x200
 8009566:	d0ec      	beq.n	8009542 <_svfprintf_r+0xad6>
 8009568:	b2ed      	uxtb	r5, r5
 800956a:	e7f3      	b.n	8009554 <_svfprintf_r+0xae8>
 800956c:	4b7d      	ldr	r3, [pc, #500]	; (8009764 <_svfprintf_r+0xcf8>)
 800956e:	931a      	str	r3, [sp, #104]	; 0x68
 8009570:	f018 0320 	ands.w	r3, r8, #32
 8009574:	d01b      	beq.n	80095ae <_svfprintf_r+0xb42>
 8009576:	3507      	adds	r5, #7
 8009578:	f025 0307 	bic.w	r3, r5, #7
 800957c:	461a      	mov	r2, r3
 800957e:	f852 5b08 	ldr.w	r5, [r2], #8
 8009582:	685e      	ldr	r6, [r3, #4]
 8009584:	920a      	str	r2, [sp, #40]	; 0x28
 8009586:	f018 0f01 	tst.w	r8, #1
 800958a:	d00a      	beq.n	80095a2 <_svfprintf_r+0xb36>
 800958c:	ea55 0306 	orrs.w	r3, r5, r6
 8009590:	d007      	beq.n	80095a2 <_svfprintf_r+0xb36>
 8009592:	2330      	movs	r3, #48	; 0x30
 8009594:	f88d 307c 	strb.w	r3, [sp, #124]	; 0x7c
 8009598:	9b0b      	ldr	r3, [sp, #44]	; 0x2c
 800959a:	f048 0802 	orr.w	r8, r8, #2
 800959e:	f88d 307d 	strb.w	r3, [sp, #125]	; 0x7d
 80095a2:	2302      	movs	r3, #2
 80095a4:	f428 6880 	bic.w	r8, r8, #1024	; 0x400
 80095a8:	e763      	b.n	8009472 <_svfprintf_r+0xa06>
 80095aa:	4b6d      	ldr	r3, [pc, #436]	; (8009760 <_svfprintf_r+0xcf4>)
 80095ac:	e7df      	b.n	800956e <_svfprintf_r+0xb02>
 80095ae:	462a      	mov	r2, r5
 80095b0:	f852 5b04 	ldr.w	r5, [r2], #4
 80095b4:	f018 0610 	ands.w	r6, r8, #16
 80095b8:	920a      	str	r2, [sp, #40]	; 0x28
 80095ba:	d001      	beq.n	80095c0 <_svfprintf_r+0xb54>
 80095bc:	461e      	mov	r6, r3
 80095be:	e7e2      	b.n	8009586 <_svfprintf_r+0xb1a>
 80095c0:	f018 0340 	ands.w	r3, r8, #64	; 0x40
 80095c4:	d001      	beq.n	80095ca <_svfprintf_r+0xb5e>
 80095c6:	b2ad      	uxth	r5, r5
 80095c8:	e7dd      	b.n	8009586 <_svfprintf_r+0xb1a>
 80095ca:	f418 7600 	ands.w	r6, r8, #512	; 0x200
 80095ce:	d0da      	beq.n	8009586 <_svfprintf_r+0xb1a>
 80095d0:	b2ed      	uxtb	r5, r5
 80095d2:	e7f3      	b.n	80095bc <_svfprintf_r+0xb50>
 80095d4:	2d0a      	cmp	r5, #10
 80095d6:	f176 0300 	sbcs.w	r3, r6, #0
 80095da:	d205      	bcs.n	80095e8 <_svfprintf_r+0xb7c>
 80095dc:	3530      	adds	r5, #48	; 0x30
 80095de:	f88d 5147 	strb.w	r5, [sp, #327]	; 0x147
 80095e2:	f20d 1b47 	addw	fp, sp, #327	; 0x147
 80095e6:	e3fd      	b.n	8009de4 <_svfprintf_r+0x1378>
 80095e8:	2300      	movs	r3, #0
 80095ea:	9309      	str	r3, [sp, #36]	; 0x24
 80095ec:	9b08      	ldr	r3, [sp, #32]
 80095ee:	af52      	add	r7, sp, #328	; 0x148
 80095f0:	f403 6380 	and.w	r3, r3, #1024	; 0x400
 80095f4:	930c      	str	r3, [sp, #48]	; 0x30
 80095f6:	220a      	movs	r2, #10
 80095f8:	2300      	movs	r3, #0
 80095fa:	4628      	mov	r0, r5
 80095fc:	4631      	mov	r1, r6
 80095fe:	f7f7 fc03 	bl	8000e08 <__aeabi_uldivmod>
 8009602:	9b09      	ldr	r3, [sp, #36]	; 0x24
 8009604:	3230      	adds	r2, #48	; 0x30
 8009606:	3301      	adds	r3, #1
 8009608:	9309      	str	r3, [sp, #36]	; 0x24
 800960a:	9b0c      	ldr	r3, [sp, #48]	; 0x30
 800960c:	4688      	mov	r8, r1
 800960e:	9014      	str	r0, [sp, #80]	; 0x50
 8009610:	f107 3bff 	add.w	fp, r7, #4294967295	; 0xffffffff
 8009614:	f807 2c01 	strb.w	r2, [r7, #-1]
 8009618:	b1d3      	cbz	r3, 8009650 <_svfprintf_r+0xbe4>
 800961a:	9b0d      	ldr	r3, [sp, #52]	; 0x34
 800961c:	9a09      	ldr	r2, [sp, #36]	; 0x24
 800961e:	781b      	ldrb	r3, [r3, #0]
 8009620:	429a      	cmp	r2, r3
 8009622:	d115      	bne.n	8009650 <_svfprintf_r+0xbe4>
 8009624:	2aff      	cmp	r2, #255	; 0xff
 8009626:	d013      	beq.n	8009650 <_svfprintf_r+0xbe4>
 8009628:	2d0a      	cmp	r5, #10
 800962a:	f176 0300 	sbcs.w	r3, r6, #0
 800962e:	d30f      	bcc.n	8009650 <_svfprintf_r+0xbe4>
 8009630:	9b15      	ldr	r3, [sp, #84]	; 0x54
 8009632:	9918      	ldr	r1, [sp, #96]	; 0x60
 8009634:	ebab 0b03 	sub.w	fp, fp, r3
 8009638:	461a      	mov	r2, r3
 800963a:	4658      	mov	r0, fp
 800963c:	f7fe f9d0 	bl	80079e0 <strncpy>
 8009640:	9b0d      	ldr	r3, [sp, #52]	; 0x34
 8009642:	785b      	ldrb	r3, [r3, #1]
 8009644:	b11b      	cbz	r3, 800964e <_svfprintf_r+0xbe2>
 8009646:	9b0d      	ldr	r3, [sp, #52]	; 0x34
 8009648:	3301      	adds	r3, #1
 800964a:	930d      	str	r3, [sp, #52]	; 0x34
 800964c:	2300      	movs	r3, #0
 800964e:	9309      	str	r3, [sp, #36]	; 0x24
 8009650:	2d0a      	cmp	r5, #10
 8009652:	f176 0600 	sbcs.w	r6, r6, #0
 8009656:	f0c0 83c5 	bcc.w	8009de4 <_svfprintf_r+0x1378>
 800965a:	4646      	mov	r6, r8
 800965c:	465f      	mov	r7, fp
 800965e:	9d14      	ldr	r5, [sp, #80]	; 0x50
 8009660:	e7c9      	b.n	80095f6 <_svfprintf_r+0xb8a>
 8009662:	9a1a      	ldr	r2, [sp, #104]	; 0x68
 8009664:	f005 030f 	and.w	r3, r5, #15
 8009668:	5cd3      	ldrb	r3, [r2, r3]
 800966a:	092d      	lsrs	r5, r5, #4
 800966c:	ea45 7506 	orr.w	r5, r5, r6, lsl #28
 8009670:	0936      	lsrs	r6, r6, #4
 8009672:	f80b 3d01 	strb.w	r3, [fp, #-1]!
 8009676:	ea55 0306 	orrs.w	r3, r5, r6
 800967a:	d1f2      	bne.n	8009662 <_svfprintf_r+0xbf6>
 800967c:	e3b2      	b.n	8009de4 <_svfprintf_r+0x1378>
 800967e:	b933      	cbnz	r3, 800968e <_svfprintf_r+0xc22>
 8009680:	f018 0f01 	tst.w	r8, #1
 8009684:	d003      	beq.n	800968e <_svfprintf_r+0xc22>
 8009686:	2330      	movs	r3, #48	; 0x30
 8009688:	f88d 3147 	strb.w	r3, [sp, #327]	; 0x147
 800968c:	e7a9      	b.n	80095e2 <_svfprintf_r+0xb76>
 800968e:	f50d 7ba4 	add.w	fp, sp, #328	; 0x148
 8009692:	e3a7      	b.n	8009de4 <_svfprintf_r+0x1378>
 8009694:	9b0b      	ldr	r3, [sp, #44]	; 0x2c
 8009696:	2b00      	cmp	r3, #0
 8009698:	f000 8374 	beq.w	8009d84 <_svfprintf_r+0x1318>
 800969c:	f88d 30e4 	strb.w	r3, [sp, #228]	; 0xe4
 80096a0:	2300      	movs	r3, #0
 80096a2:	950a      	str	r5, [sp, #40]	; 0x28
 80096a4:	f88d 307b 	strb.w	r3, [sp, #123]	; 0x7b
 80096a8:	f7ff bb3b 	b.w	8008d22 <_svfprintf_r+0x2b6>
 80096ac:	9f08      	ldr	r7, [sp, #32]
 80096ae:	f7ff bba6 	b.w	8008dfe <_svfprintf_r+0x392>
 80096b2:	2010      	movs	r0, #16
 80096b4:	2a07      	cmp	r2, #7
 80096b6:	4403      	add	r3, r0
 80096b8:	e9cd 2327 	strd	r2, r3, [sp, #156]	; 0x9c
 80096bc:	6060      	str	r0, [r4, #4]
 80096be:	dd08      	ble.n	80096d2 <_svfprintf_r+0xc66>
 80096c0:	4651      	mov	r1, sl
 80096c2:	4648      	mov	r0, r9
 80096c4:	aa26      	add	r2, sp, #152	; 0x98
 80096c6:	f001 faeb 	bl	800aca0 <__ssprint_r>
 80096ca:	2800      	cmp	r0, #0
 80096cc:	f040 8338 	bne.w	8009d40 <_svfprintf_r+0x12d4>
 80096d0:	a929      	add	r1, sp, #164	; 0xa4
 80096d2:	9b16      	ldr	r3, [sp, #88]	; 0x58
 80096d4:	460c      	mov	r4, r1
 80096d6:	3b10      	subs	r3, #16
 80096d8:	9316      	str	r3, [sp, #88]	; 0x58
 80096da:	e4f9      	b.n	80090d0 <_svfprintf_r+0x664>
 80096dc:	460c      	mov	r4, r1
 80096de:	e513      	b.n	8009108 <_svfprintf_r+0x69c>
 80096e0:	4651      	mov	r1, sl
 80096e2:	4648      	mov	r0, r9
 80096e4:	aa26      	add	r2, sp, #152	; 0x98
 80096e6:	f001 fadb 	bl	800aca0 <__ssprint_r>
 80096ea:	2800      	cmp	r0, #0
 80096ec:	f040 8328 	bne.w	8009d40 <_svfprintf_r+0x12d4>
 80096f0:	ac29      	add	r4, sp, #164	; 0xa4
 80096f2:	e51b      	b.n	800912c <_svfprintf_r+0x6c0>
 80096f4:	4651      	mov	r1, sl
 80096f6:	4648      	mov	r0, r9
 80096f8:	aa26      	add	r2, sp, #152	; 0x98
 80096fa:	f001 fad1 	bl	800aca0 <__ssprint_r>
 80096fe:	2800      	cmp	r0, #0
 8009700:	f040 831e 	bne.w	8009d40 <_svfprintf_r+0x12d4>
 8009704:	ac29      	add	r4, sp, #164	; 0xa4
 8009706:	e521      	b.n	800914c <_svfprintf_r+0x6e0>
 8009708:	2010      	movs	r0, #16
 800970a:	2a07      	cmp	r2, #7
 800970c:	4403      	add	r3, r0
 800970e:	e9cd 2327 	strd	r2, r3, [sp, #156]	; 0x9c
 8009712:	6060      	str	r0, [r4, #4]
 8009714:	dd08      	ble.n	8009728 <_svfprintf_r+0xcbc>
 8009716:	4651      	mov	r1, sl
 8009718:	4648      	mov	r0, r9
 800971a:	aa26      	add	r2, sp, #152	; 0x98
 800971c:	f001 fac0 	bl	800aca0 <__ssprint_r>
 8009720:	2800      	cmp	r0, #0
 8009722:	f040 830d 	bne.w	8009d40 <_svfprintf_r+0x12d4>
 8009726:	a929      	add	r1, sp, #164	; 0xa4
 8009728:	9b16      	ldr	r3, [sp, #88]	; 0x58
 800972a:	460c      	mov	r4, r1
 800972c:	3b10      	subs	r3, #16
 800972e:	9316      	str	r3, [sp, #88]	; 0x58
 8009730:	e515      	b.n	800915e <_svfprintf_r+0x6f2>
 8009732:	460c      	mov	r4, r1
 8009734:	e52f      	b.n	8009196 <_svfprintf_r+0x72a>
 8009736:	2010      	movs	r0, #16
 8009738:	2b07      	cmp	r3, #7
 800973a:	4402      	add	r2, r0
 800973c:	e9cd 3227 	strd	r3, r2, [sp, #156]	; 0x9c
 8009740:	6060      	str	r0, [r4, #4]
 8009742:	dd08      	ble.n	8009756 <_svfprintf_r+0xcea>
 8009744:	4651      	mov	r1, sl
 8009746:	4648      	mov	r0, r9
 8009748:	aa26      	add	r2, sp, #152	; 0x98
 800974a:	f001 faa9 	bl	800aca0 <__ssprint_r>
 800974e:	2800      	cmp	r0, #0
 8009750:	f040 82f6 	bne.w	8009d40 <_svfprintf_r+0x12d4>
 8009754:	a929      	add	r1, sp, #164	; 0xa4
 8009756:	460c      	mov	r4, r1
 8009758:	3f10      	subs	r7, #16
 800975a:	e520      	b.n	800919e <_svfprintf_r+0x732>
 800975c:	460c      	mov	r4, r1
 800975e:	e547      	b.n	80091f0 <_svfprintf_r+0x784>
 8009760:	0800c409 	.word	0x0800c409
 8009764:	0800c41a 	.word	0x0800c41a
 8009768:	9b0b      	ldr	r3, [sp, #44]	; 0x2c
 800976a:	2b65      	cmp	r3, #101	; 0x65
 800976c:	f340 8230 	ble.w	8009bd0 <_svfprintf_r+0x1164>
 8009770:	e9dd 0110 	ldrd	r0, r1, [sp, #64]	; 0x40
 8009774:	2200      	movs	r2, #0
 8009776:	2300      	movs	r3, #0
 8009778:	f7f7 f928 	bl	80009cc <__aeabi_dcmpeq>
 800977c:	2800      	cmp	r0, #0
 800977e:	d068      	beq.n	8009852 <_svfprintf_r+0xde6>
 8009780:	4b6d      	ldr	r3, [pc, #436]	; (8009938 <_svfprintf_r+0xecc>)
 8009782:	6023      	str	r3, [r4, #0]
 8009784:	2301      	movs	r3, #1
 8009786:	441f      	add	r7, r3
 8009788:	6063      	str	r3, [r4, #4]
 800978a:	9b27      	ldr	r3, [sp, #156]	; 0x9c
 800978c:	9728      	str	r7, [sp, #160]	; 0xa0
 800978e:	3301      	adds	r3, #1
 8009790:	2b07      	cmp	r3, #7
 8009792:	9327      	str	r3, [sp, #156]	; 0x9c
 8009794:	dc37      	bgt.n	8009806 <_svfprintf_r+0xd9a>
 8009796:	3408      	adds	r4, #8
 8009798:	9b20      	ldr	r3, [sp, #128]	; 0x80
 800979a:	9a09      	ldr	r2, [sp, #36]	; 0x24
 800979c:	4293      	cmp	r3, r2
 800979e:	db03      	blt.n	80097a8 <_svfprintf_r+0xd3c>
 80097a0:	f018 0f01 	tst.w	r8, #1
 80097a4:	f43f ad36 	beq.w	8009214 <_svfprintf_r+0x7a8>
 80097a8:	9b17      	ldr	r3, [sp, #92]	; 0x5c
 80097aa:	9a12      	ldr	r2, [sp, #72]	; 0x48
 80097ac:	6023      	str	r3, [r4, #0]
 80097ae:	9b12      	ldr	r3, [sp, #72]	; 0x48
 80097b0:	6063      	str	r3, [r4, #4]
 80097b2:	9b28      	ldr	r3, [sp, #160]	; 0xa0
 80097b4:	4413      	add	r3, r2
 80097b6:	9328      	str	r3, [sp, #160]	; 0xa0
 80097b8:	9b27      	ldr	r3, [sp, #156]	; 0x9c
 80097ba:	3301      	adds	r3, #1
 80097bc:	2b07      	cmp	r3, #7
 80097be:	9327      	str	r3, [sp, #156]	; 0x9c
 80097c0:	dc2b      	bgt.n	800981a <_svfprintf_r+0xdae>
 80097c2:	3408      	adds	r4, #8
 80097c4:	9b09      	ldr	r3, [sp, #36]	; 0x24
 80097c6:	1e5d      	subs	r5, r3, #1
 80097c8:	2d00      	cmp	r5, #0
 80097ca:	f77f ad23 	ble.w	8009214 <_svfprintf_r+0x7a8>
 80097ce:	2710      	movs	r7, #16
 80097d0:	4e5a      	ldr	r6, [pc, #360]	; (800993c <_svfprintf_r+0xed0>)
 80097d2:	2d10      	cmp	r5, #16
 80097d4:	e9dd 3227 	ldrd	r3, r2, [sp, #156]	; 0x9c
 80097d8:	f104 0108 	add.w	r1, r4, #8
 80097dc:	f103 0301 	add.w	r3, r3, #1
 80097e0:	6026      	str	r6, [r4, #0]
 80097e2:	dc24      	bgt.n	800982e <_svfprintf_r+0xdc2>
 80097e4:	6065      	str	r5, [r4, #4]
 80097e6:	4415      	add	r5, r2
 80097e8:	9528      	str	r5, [sp, #160]	; 0xa0
 80097ea:	2b07      	cmp	r3, #7
 80097ec:	9327      	str	r3, [sp, #156]	; 0x9c
 80097ee:	f340 8286 	ble.w	8009cfe <_svfprintf_r+0x1292>
 80097f2:	4651      	mov	r1, sl
 80097f4:	4648      	mov	r0, r9
 80097f6:	aa26      	add	r2, sp, #152	; 0x98
 80097f8:	f001 fa52 	bl	800aca0 <__ssprint_r>
 80097fc:	2800      	cmp	r0, #0
 80097fe:	f040 829f 	bne.w	8009d40 <_svfprintf_r+0x12d4>
 8009802:	ac29      	add	r4, sp, #164	; 0xa4
 8009804:	e506      	b.n	8009214 <_svfprintf_r+0x7a8>
 8009806:	4651      	mov	r1, sl
 8009808:	4648      	mov	r0, r9
 800980a:	aa26      	add	r2, sp, #152	; 0x98
 800980c:	f001 fa48 	bl	800aca0 <__ssprint_r>
 8009810:	2800      	cmp	r0, #0
 8009812:	f040 8295 	bne.w	8009d40 <_svfprintf_r+0x12d4>
 8009816:	ac29      	add	r4, sp, #164	; 0xa4
 8009818:	e7be      	b.n	8009798 <_svfprintf_r+0xd2c>
 800981a:	4651      	mov	r1, sl
 800981c:	4648      	mov	r0, r9
 800981e:	aa26      	add	r2, sp, #152	; 0x98
 8009820:	f001 fa3e 	bl	800aca0 <__ssprint_r>
 8009824:	2800      	cmp	r0, #0
 8009826:	f040 828b 	bne.w	8009d40 <_svfprintf_r+0x12d4>
 800982a:	ac29      	add	r4, sp, #164	; 0xa4
 800982c:	e7ca      	b.n	80097c4 <_svfprintf_r+0xd58>
 800982e:	3210      	adds	r2, #16
 8009830:	2b07      	cmp	r3, #7
 8009832:	e9cd 3227 	strd	r3, r2, [sp, #156]	; 0x9c
 8009836:	6067      	str	r7, [r4, #4]
 8009838:	dd08      	ble.n	800984c <_svfprintf_r+0xde0>
 800983a:	4651      	mov	r1, sl
 800983c:	4648      	mov	r0, r9
 800983e:	aa26      	add	r2, sp, #152	; 0x98
 8009840:	f001 fa2e 	bl	800aca0 <__ssprint_r>
 8009844:	2800      	cmp	r0, #0
 8009846:	f040 827b 	bne.w	8009d40 <_svfprintf_r+0x12d4>
 800984a:	a929      	add	r1, sp, #164	; 0xa4
 800984c:	460c      	mov	r4, r1
 800984e:	3d10      	subs	r5, #16
 8009850:	e7bf      	b.n	80097d2 <_svfprintf_r+0xd66>
 8009852:	9b20      	ldr	r3, [sp, #128]	; 0x80
 8009854:	2b00      	cmp	r3, #0
 8009856:	dc73      	bgt.n	8009940 <_svfprintf_r+0xed4>
 8009858:	4b37      	ldr	r3, [pc, #220]	; (8009938 <_svfprintf_r+0xecc>)
 800985a:	6023      	str	r3, [r4, #0]
 800985c:	2301      	movs	r3, #1
 800985e:	441f      	add	r7, r3
 8009860:	6063      	str	r3, [r4, #4]
 8009862:	9b27      	ldr	r3, [sp, #156]	; 0x9c
 8009864:	9728      	str	r7, [sp, #160]	; 0xa0
 8009866:	3301      	adds	r3, #1
 8009868:	2b07      	cmp	r3, #7
 800986a:	9327      	str	r3, [sp, #156]	; 0x9c
 800986c:	dc3d      	bgt.n	80098ea <_svfprintf_r+0xe7e>
 800986e:	3408      	adds	r4, #8
 8009870:	9909      	ldr	r1, [sp, #36]	; 0x24
 8009872:	9b20      	ldr	r3, [sp, #128]	; 0x80
 8009874:	9a28      	ldr	r2, [sp, #160]	; 0xa0
 8009876:	430b      	orrs	r3, r1
 8009878:	f008 0101 	and.w	r1, r8, #1
 800987c:	430b      	orrs	r3, r1
 800987e:	f43f acc9 	beq.w	8009214 <_svfprintf_r+0x7a8>
 8009882:	9b17      	ldr	r3, [sp, #92]	; 0x5c
 8009884:	6023      	str	r3, [r4, #0]
 8009886:	9b12      	ldr	r3, [sp, #72]	; 0x48
 8009888:	441a      	add	r2, r3
 800988a:	6063      	str	r3, [r4, #4]
 800988c:	9b27      	ldr	r3, [sp, #156]	; 0x9c
 800988e:	9228      	str	r2, [sp, #160]	; 0xa0
 8009890:	3301      	adds	r3, #1
 8009892:	2b07      	cmp	r3, #7
 8009894:	9327      	str	r3, [sp, #156]	; 0x9c
 8009896:	dc32      	bgt.n	80098fe <_svfprintf_r+0xe92>
 8009898:	3408      	adds	r4, #8
 800989a:	9d20      	ldr	r5, [sp, #128]	; 0x80
 800989c:	2d00      	cmp	r5, #0
 800989e:	da1b      	bge.n	80098d8 <_svfprintf_r+0xe6c>
 80098a0:	4623      	mov	r3, r4
 80098a2:	2710      	movs	r7, #16
 80098a4:	4e25      	ldr	r6, [pc, #148]	; (800993c <_svfprintf_r+0xed0>)
 80098a6:	426d      	negs	r5, r5
 80098a8:	2d10      	cmp	r5, #16
 80098aa:	e9dd 2127 	ldrd	r2, r1, [sp, #156]	; 0x9c
 80098ae:	f104 0408 	add.w	r4, r4, #8
 80098b2:	f102 0201 	add.w	r2, r2, #1
 80098b6:	601e      	str	r6, [r3, #0]
 80098b8:	dc2b      	bgt.n	8009912 <_svfprintf_r+0xea6>
 80098ba:	605d      	str	r5, [r3, #4]
 80098bc:	2a07      	cmp	r2, #7
 80098be:	440d      	add	r5, r1
 80098c0:	e9cd 2527 	strd	r2, r5, [sp, #156]	; 0x9c
 80098c4:	dd08      	ble.n	80098d8 <_svfprintf_r+0xe6c>
 80098c6:	4651      	mov	r1, sl
 80098c8:	4648      	mov	r0, r9
 80098ca:	aa26      	add	r2, sp, #152	; 0x98
 80098cc:	f001 f9e8 	bl	800aca0 <__ssprint_r>
 80098d0:	2800      	cmp	r0, #0
 80098d2:	f040 8235 	bne.w	8009d40 <_svfprintf_r+0x12d4>
 80098d6:	ac29      	add	r4, sp, #164	; 0xa4
 80098d8:	9b09      	ldr	r3, [sp, #36]	; 0x24
 80098da:	9a09      	ldr	r2, [sp, #36]	; 0x24
 80098dc:	6063      	str	r3, [r4, #4]
 80098de:	9b28      	ldr	r3, [sp, #160]	; 0xa0
 80098e0:	f8c4 b000 	str.w	fp, [r4]
 80098e4:	4413      	add	r3, r2
 80098e6:	9328      	str	r3, [sp, #160]	; 0xa0
 80098e8:	e48d      	b.n	8009206 <_svfprintf_r+0x79a>
 80098ea:	4651      	mov	r1, sl
 80098ec:	4648      	mov	r0, r9
 80098ee:	aa26      	add	r2, sp, #152	; 0x98
 80098f0:	f001 f9d6 	bl	800aca0 <__ssprint_r>
 80098f4:	2800      	cmp	r0, #0
 80098f6:	f040 8223 	bne.w	8009d40 <_svfprintf_r+0x12d4>
 80098fa:	ac29      	add	r4, sp, #164	; 0xa4
 80098fc:	e7b8      	b.n	8009870 <_svfprintf_r+0xe04>
 80098fe:	4651      	mov	r1, sl
 8009900:	4648      	mov	r0, r9
 8009902:	aa26      	add	r2, sp, #152	; 0x98
 8009904:	f001 f9cc 	bl	800aca0 <__ssprint_r>
 8009908:	2800      	cmp	r0, #0
 800990a:	f040 8219 	bne.w	8009d40 <_svfprintf_r+0x12d4>
 800990e:	ac29      	add	r4, sp, #164	; 0xa4
 8009910:	e7c3      	b.n	800989a <_svfprintf_r+0xe2e>
 8009912:	3110      	adds	r1, #16
 8009914:	2a07      	cmp	r2, #7
 8009916:	e9cd 2127 	strd	r2, r1, [sp, #156]	; 0x9c
 800991a:	605f      	str	r7, [r3, #4]
 800991c:	dd08      	ble.n	8009930 <_svfprintf_r+0xec4>
 800991e:	4651      	mov	r1, sl
 8009920:	4648      	mov	r0, r9
 8009922:	aa26      	add	r2, sp, #152	; 0x98
 8009924:	f001 f9bc 	bl	800aca0 <__ssprint_r>
 8009928:	2800      	cmp	r0, #0
 800992a:	f040 8209 	bne.w	8009d40 <_svfprintf_r+0x12d4>
 800992e:	ac29      	add	r4, sp, #164	; 0xa4
 8009930:	4623      	mov	r3, r4
 8009932:	3d10      	subs	r5, #16
 8009934:	e7b8      	b.n	80098a8 <_svfprintf_r+0xe3c>
 8009936:	bf00      	nop
 8009938:	0800c42b 	.word	0x0800c42b
 800993c:	0800c5fe 	.word	0x0800c5fe
 8009940:	9b09      	ldr	r3, [sp, #36]	; 0x24
 8009942:	42ab      	cmp	r3, r5
 8009944:	bfa8      	it	ge
 8009946:	462b      	movge	r3, r5
 8009948:	2b00      	cmp	r3, #0
 800994a:	9307      	str	r3, [sp, #28]
 800994c:	dd09      	ble.n	8009962 <_svfprintf_r+0xef6>
 800994e:	441f      	add	r7, r3
 8009950:	e9c4 b300 	strd	fp, r3, [r4]
 8009954:	9b27      	ldr	r3, [sp, #156]	; 0x9c
 8009956:	9728      	str	r7, [sp, #160]	; 0xa0
 8009958:	3301      	adds	r3, #1
 800995a:	2b07      	cmp	r3, #7
 800995c:	9327      	str	r3, [sp, #156]	; 0x9c
 800995e:	dc74      	bgt.n	8009a4a <_svfprintf_r+0xfde>
 8009960:	3408      	adds	r4, #8
 8009962:	9b07      	ldr	r3, [sp, #28]
 8009964:	2b00      	cmp	r3, #0
 8009966:	bfb4      	ite	lt
 8009968:	462f      	movlt	r7, r5
 800996a:	1aef      	subge	r7, r5, r3
 800996c:	2f00      	cmp	r7, #0
 800996e:	dd18      	ble.n	80099a2 <_svfprintf_r+0xf36>
 8009970:	e9dd 3227 	ldrd	r3, r2, [sp, #156]	; 0x9c
 8009974:	4895      	ldr	r0, [pc, #596]	; (8009bcc <_svfprintf_r+0x1160>)
 8009976:	2f10      	cmp	r7, #16
 8009978:	f103 0301 	add.w	r3, r3, #1
 800997c:	f104 0108 	add.w	r1, r4, #8
 8009980:	6020      	str	r0, [r4, #0]
 8009982:	dc6c      	bgt.n	8009a5e <_svfprintf_r+0xff2>
 8009984:	6067      	str	r7, [r4, #4]
 8009986:	2b07      	cmp	r3, #7
 8009988:	4417      	add	r7, r2
 800998a:	e9cd 3727 	strd	r3, r7, [sp, #156]	; 0x9c
 800998e:	dd79      	ble.n	8009a84 <_svfprintf_r+0x1018>
 8009990:	4651      	mov	r1, sl
 8009992:	4648      	mov	r0, r9
 8009994:	aa26      	add	r2, sp, #152	; 0x98
 8009996:	f001 f983 	bl	800aca0 <__ssprint_r>
 800999a:	2800      	cmp	r0, #0
 800999c:	f040 81d0 	bne.w	8009d40 <_svfprintf_r+0x12d4>
 80099a0:	ac29      	add	r4, sp, #164	; 0xa4
 80099a2:	f418 6f80 	tst.w	r8, #1024	; 0x400
 80099a6:	445d      	add	r5, fp
 80099a8:	d009      	beq.n	80099be <_svfprintf_r+0xf52>
 80099aa:	9b0c      	ldr	r3, [sp, #48]	; 0x30
 80099ac:	2b00      	cmp	r3, #0
 80099ae:	d16b      	bne.n	8009a88 <_svfprintf_r+0x101c>
 80099b0:	2e00      	cmp	r6, #0
 80099b2:	d16b      	bne.n	8009a8c <_svfprintf_r+0x1020>
 80099b4:	9b09      	ldr	r3, [sp, #36]	; 0x24
 80099b6:	445b      	add	r3, fp
 80099b8:	429d      	cmp	r5, r3
 80099ba:	bf28      	it	cs
 80099bc:	461d      	movcs	r5, r3
 80099be:	9b20      	ldr	r3, [sp, #128]	; 0x80
 80099c0:	9a09      	ldr	r2, [sp, #36]	; 0x24
 80099c2:	4293      	cmp	r3, r2
 80099c4:	db02      	blt.n	80099cc <_svfprintf_r+0xf60>
 80099c6:	f018 0f01 	tst.w	r8, #1
 80099ca:	d00e      	beq.n	80099ea <_svfprintf_r+0xf7e>
 80099cc:	9b17      	ldr	r3, [sp, #92]	; 0x5c
 80099ce:	9a12      	ldr	r2, [sp, #72]	; 0x48
 80099d0:	6023      	str	r3, [r4, #0]
 80099d2:	9b12      	ldr	r3, [sp, #72]	; 0x48
 80099d4:	6063      	str	r3, [r4, #4]
 80099d6:	9b28      	ldr	r3, [sp, #160]	; 0xa0
 80099d8:	4413      	add	r3, r2
 80099da:	9328      	str	r3, [sp, #160]	; 0xa0
 80099dc:	9b27      	ldr	r3, [sp, #156]	; 0x9c
 80099de:	3301      	adds	r3, #1
 80099e0:	2b07      	cmp	r3, #7
 80099e2:	9327      	str	r3, [sp, #156]	; 0x9c
 80099e4:	f300 80cc 	bgt.w	8009b80 <_svfprintf_r+0x1114>
 80099e8:	3408      	adds	r4, #8
 80099ea:	9b09      	ldr	r3, [sp, #36]	; 0x24
 80099ec:	9e20      	ldr	r6, [sp, #128]	; 0x80
 80099ee:	1b9e      	subs	r6, r3, r6
 80099f0:	445b      	add	r3, fp
 80099f2:	1b5b      	subs	r3, r3, r5
 80099f4:	429e      	cmp	r6, r3
 80099f6:	bfa8      	it	ge
 80099f8:	461e      	movge	r6, r3
 80099fa:	2e00      	cmp	r6, #0
 80099fc:	9b28      	ldr	r3, [sp, #160]	; 0xa0
 80099fe:	dd0a      	ble.n	8009a16 <_svfprintf_r+0xfaa>
 8009a00:	4433      	add	r3, r6
 8009a02:	9328      	str	r3, [sp, #160]	; 0xa0
 8009a04:	9b27      	ldr	r3, [sp, #156]	; 0x9c
 8009a06:	e9c4 5600 	strd	r5, r6, [r4]
 8009a0a:	3301      	adds	r3, #1
 8009a0c:	2b07      	cmp	r3, #7
 8009a0e:	9327      	str	r3, [sp, #156]	; 0x9c
 8009a10:	f300 80c0 	bgt.w	8009b94 <_svfprintf_r+0x1128>
 8009a14:	3408      	adds	r4, #8
 8009a16:	9d20      	ldr	r5, [sp, #128]	; 0x80
 8009a18:	9b09      	ldr	r3, [sp, #36]	; 0x24
 8009a1a:	2e00      	cmp	r6, #0
 8009a1c:	eba3 0505 	sub.w	r5, r3, r5
 8009a20:	bfa8      	it	ge
 8009a22:	1bad      	subge	r5, r5, r6
 8009a24:	2d00      	cmp	r5, #0
 8009a26:	f77f abf5 	ble.w	8009214 <_svfprintf_r+0x7a8>
 8009a2a:	2710      	movs	r7, #16
 8009a2c:	4e67      	ldr	r6, [pc, #412]	; (8009bcc <_svfprintf_r+0x1160>)
 8009a2e:	2d10      	cmp	r5, #16
 8009a30:	e9dd 3227 	ldrd	r3, r2, [sp, #156]	; 0x9c
 8009a34:	f104 0108 	add.w	r1, r4, #8
 8009a38:	f103 0301 	add.w	r3, r3, #1
 8009a3c:	6026      	str	r6, [r4, #0]
 8009a3e:	f300 80b3 	bgt.w	8009ba8 <_svfprintf_r+0x113c>
 8009a42:	442a      	add	r2, r5
 8009a44:	6065      	str	r5, [r4, #4]
 8009a46:	9228      	str	r2, [sp, #160]	; 0xa0
 8009a48:	e6cf      	b.n	80097ea <_svfprintf_r+0xd7e>
 8009a4a:	4651      	mov	r1, sl
 8009a4c:	4648      	mov	r0, r9
 8009a4e:	aa26      	add	r2, sp, #152	; 0x98
 8009a50:	f001 f926 	bl	800aca0 <__ssprint_r>
 8009a54:	2800      	cmp	r0, #0
 8009a56:	f040 8173 	bne.w	8009d40 <_svfprintf_r+0x12d4>
 8009a5a:	ac29      	add	r4, sp, #164	; 0xa4
 8009a5c:	e781      	b.n	8009962 <_svfprintf_r+0xef6>
 8009a5e:	2010      	movs	r0, #16
 8009a60:	2b07      	cmp	r3, #7
 8009a62:	4402      	add	r2, r0
 8009a64:	e9cd 3227 	strd	r3, r2, [sp, #156]	; 0x9c
 8009a68:	6060      	str	r0, [r4, #4]
 8009a6a:	dd08      	ble.n	8009a7e <_svfprintf_r+0x1012>
 8009a6c:	4651      	mov	r1, sl
 8009a6e:	4648      	mov	r0, r9
 8009a70:	aa26      	add	r2, sp, #152	; 0x98
 8009a72:	f001 f915 	bl	800aca0 <__ssprint_r>
 8009a76:	2800      	cmp	r0, #0
 8009a78:	f040 8162 	bne.w	8009d40 <_svfprintf_r+0x12d4>
 8009a7c:	a929      	add	r1, sp, #164	; 0xa4
 8009a7e:	460c      	mov	r4, r1
 8009a80:	3f10      	subs	r7, #16
 8009a82:	e775      	b.n	8009970 <_svfprintf_r+0xf04>
 8009a84:	460c      	mov	r4, r1
 8009a86:	e78c      	b.n	80099a2 <_svfprintf_r+0xf36>
 8009a88:	2e00      	cmp	r6, #0
 8009a8a:	d049      	beq.n	8009b20 <_svfprintf_r+0x10b4>
 8009a8c:	3e01      	subs	r6, #1
 8009a8e:	9b18      	ldr	r3, [sp, #96]	; 0x60
 8009a90:	9a15      	ldr	r2, [sp, #84]	; 0x54
 8009a92:	6023      	str	r3, [r4, #0]
 8009a94:	9b15      	ldr	r3, [sp, #84]	; 0x54
 8009a96:	6063      	str	r3, [r4, #4]
 8009a98:	9b28      	ldr	r3, [sp, #160]	; 0xa0
 8009a9a:	4413      	add	r3, r2
 8009a9c:	9328      	str	r3, [sp, #160]	; 0xa0
 8009a9e:	9b27      	ldr	r3, [sp, #156]	; 0x9c
 8009aa0:	3301      	adds	r3, #1
 8009aa2:	2b07      	cmp	r3, #7
 8009aa4:	9327      	str	r3, [sp, #156]	; 0x9c
 8009aa6:	dc42      	bgt.n	8009b2e <_svfprintf_r+0x10c2>
 8009aa8:	3408      	adds	r4, #8
 8009aaa:	9b09      	ldr	r3, [sp, #36]	; 0x24
 8009aac:	445b      	add	r3, fp
 8009aae:	1b5a      	subs	r2, r3, r5
 8009ab0:	9b0d      	ldr	r3, [sp, #52]	; 0x34
 8009ab2:	781b      	ldrb	r3, [r3, #0]
 8009ab4:	429a      	cmp	r2, r3
 8009ab6:	bfa8      	it	ge
 8009ab8:	461a      	movge	r2, r3
 8009aba:	2a00      	cmp	r2, #0
 8009abc:	9b28      	ldr	r3, [sp, #160]	; 0xa0
 8009abe:	9207      	str	r2, [sp, #28]
 8009ac0:	dd09      	ble.n	8009ad6 <_svfprintf_r+0x106a>
 8009ac2:	4413      	add	r3, r2
 8009ac4:	9328      	str	r3, [sp, #160]	; 0xa0
 8009ac6:	9b27      	ldr	r3, [sp, #156]	; 0x9c
 8009ac8:	e9c4 5200 	strd	r5, r2, [r4]
 8009acc:	3301      	adds	r3, #1
 8009ace:	2b07      	cmp	r3, #7
 8009ad0:	9327      	str	r3, [sp, #156]	; 0x9c
 8009ad2:	dc36      	bgt.n	8009b42 <_svfprintf_r+0x10d6>
 8009ad4:	3408      	adds	r4, #8
 8009ad6:	9b0d      	ldr	r3, [sp, #52]	; 0x34
 8009ad8:	781f      	ldrb	r7, [r3, #0]
 8009ada:	9b07      	ldr	r3, [sp, #28]
 8009adc:	2b00      	cmp	r3, #0
 8009ade:	bfa8      	it	ge
 8009ae0:	1aff      	subge	r7, r7, r3
 8009ae2:	2f00      	cmp	r7, #0
 8009ae4:	dd18      	ble.n	8009b18 <_svfprintf_r+0x10ac>
 8009ae6:	e9dd 3227 	ldrd	r3, r2, [sp, #156]	; 0x9c
 8009aea:	4838      	ldr	r0, [pc, #224]	; (8009bcc <_svfprintf_r+0x1160>)
 8009aec:	2f10      	cmp	r7, #16
 8009aee:	f103 0301 	add.w	r3, r3, #1
 8009af2:	f104 0108 	add.w	r1, r4, #8
 8009af6:	6020      	str	r0, [r4, #0]
 8009af8:	dc2d      	bgt.n	8009b56 <_svfprintf_r+0x10ea>
 8009afa:	443a      	add	r2, r7
 8009afc:	2b07      	cmp	r3, #7
 8009afe:	e9cd 3227 	strd	r3, r2, [sp, #156]	; 0x9c
 8009b02:	6067      	str	r7, [r4, #4]
 8009b04:	dd3a      	ble.n	8009b7c <_svfprintf_r+0x1110>
 8009b06:	4651      	mov	r1, sl
 8009b08:	4648      	mov	r0, r9
 8009b0a:	aa26      	add	r2, sp, #152	; 0x98
 8009b0c:	f001 f8c8 	bl	800aca0 <__ssprint_r>
 8009b10:	2800      	cmp	r0, #0
 8009b12:	f040 8115 	bne.w	8009d40 <_svfprintf_r+0x12d4>
 8009b16:	ac29      	add	r4, sp, #164	; 0xa4
 8009b18:	9b0d      	ldr	r3, [sp, #52]	; 0x34
 8009b1a:	781b      	ldrb	r3, [r3, #0]
 8009b1c:	441d      	add	r5, r3
 8009b1e:	e744      	b.n	80099aa <_svfprintf_r+0xf3e>
 8009b20:	9b0d      	ldr	r3, [sp, #52]	; 0x34
 8009b22:	3b01      	subs	r3, #1
 8009b24:	930d      	str	r3, [sp, #52]	; 0x34
 8009b26:	9b0c      	ldr	r3, [sp, #48]	; 0x30
 8009b28:	3b01      	subs	r3, #1
 8009b2a:	930c      	str	r3, [sp, #48]	; 0x30
 8009b2c:	e7af      	b.n	8009a8e <_svfprintf_r+0x1022>
 8009b2e:	4651      	mov	r1, sl
 8009b30:	4648      	mov	r0, r9
 8009b32:	aa26      	add	r2, sp, #152	; 0x98
 8009b34:	f001 f8b4 	bl	800aca0 <__ssprint_r>
 8009b38:	2800      	cmp	r0, #0
 8009b3a:	f040 8101 	bne.w	8009d40 <_svfprintf_r+0x12d4>
 8009b3e:	ac29      	add	r4, sp, #164	; 0xa4
 8009b40:	e7b3      	b.n	8009aaa <_svfprintf_r+0x103e>
 8009b42:	4651      	mov	r1, sl
 8009b44:	4648      	mov	r0, r9
 8009b46:	aa26      	add	r2, sp, #152	; 0x98
 8009b48:	f001 f8aa 	bl	800aca0 <__ssprint_r>
 8009b4c:	2800      	cmp	r0, #0
 8009b4e:	f040 80f7 	bne.w	8009d40 <_svfprintf_r+0x12d4>
 8009b52:	ac29      	add	r4, sp, #164	; 0xa4
 8009b54:	e7bf      	b.n	8009ad6 <_svfprintf_r+0x106a>
 8009b56:	2010      	movs	r0, #16
 8009b58:	2b07      	cmp	r3, #7
 8009b5a:	4402      	add	r2, r0
 8009b5c:	e9cd 3227 	strd	r3, r2, [sp, #156]	; 0x9c
 8009b60:	6060      	str	r0, [r4, #4]
 8009b62:	dd08      	ble.n	8009b76 <_svfprintf_r+0x110a>
 8009b64:	4651      	mov	r1, sl
 8009b66:	4648      	mov	r0, r9
 8009b68:	aa26      	add	r2, sp, #152	; 0x98
 8009b6a:	f001 f899 	bl	800aca0 <__ssprint_r>
 8009b6e:	2800      	cmp	r0, #0
 8009b70:	f040 80e6 	bne.w	8009d40 <_svfprintf_r+0x12d4>
 8009b74:	a929      	add	r1, sp, #164	; 0xa4
 8009b76:	460c      	mov	r4, r1
 8009b78:	3f10      	subs	r7, #16
 8009b7a:	e7b4      	b.n	8009ae6 <_svfprintf_r+0x107a>
 8009b7c:	460c      	mov	r4, r1
 8009b7e:	e7cb      	b.n	8009b18 <_svfprintf_r+0x10ac>
 8009b80:	4651      	mov	r1, sl
 8009b82:	4648      	mov	r0, r9
 8009b84:	aa26      	add	r2, sp, #152	; 0x98
 8009b86:	f001 f88b 	bl	800aca0 <__ssprint_r>
 8009b8a:	2800      	cmp	r0, #0
 8009b8c:	f040 80d8 	bne.w	8009d40 <_svfprintf_r+0x12d4>
 8009b90:	ac29      	add	r4, sp, #164	; 0xa4
 8009b92:	e72a      	b.n	80099ea <_svfprintf_r+0xf7e>
 8009b94:	4651      	mov	r1, sl
 8009b96:	4648      	mov	r0, r9
 8009b98:	aa26      	add	r2, sp, #152	; 0x98
 8009b9a:	f001 f881 	bl	800aca0 <__ssprint_r>
 8009b9e:	2800      	cmp	r0, #0
 8009ba0:	f040 80ce 	bne.w	8009d40 <_svfprintf_r+0x12d4>
 8009ba4:	ac29      	add	r4, sp, #164	; 0xa4
 8009ba6:	e736      	b.n	8009a16 <_svfprintf_r+0xfaa>
 8009ba8:	3210      	adds	r2, #16
 8009baa:	2b07      	cmp	r3, #7
 8009bac:	e9cd 3227 	strd	r3, r2, [sp, #156]	; 0x9c
 8009bb0:	6067      	str	r7, [r4, #4]
 8009bb2:	dd08      	ble.n	8009bc6 <_svfprintf_r+0x115a>
 8009bb4:	4651      	mov	r1, sl
 8009bb6:	4648      	mov	r0, r9
 8009bb8:	aa26      	add	r2, sp, #152	; 0x98
 8009bba:	f001 f871 	bl	800aca0 <__ssprint_r>
 8009bbe:	2800      	cmp	r0, #0
 8009bc0:	f040 80be 	bne.w	8009d40 <_svfprintf_r+0x12d4>
 8009bc4:	a929      	add	r1, sp, #164	; 0xa4
 8009bc6:	460c      	mov	r4, r1
 8009bc8:	3d10      	subs	r5, #16
 8009bca:	e730      	b.n	8009a2e <_svfprintf_r+0xfc2>
 8009bcc:	0800c5fe 	.word	0x0800c5fe
 8009bd0:	9a09      	ldr	r2, [sp, #36]	; 0x24
 8009bd2:	9b27      	ldr	r3, [sp, #156]	; 0x9c
 8009bd4:	2a01      	cmp	r2, #1
 8009bd6:	f107 0701 	add.w	r7, r7, #1
 8009bda:	f103 0301 	add.w	r3, r3, #1
 8009bde:	f104 0508 	add.w	r5, r4, #8
 8009be2:	dc02      	bgt.n	8009bea <_svfprintf_r+0x117e>
 8009be4:	f018 0f01 	tst.w	r8, #1
 8009be8:	d07e      	beq.n	8009ce8 <_svfprintf_r+0x127c>
 8009bea:	2201      	movs	r2, #1
 8009bec:	2b07      	cmp	r3, #7
 8009bee:	e9cd 3727 	strd	r3, r7, [sp, #156]	; 0x9c
 8009bf2:	f8c4 b000 	str.w	fp, [r4]
 8009bf6:	6062      	str	r2, [r4, #4]
 8009bf8:	dd08      	ble.n	8009c0c <_svfprintf_r+0x11a0>
 8009bfa:	4651      	mov	r1, sl
 8009bfc:	4648      	mov	r0, r9
 8009bfe:	aa26      	add	r2, sp, #152	; 0x98
 8009c00:	f001 f84e 	bl	800aca0 <__ssprint_r>
 8009c04:	2800      	cmp	r0, #0
 8009c06:	f040 809b 	bne.w	8009d40 <_svfprintf_r+0x12d4>
 8009c0a:	ad29      	add	r5, sp, #164	; 0xa4
 8009c0c:	9b17      	ldr	r3, [sp, #92]	; 0x5c
 8009c0e:	9a12      	ldr	r2, [sp, #72]	; 0x48
 8009c10:	602b      	str	r3, [r5, #0]
 8009c12:	9b12      	ldr	r3, [sp, #72]	; 0x48
 8009c14:	606b      	str	r3, [r5, #4]
 8009c16:	9b28      	ldr	r3, [sp, #160]	; 0xa0
 8009c18:	4413      	add	r3, r2
 8009c1a:	9328      	str	r3, [sp, #160]	; 0xa0
 8009c1c:	9b27      	ldr	r3, [sp, #156]	; 0x9c
 8009c1e:	3301      	adds	r3, #1
 8009c20:	2b07      	cmp	r3, #7
 8009c22:	9327      	str	r3, [sp, #156]	; 0x9c
 8009c24:	dc32      	bgt.n	8009c8c <_svfprintf_r+0x1220>
 8009c26:	3508      	adds	r5, #8
 8009c28:	9b09      	ldr	r3, [sp, #36]	; 0x24
 8009c2a:	2200      	movs	r2, #0
 8009c2c:	e9dd 0110 	ldrd	r0, r1, [sp, #64]	; 0x40
 8009c30:	e9dd 7627 	ldrd	r7, r6, [sp, #156]	; 0x9c
 8009c34:	1e5c      	subs	r4, r3, #1
 8009c36:	2300      	movs	r3, #0
 8009c38:	f7f6 fec8 	bl	80009cc <__aeabi_dcmpeq>
 8009c3c:	2800      	cmp	r0, #0
 8009c3e:	d12e      	bne.n	8009c9e <_svfprintf_r+0x1232>
 8009c40:	f10b 0301 	add.w	r3, fp, #1
 8009c44:	e9c5 3400 	strd	r3, r4, [r5]
 8009c48:	9b09      	ldr	r3, [sp, #36]	; 0x24
 8009c4a:	3701      	adds	r7, #1
 8009c4c:	3e01      	subs	r6, #1
 8009c4e:	441e      	add	r6, r3
 8009c50:	2f07      	cmp	r7, #7
 8009c52:	e9cd 7627 	strd	r7, r6, [sp, #156]	; 0x9c
 8009c56:	dd50      	ble.n	8009cfa <_svfprintf_r+0x128e>
 8009c58:	4651      	mov	r1, sl
 8009c5a:	4648      	mov	r0, r9
 8009c5c:	aa26      	add	r2, sp, #152	; 0x98
 8009c5e:	f001 f81f 	bl	800aca0 <__ssprint_r>
 8009c62:	2800      	cmp	r0, #0
 8009c64:	d16c      	bne.n	8009d40 <_svfprintf_r+0x12d4>
 8009c66:	ad29      	add	r5, sp, #164	; 0xa4
 8009c68:	ab22      	add	r3, sp, #136	; 0x88
 8009c6a:	602b      	str	r3, [r5, #0]
 8009c6c:	9b19      	ldr	r3, [sp, #100]	; 0x64
 8009c6e:	9a19      	ldr	r2, [sp, #100]	; 0x64
 8009c70:	606b      	str	r3, [r5, #4]
 8009c72:	9b28      	ldr	r3, [sp, #160]	; 0xa0
 8009c74:	4413      	add	r3, r2
 8009c76:	9328      	str	r3, [sp, #160]	; 0xa0
 8009c78:	9b27      	ldr	r3, [sp, #156]	; 0x9c
 8009c7a:	3301      	adds	r3, #1
 8009c7c:	2b07      	cmp	r3, #7
 8009c7e:	9327      	str	r3, [sp, #156]	; 0x9c
 8009c80:	f73f adb7 	bgt.w	80097f2 <_svfprintf_r+0xd86>
 8009c84:	f105 0408 	add.w	r4, r5, #8
 8009c88:	f7ff bac4 	b.w	8009214 <_svfprintf_r+0x7a8>
 8009c8c:	4651      	mov	r1, sl
 8009c8e:	4648      	mov	r0, r9
 8009c90:	aa26      	add	r2, sp, #152	; 0x98
 8009c92:	f001 f805 	bl	800aca0 <__ssprint_r>
 8009c96:	2800      	cmp	r0, #0
 8009c98:	d152      	bne.n	8009d40 <_svfprintf_r+0x12d4>
 8009c9a:	ad29      	add	r5, sp, #164	; 0xa4
 8009c9c:	e7c4      	b.n	8009c28 <_svfprintf_r+0x11bc>
 8009c9e:	2c00      	cmp	r4, #0
 8009ca0:	dde2      	ble.n	8009c68 <_svfprintf_r+0x11fc>
 8009ca2:	2710      	movs	r7, #16
 8009ca4:	4e56      	ldr	r6, [pc, #344]	; (8009e00 <_svfprintf_r+0x1394>)
 8009ca6:	2c10      	cmp	r4, #16
 8009ca8:	e9dd 3227 	ldrd	r3, r2, [sp, #156]	; 0x9c
 8009cac:	f105 0108 	add.w	r1, r5, #8
 8009cb0:	f103 0301 	add.w	r3, r3, #1
 8009cb4:	602e      	str	r6, [r5, #0]
 8009cb6:	dc07      	bgt.n	8009cc8 <_svfprintf_r+0x125c>
 8009cb8:	606c      	str	r4, [r5, #4]
 8009cba:	2b07      	cmp	r3, #7
 8009cbc:	4414      	add	r4, r2
 8009cbe:	e9cd 3427 	strd	r3, r4, [sp, #156]	; 0x9c
 8009cc2:	dcc9      	bgt.n	8009c58 <_svfprintf_r+0x11ec>
 8009cc4:	460d      	mov	r5, r1
 8009cc6:	e7cf      	b.n	8009c68 <_svfprintf_r+0x11fc>
 8009cc8:	3210      	adds	r2, #16
 8009cca:	2b07      	cmp	r3, #7
 8009ccc:	e9cd 3227 	strd	r3, r2, [sp, #156]	; 0x9c
 8009cd0:	606f      	str	r7, [r5, #4]
 8009cd2:	dd06      	ble.n	8009ce2 <_svfprintf_r+0x1276>
 8009cd4:	4651      	mov	r1, sl
 8009cd6:	4648      	mov	r0, r9
 8009cd8:	aa26      	add	r2, sp, #152	; 0x98
 8009cda:	f000 ffe1 	bl	800aca0 <__ssprint_r>
 8009cde:	bb78      	cbnz	r0, 8009d40 <_svfprintf_r+0x12d4>
 8009ce0:	a929      	add	r1, sp, #164	; 0xa4
 8009ce2:	460d      	mov	r5, r1
 8009ce4:	3c10      	subs	r4, #16
 8009ce6:	e7de      	b.n	8009ca6 <_svfprintf_r+0x123a>
 8009ce8:	2201      	movs	r2, #1
 8009cea:	2b07      	cmp	r3, #7
 8009cec:	e9cd 3727 	strd	r3, r7, [sp, #156]	; 0x9c
 8009cf0:	f8c4 b000 	str.w	fp, [r4]
 8009cf4:	6062      	str	r2, [r4, #4]
 8009cf6:	ddb7      	ble.n	8009c68 <_svfprintf_r+0x11fc>
 8009cf8:	e7ae      	b.n	8009c58 <_svfprintf_r+0x11ec>
 8009cfa:	3508      	adds	r5, #8
 8009cfc:	e7b4      	b.n	8009c68 <_svfprintf_r+0x11fc>
 8009cfe:	460c      	mov	r4, r1
 8009d00:	f7ff ba88 	b.w	8009214 <_svfprintf_r+0x7a8>
 8009d04:	e9dd 3213 	ldrd	r3, r2, [sp, #76]	; 0x4c
 8009d08:	1a9d      	subs	r5, r3, r2
 8009d0a:	2d00      	cmp	r5, #0
 8009d0c:	f77f aa86 	ble.w	800921c <_svfprintf_r+0x7b0>
 8009d10:	2710      	movs	r7, #16
 8009d12:	4e3c      	ldr	r6, [pc, #240]	; (8009e04 <_svfprintf_r+0x1398>)
 8009d14:	2d10      	cmp	r5, #16
 8009d16:	e9dd 3227 	ldrd	r3, r2, [sp, #156]	; 0x9c
 8009d1a:	6026      	str	r6, [r4, #0]
 8009d1c:	f103 0301 	add.w	r3, r3, #1
 8009d20:	dc18      	bgt.n	8009d54 <_svfprintf_r+0x12e8>
 8009d22:	6065      	str	r5, [r4, #4]
 8009d24:	2b07      	cmp	r3, #7
 8009d26:	4415      	add	r5, r2
 8009d28:	e9cd 3527 	strd	r3, r5, [sp, #156]	; 0x9c
 8009d2c:	f77f aa76 	ble.w	800921c <_svfprintf_r+0x7b0>
 8009d30:	4651      	mov	r1, sl
 8009d32:	4648      	mov	r0, r9
 8009d34:	aa26      	add	r2, sp, #152	; 0x98
 8009d36:	f000 ffb3 	bl	800aca0 <__ssprint_r>
 8009d3a:	2800      	cmp	r0, #0
 8009d3c:	f43f aa6e 	beq.w	800921c <_svfprintf_r+0x7b0>
 8009d40:	9b08      	ldr	r3, [sp, #32]
 8009d42:	2b00      	cmp	r3, #0
 8009d44:	f43f a892 	beq.w	8008e6c <_svfprintf_r+0x400>
 8009d48:	4619      	mov	r1, r3
 8009d4a:	4648      	mov	r0, r9
 8009d4c:	f7fe fdbc 	bl	80088c8 <_free_r>
 8009d50:	f7ff b88c 	b.w	8008e6c <_svfprintf_r+0x400>
 8009d54:	3210      	adds	r2, #16
 8009d56:	2b07      	cmp	r3, #7
 8009d58:	e9cd 3227 	strd	r3, r2, [sp, #156]	; 0x9c
 8009d5c:	6067      	str	r7, [r4, #4]
 8009d5e:	dc02      	bgt.n	8009d66 <_svfprintf_r+0x12fa>
 8009d60:	3408      	adds	r4, #8
 8009d62:	3d10      	subs	r5, #16
 8009d64:	e7d6      	b.n	8009d14 <_svfprintf_r+0x12a8>
 8009d66:	4651      	mov	r1, sl
 8009d68:	4648      	mov	r0, r9
 8009d6a:	aa26      	add	r2, sp, #152	; 0x98
 8009d6c:	f000 ff98 	bl	800aca0 <__ssprint_r>
 8009d70:	2800      	cmp	r0, #0
 8009d72:	d1e5      	bne.n	8009d40 <_svfprintf_r+0x12d4>
 8009d74:	ac29      	add	r4, sp, #164	; 0xa4
 8009d76:	e7f4      	b.n	8009d62 <_svfprintf_r+0x12f6>
 8009d78:	4648      	mov	r0, r9
 8009d7a:	9908      	ldr	r1, [sp, #32]
 8009d7c:	f7fe fda4 	bl	80088c8 <_free_r>
 8009d80:	f7ff ba64 	b.w	800924c <_svfprintf_r+0x7e0>
 8009d84:	9b28      	ldr	r3, [sp, #160]	; 0xa0
 8009d86:	2b00      	cmp	r3, #0
 8009d88:	f43f a870 	beq.w	8008e6c <_svfprintf_r+0x400>
 8009d8c:	4651      	mov	r1, sl
 8009d8e:	4648      	mov	r0, r9
 8009d90:	aa26      	add	r2, sp, #152	; 0x98
 8009d92:	f000 ff85 	bl	800aca0 <__ssprint_r>
 8009d96:	f7ff b869 	b.w	8008e6c <_svfprintf_r+0x400>
 8009d9a:	ea55 0206 	orrs.w	r2, r5, r6
 8009d9e:	f8cd 8020 	str.w	r8, [sp, #32]
 8009da2:	f43f ab78 	beq.w	8009496 <_svfprintf_r+0xa2a>
 8009da6:	2b01      	cmp	r3, #1
 8009da8:	f43f ac14 	beq.w	80095d4 <_svfprintf_r+0xb68>
 8009dac:	2b02      	cmp	r3, #2
 8009dae:	f50d 7ba4 	add.w	fp, sp, #328	; 0x148
 8009db2:	f43f ac56 	beq.w	8009662 <_svfprintf_r+0xbf6>
 8009db6:	f005 0307 	and.w	r3, r5, #7
 8009dba:	08ed      	lsrs	r5, r5, #3
 8009dbc:	ea45 7546 	orr.w	r5, r5, r6, lsl #29
 8009dc0:	08f6      	lsrs	r6, r6, #3
 8009dc2:	3330      	adds	r3, #48	; 0x30
 8009dc4:	ea55 0106 	orrs.w	r1, r5, r6
 8009dc8:	465a      	mov	r2, fp
 8009dca:	f80b 3d01 	strb.w	r3, [fp, #-1]!
 8009dce:	d1f2      	bne.n	8009db6 <_svfprintf_r+0x134a>
 8009dd0:	9908      	ldr	r1, [sp, #32]
 8009dd2:	07c9      	lsls	r1, r1, #31
 8009dd4:	d506      	bpl.n	8009de4 <_svfprintf_r+0x1378>
 8009dd6:	2b30      	cmp	r3, #48	; 0x30
 8009dd8:	d004      	beq.n	8009de4 <_svfprintf_r+0x1378>
 8009dda:	2330      	movs	r3, #48	; 0x30
 8009ddc:	f80b 3c01 	strb.w	r3, [fp, #-1]
 8009de0:	f1a2 0b02 	sub.w	fp, r2, #2
 8009de4:	ab52      	add	r3, sp, #328	; 0x148
 8009de6:	eba3 030b 	sub.w	r3, r3, fp
 8009dea:	9f07      	ldr	r7, [sp, #28]
 8009dec:	9307      	str	r3, [sp, #28]
 8009dee:	2300      	movs	r3, #0
 8009df0:	461e      	mov	r6, r3
 8009df2:	f8dd 8020 	ldr.w	r8, [sp, #32]
 8009df6:	9308      	str	r3, [sp, #32]
 8009df8:	461d      	mov	r5, r3
 8009dfa:	930c      	str	r3, [sp, #48]	; 0x30
 8009dfc:	f7ff b94c 	b.w	8009098 <_svfprintf_r+0x62c>
 8009e00:	0800c5fe 	.word	0x0800c5fe
 8009e04:	0800c5ee 	.word	0x0800c5ee

08009e08 <__swhatbuf_r>:
 8009e08:	b570      	push	{r4, r5, r6, lr}
 8009e0a:	460c      	mov	r4, r1
 8009e0c:	f9b1 100e 	ldrsh.w	r1, [r1, #14]
 8009e10:	4615      	mov	r5, r2
 8009e12:	2900      	cmp	r1, #0
 8009e14:	461e      	mov	r6, r3
 8009e16:	b096      	sub	sp, #88	; 0x58
 8009e18:	da07      	bge.n	8009e2a <__swhatbuf_r+0x22>
 8009e1a:	89a1      	ldrh	r1, [r4, #12]
 8009e1c:	f011 0180 	ands.w	r1, r1, #128	; 0x80
 8009e20:	d017      	beq.n	8009e52 <__swhatbuf_r+0x4a>
 8009e22:	2100      	movs	r1, #0
 8009e24:	2340      	movs	r3, #64	; 0x40
 8009e26:	4608      	mov	r0, r1
 8009e28:	e00f      	b.n	8009e4a <__swhatbuf_r+0x42>
 8009e2a:	466a      	mov	r2, sp
 8009e2c:	f000 fe26 	bl	800aa7c <_fstat_r>
 8009e30:	2800      	cmp	r0, #0
 8009e32:	dbf2      	blt.n	8009e1a <__swhatbuf_r+0x12>
 8009e34:	9901      	ldr	r1, [sp, #4]
 8009e36:	f44f 6000 	mov.w	r0, #2048	; 0x800
 8009e3a:	f401 4170 	and.w	r1, r1, #61440	; 0xf000
 8009e3e:	f5a1 5300 	sub.w	r3, r1, #8192	; 0x2000
 8009e42:	4259      	negs	r1, r3
 8009e44:	4159      	adcs	r1, r3
 8009e46:	f44f 6380 	mov.w	r3, #1024	; 0x400
 8009e4a:	6031      	str	r1, [r6, #0]
 8009e4c:	602b      	str	r3, [r5, #0]
 8009e4e:	b016      	add	sp, #88	; 0x58
 8009e50:	bd70      	pop	{r4, r5, r6, pc}
 8009e52:	f44f 6380 	mov.w	r3, #1024	; 0x400
 8009e56:	e7e6      	b.n	8009e26 <__swhatbuf_r+0x1e>

08009e58 <__smakebuf_r>:
 8009e58:	898b      	ldrh	r3, [r1, #12]
 8009e5a:	b573      	push	{r0, r1, r4, r5, r6, lr}
 8009e5c:	079d      	lsls	r5, r3, #30
 8009e5e:	4606      	mov	r6, r0
 8009e60:	460c      	mov	r4, r1
 8009e62:	d507      	bpl.n	8009e74 <__smakebuf_r+0x1c>
 8009e64:	f104 0343 	add.w	r3, r4, #67	; 0x43
 8009e68:	6023      	str	r3, [r4, #0]
 8009e6a:	6123      	str	r3, [r4, #16]
 8009e6c:	2301      	movs	r3, #1
 8009e6e:	6163      	str	r3, [r4, #20]
 8009e70:	b002      	add	sp, #8
 8009e72:	bd70      	pop	{r4, r5, r6, pc}
 8009e74:	466a      	mov	r2, sp
 8009e76:	ab01      	add	r3, sp, #4
 8009e78:	f7ff ffc6 	bl	8009e08 <__swhatbuf_r>
 8009e7c:	9900      	ldr	r1, [sp, #0]
 8009e7e:	4605      	mov	r5, r0
 8009e80:	4630      	mov	r0, r6
 8009e82:	f7fa ff69 	bl	8004d58 <_malloc_r>
 8009e86:	b948      	cbnz	r0, 8009e9c <__smakebuf_r+0x44>
 8009e88:	f9b4 300c 	ldrsh.w	r3, [r4, #12]
 8009e8c:	059a      	lsls	r2, r3, #22
 8009e8e:	d4ef      	bmi.n	8009e70 <__smakebuf_r+0x18>
 8009e90:	f023 0303 	bic.w	r3, r3, #3
 8009e94:	f043 0302 	orr.w	r3, r3, #2
 8009e98:	81a3      	strh	r3, [r4, #12]
 8009e9a:	e7e3      	b.n	8009e64 <__smakebuf_r+0xc>
 8009e9c:	89a3      	ldrh	r3, [r4, #12]
 8009e9e:	6020      	str	r0, [r4, #0]
 8009ea0:	f043 0380 	orr.w	r3, r3, #128	; 0x80
 8009ea4:	81a3      	strh	r3, [r4, #12]
 8009ea6:	9b00      	ldr	r3, [sp, #0]
 8009ea8:	6120      	str	r0, [r4, #16]
 8009eaa:	6163      	str	r3, [r4, #20]
 8009eac:	9b01      	ldr	r3, [sp, #4]
 8009eae:	b15b      	cbz	r3, 8009ec8 <__smakebuf_r+0x70>
 8009eb0:	4630      	mov	r0, r6
 8009eb2:	f9b4 100e 	ldrsh.w	r1, [r4, #14]
 8009eb6:	f000 fdf3 	bl	800aaa0 <_isatty_r>
 8009eba:	b128      	cbz	r0, 8009ec8 <__smakebuf_r+0x70>
 8009ebc:	89a3      	ldrh	r3, [r4, #12]
 8009ebe:	f023 0303 	bic.w	r3, r3, #3
 8009ec2:	f043 0301 	orr.w	r3, r3, #1
 8009ec6:	81a3      	strh	r3, [r4, #12]
 8009ec8:	89a3      	ldrh	r3, [r4, #12]
 8009eca:	431d      	orrs	r5, r3
 8009ecc:	81a5      	strh	r5, [r4, #12]
 8009ece:	e7cf      	b.n	8009e70 <__smakebuf_r+0x18>

08009ed0 <_Balloc>:
 8009ed0:	6c43      	ldr	r3, [r0, #68]	; 0x44
 8009ed2:	b570      	push	{r4, r5, r6, lr}
 8009ed4:	4605      	mov	r5, r0
 8009ed6:	460c      	mov	r4, r1
 8009ed8:	b17b      	cbz	r3, 8009efa <_Balloc+0x2a>
 8009eda:	6c6b      	ldr	r3, [r5, #68]	; 0x44
 8009edc:	f853 0024 	ldr.w	r0, [r3, r4, lsl #2]
 8009ee0:	b9a0      	cbnz	r0, 8009f0c <_Balloc+0x3c>
 8009ee2:	2101      	movs	r1, #1
 8009ee4:	fa01 f604 	lsl.w	r6, r1, r4
 8009ee8:	1d72      	adds	r2, r6, #5
 8009eea:	4628      	mov	r0, r5
 8009eec:	0092      	lsls	r2, r2, #2
 8009eee:	f000 fe8f 	bl	800ac10 <_calloc_r>
 8009ef2:	b148      	cbz	r0, 8009f08 <_Balloc+0x38>
 8009ef4:	e9c0 4601 	strd	r4, r6, [r0, #4]
 8009ef8:	e00b      	b.n	8009f12 <_Balloc+0x42>
 8009efa:	2221      	movs	r2, #33	; 0x21
 8009efc:	2104      	movs	r1, #4
 8009efe:	f000 fe87 	bl	800ac10 <_calloc_r>
 8009f02:	6468      	str	r0, [r5, #68]	; 0x44
 8009f04:	2800      	cmp	r0, #0
 8009f06:	d1e8      	bne.n	8009eda <_Balloc+0xa>
 8009f08:	2000      	movs	r0, #0
 8009f0a:	bd70      	pop	{r4, r5, r6, pc}
 8009f0c:	6802      	ldr	r2, [r0, #0]
 8009f0e:	f843 2024 	str.w	r2, [r3, r4, lsl #2]
 8009f12:	2300      	movs	r3, #0
 8009f14:	e9c0 3303 	strd	r3, r3, [r0, #12]
 8009f18:	e7f7      	b.n	8009f0a <_Balloc+0x3a>

08009f1a <_Bfree>:
 8009f1a:	b131      	cbz	r1, 8009f2a <_Bfree+0x10>
 8009f1c:	6c43      	ldr	r3, [r0, #68]	; 0x44
 8009f1e:	684a      	ldr	r2, [r1, #4]
 8009f20:	f853 0022 	ldr.w	r0, [r3, r2, lsl #2]
 8009f24:	6008      	str	r0, [r1, #0]
 8009f26:	f843 1022 	str.w	r1, [r3, r2, lsl #2]
 8009f2a:	4770      	bx	lr

08009f2c <__multadd>:
 8009f2c:	e92d 41f0 	stmdb	sp!, {r4, r5, r6, r7, r8, lr}
 8009f30:	4607      	mov	r7, r0
 8009f32:	460c      	mov	r4, r1
 8009f34:	461e      	mov	r6, r3
 8009f36:	2000      	movs	r0, #0
 8009f38:	690d      	ldr	r5, [r1, #16]
 8009f3a:	f101 0c14 	add.w	ip, r1, #20
 8009f3e:	f8dc 3000 	ldr.w	r3, [ip]
 8009f42:	3001      	adds	r0, #1
 8009f44:	b299      	uxth	r1, r3
 8009f46:	fb02 6101 	mla	r1, r2, r1, r6
 8009f4a:	0c1e      	lsrs	r6, r3, #16
 8009f4c:	0c0b      	lsrs	r3, r1, #16
 8009f4e:	fb02 3306 	mla	r3, r2, r6, r3
 8009f52:	b289      	uxth	r1, r1
 8009f54:	eb01 4103 	add.w	r1, r1, r3, lsl #16
 8009f58:	4285      	cmp	r5, r0
 8009f5a:	ea4f 4613 	mov.w	r6, r3, lsr #16
 8009f5e:	f84c 1b04 	str.w	r1, [ip], #4
 8009f62:	dcec      	bgt.n	8009f3e <__multadd+0x12>
 8009f64:	b30e      	cbz	r6, 8009faa <__multadd+0x7e>
 8009f66:	68a3      	ldr	r3, [r4, #8]
 8009f68:	42ab      	cmp	r3, r5
 8009f6a:	dc19      	bgt.n	8009fa0 <__multadd+0x74>
 8009f6c:	6861      	ldr	r1, [r4, #4]
 8009f6e:	4638      	mov	r0, r7
 8009f70:	3101      	adds	r1, #1
 8009f72:	f7ff ffad 	bl	8009ed0 <_Balloc>
 8009f76:	4680      	mov	r8, r0
 8009f78:	b928      	cbnz	r0, 8009f86 <__multadd+0x5a>
 8009f7a:	4602      	mov	r2, r0
 8009f7c:	21ba      	movs	r1, #186	; 0xba
 8009f7e:	4b0c      	ldr	r3, [pc, #48]	; (8009fb0 <__multadd+0x84>)
 8009f80:	480c      	ldr	r0, [pc, #48]	; (8009fb4 <__multadd+0x88>)
 8009f82:	f000 fe27 	bl	800abd4 <__assert_func>
 8009f86:	6922      	ldr	r2, [r4, #16]
 8009f88:	f104 010c 	add.w	r1, r4, #12
 8009f8c:	3202      	adds	r2, #2
 8009f8e:	0092      	lsls	r2, r2, #2
 8009f90:	300c      	adds	r0, #12
 8009f92:	f7fd fd8b 	bl	8007aac <memcpy>
 8009f96:	4621      	mov	r1, r4
 8009f98:	4638      	mov	r0, r7
 8009f9a:	f7ff ffbe 	bl	8009f1a <_Bfree>
 8009f9e:	4644      	mov	r4, r8
 8009fa0:	eb04 0385 	add.w	r3, r4, r5, lsl #2
 8009fa4:	3501      	adds	r5, #1
 8009fa6:	615e      	str	r6, [r3, #20]
 8009fa8:	6125      	str	r5, [r4, #16]
 8009faa:	4620      	mov	r0, r4
 8009fac:	e8bd 81f0 	ldmia.w	sp!, {r4, r5, r6, r7, r8, pc}
 8009fb0:	0800c585 	.word	0x0800c585
 8009fb4:	0800c60e 	.word	0x0800c60e

08009fb8 <__hi0bits>:
 8009fb8:	0c02      	lsrs	r2, r0, #16
 8009fba:	0412      	lsls	r2, r2, #16
 8009fbc:	4603      	mov	r3, r0
 8009fbe:	b9ca      	cbnz	r2, 8009ff4 <__hi0bits+0x3c>
 8009fc0:	0403      	lsls	r3, r0, #16
 8009fc2:	2010      	movs	r0, #16
 8009fc4:	f013 4f7f 	tst.w	r3, #4278190080	; 0xff000000
 8009fc8:	bf04      	itt	eq
 8009fca:	021b      	lsleq	r3, r3, #8
 8009fcc:	3008      	addeq	r0, #8
 8009fce:	f013 4f70 	tst.w	r3, #4026531840	; 0xf0000000
 8009fd2:	bf04      	itt	eq
 8009fd4:	011b      	lsleq	r3, r3, #4
 8009fd6:	3004      	addeq	r0, #4
 8009fd8:	f013 4f40 	tst.w	r3, #3221225472	; 0xc0000000
 8009fdc:	bf04      	itt	eq
 8009fde:	009b      	lsleq	r3, r3, #2
 8009fe0:	3002      	addeq	r0, #2
 8009fe2:	2b00      	cmp	r3, #0
 8009fe4:	db05      	blt.n	8009ff2 <__hi0bits+0x3a>
 8009fe6:	f013 4f80 	tst.w	r3, #1073741824	; 0x40000000
 8009fea:	f100 0001 	add.w	r0, r0, #1
 8009fee:	bf08      	it	eq
 8009ff0:	2020      	moveq	r0, #32
 8009ff2:	4770      	bx	lr
 8009ff4:	2000      	movs	r0, #0
 8009ff6:	e7e5      	b.n	8009fc4 <__hi0bits+0xc>

08009ff8 <__lo0bits>:
 8009ff8:	6803      	ldr	r3, [r0, #0]
 8009ffa:	4602      	mov	r2, r0
 8009ffc:	f013 0007 	ands.w	r0, r3, #7
 800a000:	d00b      	beq.n	800a01a <__lo0bits+0x22>
 800a002:	07d9      	lsls	r1, r3, #31
 800a004:	d421      	bmi.n	800a04a <__lo0bits+0x52>
 800a006:	0798      	lsls	r0, r3, #30
 800a008:	bf49      	itett	mi
 800a00a:	085b      	lsrmi	r3, r3, #1
 800a00c:	089b      	lsrpl	r3, r3, #2
 800a00e:	2001      	movmi	r0, #1
 800a010:	6013      	strmi	r3, [r2, #0]
 800a012:	bf5c      	itt	pl
 800a014:	2002      	movpl	r0, #2
 800a016:	6013      	strpl	r3, [r2, #0]
 800a018:	4770      	bx	lr
 800a01a:	b299      	uxth	r1, r3
 800a01c:	b909      	cbnz	r1, 800a022 <__lo0bits+0x2a>
 800a01e:	2010      	movs	r0, #16
 800a020:	0c1b      	lsrs	r3, r3, #16
 800a022:	b2d9      	uxtb	r1, r3
 800a024:	b909      	cbnz	r1, 800a02a <__lo0bits+0x32>
 800a026:	3008      	adds	r0, #8
 800a028:	0a1b      	lsrs	r3, r3, #8
 800a02a:	0719      	lsls	r1, r3, #28
 800a02c:	bf04      	itt	eq
 800a02e:	091b      	lsreq	r3, r3, #4
 800a030:	3004      	addeq	r0, #4
 800a032:	0799      	lsls	r1, r3, #30
 800a034:	bf04      	itt	eq
 800a036:	089b      	lsreq	r3, r3, #2
 800a038:	3002      	addeq	r0, #2
 800a03a:	07d9      	lsls	r1, r3, #31
 800a03c:	d403      	bmi.n	800a046 <__lo0bits+0x4e>
 800a03e:	085b      	lsrs	r3, r3, #1
 800a040:	f100 0001 	add.w	r0, r0, #1
 800a044:	d003      	beq.n	800a04e <__lo0bits+0x56>
 800a046:	6013      	str	r3, [r2, #0]
 800a048:	4770      	bx	lr
 800a04a:	2000      	movs	r0, #0
 800a04c:	4770      	bx	lr
 800a04e:	2020      	movs	r0, #32
 800a050:	4770      	bx	lr
	...

0800a054 <__i2b>:
 800a054:	b510      	push	{r4, lr}
 800a056:	460c      	mov	r4, r1
 800a058:	2101      	movs	r1, #1
 800a05a:	f7ff ff39 	bl	8009ed0 <_Balloc>
 800a05e:	4602      	mov	r2, r0
 800a060:	b928      	cbnz	r0, 800a06e <__i2b+0x1a>
 800a062:	f240 1145 	movw	r1, #325	; 0x145
 800a066:	4b04      	ldr	r3, [pc, #16]	; (800a078 <__i2b+0x24>)
 800a068:	4804      	ldr	r0, [pc, #16]	; (800a07c <__i2b+0x28>)
 800a06a:	f000 fdb3 	bl	800abd4 <__assert_func>
 800a06e:	2301      	movs	r3, #1
 800a070:	6144      	str	r4, [r0, #20]
 800a072:	6103      	str	r3, [r0, #16]
 800a074:	bd10      	pop	{r4, pc}
 800a076:	bf00      	nop
 800a078:	0800c585 	.word	0x0800c585
 800a07c:	0800c60e 	.word	0x0800c60e

0800a080 <__multiply>:
 800a080:	e92d 4ff0 	stmdb	sp!, {r4, r5, r6, r7, r8, r9, sl, fp, lr}
 800a084:	4691      	mov	r9, r2
 800a086:	690a      	ldr	r2, [r1, #16]
 800a088:	f8d9 3010 	ldr.w	r3, [r9, #16]
 800a08c:	460c      	mov	r4, r1
 800a08e:	429a      	cmp	r2, r3
 800a090:	bfbe      	ittt	lt
 800a092:	460b      	movlt	r3, r1
 800a094:	464c      	movlt	r4, r9
 800a096:	4699      	movlt	r9, r3
 800a098:	6927      	ldr	r7, [r4, #16]
 800a09a:	f8d9 a010 	ldr.w	sl, [r9, #16]
 800a09e:	68a3      	ldr	r3, [r4, #8]
 800a0a0:	6861      	ldr	r1, [r4, #4]
 800a0a2:	eb07 060a 	add.w	r6, r7, sl
 800a0a6:	42b3      	cmp	r3, r6
 800a0a8:	b085      	sub	sp, #20
 800a0aa:	bfb8      	it	lt
 800a0ac:	3101      	addlt	r1, #1
 800a0ae:	f7ff ff0f 	bl	8009ed0 <_Balloc>
 800a0b2:	b930      	cbnz	r0, 800a0c2 <__multiply+0x42>
 800a0b4:	4602      	mov	r2, r0
 800a0b6:	f44f 71b1 	mov.w	r1, #354	; 0x162
 800a0ba:	4b43      	ldr	r3, [pc, #268]	; (800a1c8 <__multiply+0x148>)
 800a0bc:	4843      	ldr	r0, [pc, #268]	; (800a1cc <__multiply+0x14c>)
 800a0be:	f000 fd89 	bl	800abd4 <__assert_func>
 800a0c2:	f100 0514 	add.w	r5, r0, #20
 800a0c6:	462b      	mov	r3, r5
 800a0c8:	2200      	movs	r2, #0
 800a0ca:	eb05 0886 	add.w	r8, r5, r6, lsl #2
 800a0ce:	4543      	cmp	r3, r8
 800a0d0:	d321      	bcc.n	800a116 <__multiply+0x96>
 800a0d2:	f104 0314 	add.w	r3, r4, #20
 800a0d6:	eb03 0787 	add.w	r7, r3, r7, lsl #2
 800a0da:	f109 0314 	add.w	r3, r9, #20
 800a0de:	eb03 028a 	add.w	r2, r3, sl, lsl #2
 800a0e2:	9202      	str	r2, [sp, #8]
 800a0e4:	1b3a      	subs	r2, r7, r4
 800a0e6:	3a15      	subs	r2, #21
 800a0e8:	f022 0203 	bic.w	r2, r2, #3
 800a0ec:	3204      	adds	r2, #4
 800a0ee:	f104 0115 	add.w	r1, r4, #21
 800a0f2:	428f      	cmp	r7, r1
 800a0f4:	bf38      	it	cc
 800a0f6:	2204      	movcc	r2, #4
 800a0f8:	9201      	str	r2, [sp, #4]
 800a0fa:	9a02      	ldr	r2, [sp, #8]
 800a0fc:	9303      	str	r3, [sp, #12]
 800a0fe:	429a      	cmp	r2, r3
 800a100:	d80c      	bhi.n	800a11c <__multiply+0x9c>
 800a102:	2e00      	cmp	r6, #0
 800a104:	dd03      	ble.n	800a10e <__multiply+0x8e>
 800a106:	f858 3d04 	ldr.w	r3, [r8, #-4]!
 800a10a:	2b00      	cmp	r3, #0
 800a10c:	d05a      	beq.n	800a1c4 <__multiply+0x144>
 800a10e:	6106      	str	r6, [r0, #16]
 800a110:	b005      	add	sp, #20
 800a112:	e8bd 8ff0 	ldmia.w	sp!, {r4, r5, r6, r7, r8, r9, sl, fp, pc}
 800a116:	f843 2b04 	str.w	r2, [r3], #4
 800a11a:	e7d8      	b.n	800a0ce <__multiply+0x4e>
 800a11c:	f8b3 a000 	ldrh.w	sl, [r3]
 800a120:	f1ba 0f00 	cmp.w	sl, #0
 800a124:	d023      	beq.n	800a16e <__multiply+0xee>
 800a126:	46a9      	mov	r9, r5
 800a128:	f04f 0c00 	mov.w	ip, #0
 800a12c:	f104 0e14 	add.w	lr, r4, #20
 800a130:	f85e 2b04 	ldr.w	r2, [lr], #4
 800a134:	f8d9 1000 	ldr.w	r1, [r9]
 800a138:	fa1f fb82 	uxth.w	fp, r2
 800a13c:	b289      	uxth	r1, r1
 800a13e:	fb0a 110b 	mla	r1, sl, fp, r1
 800a142:	4461      	add	r1, ip
 800a144:	f8d9 c000 	ldr.w	ip, [r9]
 800a148:	0c12      	lsrs	r2, r2, #16
 800a14a:	ea4f 4c1c 	mov.w	ip, ip, lsr #16
 800a14e:	fb0a c202 	mla	r2, sl, r2, ip
 800a152:	eb02 4211 	add.w	r2, r2, r1, lsr #16
 800a156:	b289      	uxth	r1, r1
 800a158:	ea41 4102 	orr.w	r1, r1, r2, lsl #16
 800a15c:	4577      	cmp	r7, lr
 800a15e:	ea4f 4c12 	mov.w	ip, r2, lsr #16
 800a162:	f849 1b04 	str.w	r1, [r9], #4
 800a166:	d8e3      	bhi.n	800a130 <__multiply+0xb0>
 800a168:	9a01      	ldr	r2, [sp, #4]
 800a16a:	f845 c002 	str.w	ip, [r5, r2]
 800a16e:	9a03      	ldr	r2, [sp, #12]
 800a170:	3304      	adds	r3, #4
 800a172:	f8b2 9002 	ldrh.w	r9, [r2, #2]
 800a176:	f1b9 0f00 	cmp.w	r9, #0
 800a17a:	d021      	beq.n	800a1c0 <__multiply+0x140>
 800a17c:	46ae      	mov	lr, r5
 800a17e:	f04f 0a00 	mov.w	sl, #0
 800a182:	6829      	ldr	r1, [r5, #0]
 800a184:	f104 0c14 	add.w	ip, r4, #20
 800a188:	f8bc b000 	ldrh.w	fp, [ip]
 800a18c:	f8be 2002 	ldrh.w	r2, [lr, #2]
 800a190:	b289      	uxth	r1, r1
 800a192:	fb09 220b 	mla	r2, r9, fp, r2
 800a196:	4452      	add	r2, sl
 800a198:	ea41 4102 	orr.w	r1, r1, r2, lsl #16
 800a19c:	f84e 1b04 	str.w	r1, [lr], #4
 800a1a0:	f85c 1b04 	ldr.w	r1, [ip], #4
 800a1a4:	ea4f 4a11 	mov.w	sl, r1, lsr #16
 800a1a8:	f8be 1000 	ldrh.w	r1, [lr]
 800a1ac:	4567      	cmp	r7, ip
 800a1ae:	fb09 110a 	mla	r1, r9, sl, r1
 800a1b2:	eb01 4112 	add.w	r1, r1, r2, lsr #16
 800a1b6:	ea4f 4a11 	mov.w	sl, r1, lsr #16
 800a1ba:	d8e5      	bhi.n	800a188 <__multiply+0x108>
 800a1bc:	9a01      	ldr	r2, [sp, #4]
 800a1be:	50a9      	str	r1, [r5, r2]
 800a1c0:	3504      	adds	r5, #4
 800a1c2:	e79a      	b.n	800a0fa <__multiply+0x7a>
 800a1c4:	3e01      	subs	r6, #1
 800a1c6:	e79c      	b.n	800a102 <__multiply+0x82>
 800a1c8:	0800c585 	.word	0x0800c585
 800a1cc:	0800c60e 	.word	0x0800c60e

0800a1d0 <__pow5mult>:
 800a1d0:	e92d 43f8 	stmdb	sp!, {r3, r4, r5, r6, r7, r8, r9, lr}
 800a1d4:	4615      	mov	r5, r2
 800a1d6:	f012 0203 	ands.w	r2, r2, #3
 800a1da:	4606      	mov	r6, r0
 800a1dc:	460f      	mov	r7, r1
 800a1de:	d007      	beq.n	800a1f0 <__pow5mult+0x20>
 800a1e0:	4c1a      	ldr	r4, [pc, #104]	; (800a24c <__pow5mult+0x7c>)
 800a1e2:	3a01      	subs	r2, #1
 800a1e4:	2300      	movs	r3, #0
 800a1e6:	f854 2022 	ldr.w	r2, [r4, r2, lsl #2]
 800a1ea:	f7ff fe9f 	bl	8009f2c <__multadd>
 800a1ee:	4607      	mov	r7, r0
 800a1f0:	10ad      	asrs	r5, r5, #2
 800a1f2:	d027      	beq.n	800a244 <__pow5mult+0x74>
 800a1f4:	6c34      	ldr	r4, [r6, #64]	; 0x40
 800a1f6:	b944      	cbnz	r4, 800a20a <__pow5mult+0x3a>
 800a1f8:	f240 2171 	movw	r1, #625	; 0x271
 800a1fc:	4630      	mov	r0, r6
 800a1fe:	f7ff ff29 	bl	800a054 <__i2b>
 800a202:	2300      	movs	r3, #0
 800a204:	4604      	mov	r4, r0
 800a206:	6430      	str	r0, [r6, #64]	; 0x40
 800a208:	6003      	str	r3, [r0, #0]
 800a20a:	f04f 0900 	mov.w	r9, #0
 800a20e:	07eb      	lsls	r3, r5, #31
 800a210:	d50a      	bpl.n	800a228 <__pow5mult+0x58>
 800a212:	4639      	mov	r1, r7
 800a214:	4622      	mov	r2, r4
 800a216:	4630      	mov	r0, r6
 800a218:	f7ff ff32 	bl	800a080 <__multiply>
 800a21c:	4680      	mov	r8, r0
 800a21e:	4639      	mov	r1, r7
 800a220:	4630      	mov	r0, r6
 800a222:	f7ff fe7a 	bl	8009f1a <_Bfree>
 800a226:	4647      	mov	r7, r8
 800a228:	106d      	asrs	r5, r5, #1
 800a22a:	d00b      	beq.n	800a244 <__pow5mult+0x74>
 800a22c:	6820      	ldr	r0, [r4, #0]
 800a22e:	b938      	cbnz	r0, 800a240 <__pow5mult+0x70>
 800a230:	4622      	mov	r2, r4
 800a232:	4621      	mov	r1, r4
 800a234:	4630      	mov	r0, r6
 800a236:	f7ff ff23 	bl	800a080 <__multiply>
 800a23a:	6020      	str	r0, [r4, #0]
 800a23c:	f8c0 9000 	str.w	r9, [r0]
 800a240:	4604      	mov	r4, r0
 800a242:	e7e4      	b.n	800a20e <__pow5mult+0x3e>
 800a244:	4638      	mov	r0, r7
 800a246:	e8bd 83f8 	ldmia.w	sp!, {r3, r4, r5, r6, r7, r8, r9, pc}
 800a24a:	bf00      	nop
 800a24c:	0800c758 	.word	0x0800c758

0800a250 <__lshift>:
 800a250:	e92d 47f0 	stmdb	sp!, {r4, r5, r6, r7, r8, r9, sl, lr}
 800a254:	460c      	mov	r4, r1
 800a256:	4607      	mov	r7, r0
 800a258:	4691      	mov	r9, r2
 800a25a:	6923      	ldr	r3, [r4, #16]
 800a25c:	6849      	ldr	r1, [r1, #4]
 800a25e:	eb03 1862 	add.w	r8, r3, r2, asr #5
 800a262:	68a3      	ldr	r3, [r4, #8]
 800a264:	ea4f 1a62 	mov.w	sl, r2, asr #5
 800a268:	f108 0601 	add.w	r6, r8, #1
 800a26c:	42b3      	cmp	r3, r6
 800a26e:	db0b      	blt.n	800a288 <__lshift+0x38>
 800a270:	4638      	mov	r0, r7
 800a272:	f7ff fe2d 	bl	8009ed0 <_Balloc>
 800a276:	4605      	mov	r5, r0
 800a278:	b948      	cbnz	r0, 800a28e <__lshift+0x3e>
 800a27a:	4602      	mov	r2, r0
 800a27c:	f44f 71ef 	mov.w	r1, #478	; 0x1de
 800a280:	4b27      	ldr	r3, [pc, #156]	; (800a320 <__lshift+0xd0>)
 800a282:	4828      	ldr	r0, [pc, #160]	; (800a324 <__lshift+0xd4>)
 800a284:	f000 fca6 	bl	800abd4 <__assert_func>
 800a288:	3101      	adds	r1, #1
 800a28a:	005b      	lsls	r3, r3, #1
 800a28c:	e7ee      	b.n	800a26c <__lshift+0x1c>
 800a28e:	2300      	movs	r3, #0
 800a290:	f100 0114 	add.w	r1, r0, #20
 800a294:	f100 0210 	add.w	r2, r0, #16
 800a298:	4618      	mov	r0, r3
 800a29a:	4553      	cmp	r3, sl
 800a29c:	db33      	blt.n	800a306 <__lshift+0xb6>
 800a29e:	6920      	ldr	r0, [r4, #16]
 800a2a0:	ea2a 7aea 	bic.w	sl, sl, sl, asr #31
 800a2a4:	f104 0314 	add.w	r3, r4, #20
 800a2a8:	f019 091f 	ands.w	r9, r9, #31
 800a2ac:	eb01 018a 	add.w	r1, r1, sl, lsl #2
 800a2b0:	eb03 0c80 	add.w	ip, r3, r0, lsl #2
 800a2b4:	d02b      	beq.n	800a30e <__lshift+0xbe>
 800a2b6:	468a      	mov	sl, r1
 800a2b8:	2200      	movs	r2, #0
 800a2ba:	f1c9 0e20 	rsb	lr, r9, #32
 800a2be:	6818      	ldr	r0, [r3, #0]
 800a2c0:	fa00 f009 	lsl.w	r0, r0, r9
 800a2c4:	4310      	orrs	r0, r2
 800a2c6:	f84a 0b04 	str.w	r0, [sl], #4
 800a2ca:	f853 2b04 	ldr.w	r2, [r3], #4
 800a2ce:	459c      	cmp	ip, r3
 800a2d0:	fa22 f20e 	lsr.w	r2, r2, lr
 800a2d4:	d8f3      	bhi.n	800a2be <__lshift+0x6e>
 800a2d6:	ebac 0304 	sub.w	r3, ip, r4
 800a2da:	3b15      	subs	r3, #21
 800a2dc:	f023 0303 	bic.w	r3, r3, #3
 800a2e0:	3304      	adds	r3, #4
 800a2e2:	f104 0015 	add.w	r0, r4, #21
 800a2e6:	4584      	cmp	ip, r0
 800a2e8:	bf38      	it	cc
 800a2ea:	2304      	movcc	r3, #4
 800a2ec:	50ca      	str	r2, [r1, r3]
 800a2ee:	b10a      	cbz	r2, 800a2f4 <__lshift+0xa4>
 800a2f0:	f108 0602 	add.w	r6, r8, #2
 800a2f4:	3e01      	subs	r6, #1
 800a2f6:	4638      	mov	r0, r7
 800a2f8:	4621      	mov	r1, r4
 800a2fa:	612e      	str	r6, [r5, #16]
 800a2fc:	f7ff fe0d 	bl	8009f1a <_Bfree>
 800a300:	4628      	mov	r0, r5
 800a302:	e8bd 87f0 	ldmia.w	sp!, {r4, r5, r6, r7, r8, r9, sl, pc}
 800a306:	f842 0f04 	str.w	r0, [r2, #4]!
 800a30a:	3301      	adds	r3, #1
 800a30c:	e7c5      	b.n	800a29a <__lshift+0x4a>
 800a30e:	3904      	subs	r1, #4
 800a310:	f853 2b04 	ldr.w	r2, [r3], #4
 800a314:	459c      	cmp	ip, r3
 800a316:	f841 2f04 	str.w	r2, [r1, #4]!
 800a31a:	d8f9      	bhi.n	800a310 <__lshift+0xc0>
 800a31c:	e7ea      	b.n	800a2f4 <__lshift+0xa4>
 800a31e:	bf00      	nop
 800a320:	0800c585 	.word	0x0800c585
 800a324:	0800c60e 	.word	0x0800c60e

0800a328 <__mcmp>:
 800a328:	4603      	mov	r3, r0
 800a32a:	690a      	ldr	r2, [r1, #16]
 800a32c:	6900      	ldr	r0, [r0, #16]
 800a32e:	b530      	push	{r4, r5, lr}
 800a330:	1a80      	subs	r0, r0, r2
 800a332:	d10d      	bne.n	800a350 <__mcmp+0x28>
 800a334:	3314      	adds	r3, #20
 800a336:	3114      	adds	r1, #20
 800a338:	eb03 0482 	add.w	r4, r3, r2, lsl #2
 800a33c:	eb01 0182 	add.w	r1, r1, r2, lsl #2
 800a340:	f854 5d04 	ldr.w	r5, [r4, #-4]!
 800a344:	f851 2d04 	ldr.w	r2, [r1, #-4]!
 800a348:	4295      	cmp	r5, r2
 800a34a:	d002      	beq.n	800a352 <__mcmp+0x2a>
 800a34c:	d304      	bcc.n	800a358 <__mcmp+0x30>
 800a34e:	2001      	movs	r0, #1
 800a350:	bd30      	pop	{r4, r5, pc}
 800a352:	42a3      	cmp	r3, r4
 800a354:	d3f4      	bcc.n	800a340 <__mcmp+0x18>
 800a356:	e7fb      	b.n	800a350 <__mcmp+0x28>
 800a358:	f04f 30ff 	mov.w	r0, #4294967295	; 0xffffffff
 800a35c:	e7f8      	b.n	800a350 <__mcmp+0x28>
	...

0800a360 <__mdiff>:
 800a360:	e92d 4ff8 	stmdb	sp!, {r3, r4, r5, r6, r7, r8, r9, sl, fp, lr}
 800a364:	460d      	mov	r5, r1
 800a366:	4607      	mov	r7, r0
 800a368:	4611      	mov	r1, r2
 800a36a:	4628      	mov	r0, r5
 800a36c:	4614      	mov	r4, r2
 800a36e:	f7ff ffdb 	bl	800a328 <__mcmp>
 800a372:	1e06      	subs	r6, r0, #0
 800a374:	d111      	bne.n	800a39a <__mdiff+0x3a>
 800a376:	4631      	mov	r1, r6
 800a378:	4638      	mov	r0, r7
 800a37a:	f7ff fda9 	bl	8009ed0 <_Balloc>
 800a37e:	4602      	mov	r2, r0
 800a380:	b928      	cbnz	r0, 800a38e <__mdiff+0x2e>
 800a382:	f240 2137 	movw	r1, #567	; 0x237
 800a386:	4b3a      	ldr	r3, [pc, #232]	; (800a470 <__mdiff+0x110>)
 800a388:	483a      	ldr	r0, [pc, #232]	; (800a474 <__mdiff+0x114>)
 800a38a:	f000 fc23 	bl	800abd4 <__assert_func>
 800a38e:	2301      	movs	r3, #1
 800a390:	e9c0 3604 	strd	r3, r6, [r0, #16]
 800a394:	4610      	mov	r0, r2
 800a396:	e8bd 8ff8 	ldmia.w	sp!, {r3, r4, r5, r6, r7, r8, r9, sl, fp, pc}
 800a39a:	bfa4      	itt	ge
 800a39c:	4623      	movge	r3, r4
 800a39e:	462c      	movge	r4, r5
 800a3a0:	4638      	mov	r0, r7
 800a3a2:	6861      	ldr	r1, [r4, #4]
 800a3a4:	bfa6      	itte	ge
 800a3a6:	461d      	movge	r5, r3
 800a3a8:	2600      	movge	r6, #0
 800a3aa:	2601      	movlt	r6, #1
 800a3ac:	f7ff fd90 	bl	8009ed0 <_Balloc>
 800a3b0:	4602      	mov	r2, r0
 800a3b2:	b918      	cbnz	r0, 800a3bc <__mdiff+0x5c>
 800a3b4:	f240 2145 	movw	r1, #581	; 0x245
 800a3b8:	4b2d      	ldr	r3, [pc, #180]	; (800a470 <__mdiff+0x110>)
 800a3ba:	e7e5      	b.n	800a388 <__mdiff+0x28>
 800a3bc:	f102 0814 	add.w	r8, r2, #20
 800a3c0:	46c2      	mov	sl, r8
 800a3c2:	f04f 0c00 	mov.w	ip, #0
 800a3c6:	6927      	ldr	r7, [r4, #16]
 800a3c8:	60c6      	str	r6, [r0, #12]
 800a3ca:	692e      	ldr	r6, [r5, #16]
 800a3cc:	f104 0014 	add.w	r0, r4, #20
 800a3d0:	f105 0914 	add.w	r9, r5, #20
 800a3d4:	eb00 0e87 	add.w	lr, r0, r7, lsl #2
 800a3d8:	eb09 0686 	add.w	r6, r9, r6, lsl #2
 800a3dc:	3410      	adds	r4, #16
 800a3de:	f854 bf04 	ldr.w	fp, [r4, #4]!
 800a3e2:	f859 3b04 	ldr.w	r3, [r9], #4
 800a3e6:	fa1f f18b 	uxth.w	r1, fp
 800a3ea:	4461      	add	r1, ip
 800a3ec:	fa1f fc83 	uxth.w	ip, r3
 800a3f0:	0c1b      	lsrs	r3, r3, #16
 800a3f2:	eba1 010c 	sub.w	r1, r1, ip
 800a3f6:	ebc3 431b 	rsb	r3, r3, fp, lsr #16
 800a3fa:	eb03 4321 	add.w	r3, r3, r1, asr #16
 800a3fe:	b289      	uxth	r1, r1
 800a400:	ea41 4103 	orr.w	r1, r1, r3, lsl #16
 800a404:	454e      	cmp	r6, r9
 800a406:	ea4f 4c23 	mov.w	ip, r3, asr #16
 800a40a:	f84a 1b04 	str.w	r1, [sl], #4
 800a40e:	d8e6      	bhi.n	800a3de <__mdiff+0x7e>
 800a410:	1b73      	subs	r3, r6, r5
 800a412:	3b15      	subs	r3, #21
 800a414:	f023 0303 	bic.w	r3, r3, #3
 800a418:	3515      	adds	r5, #21
 800a41a:	3304      	adds	r3, #4
 800a41c:	42ae      	cmp	r6, r5
 800a41e:	bf38      	it	cc
 800a420:	2304      	movcc	r3, #4
 800a422:	4418      	add	r0, r3
 800a424:	4443      	add	r3, r8
 800a426:	461e      	mov	r6, r3
 800a428:	4605      	mov	r5, r0
 800a42a:	4575      	cmp	r5, lr
 800a42c:	d30e      	bcc.n	800a44c <__mdiff+0xec>
 800a42e:	f10e 0103 	add.w	r1, lr, #3
 800a432:	1a09      	subs	r1, r1, r0
 800a434:	f021 0103 	bic.w	r1, r1, #3
 800a438:	3803      	subs	r0, #3
 800a43a:	4586      	cmp	lr, r0
 800a43c:	bf38      	it	cc
 800a43e:	2100      	movcc	r1, #0
 800a440:	440b      	add	r3, r1
 800a442:	f853 1d04 	ldr.w	r1, [r3, #-4]!
 800a446:	b189      	cbz	r1, 800a46c <__mdiff+0x10c>
 800a448:	6117      	str	r7, [r2, #16]
 800a44a:	e7a3      	b.n	800a394 <__mdiff+0x34>
 800a44c:	f855 8b04 	ldr.w	r8, [r5], #4
 800a450:	fa1f f188 	uxth.w	r1, r8
 800a454:	4461      	add	r1, ip
 800a456:	140c      	asrs	r4, r1, #16
 800a458:	eb04 4418 	add.w	r4, r4, r8, lsr #16
 800a45c:	b289      	uxth	r1, r1
 800a45e:	ea41 4104 	orr.w	r1, r1, r4, lsl #16
 800a462:	ea4f 4c24 	mov.w	ip, r4, asr #16
 800a466:	f846 1b04 	str.w	r1, [r6], #4
 800a46a:	e7de      	b.n	800a42a <__mdiff+0xca>
 800a46c:	3f01      	subs	r7, #1
 800a46e:	e7e8      	b.n	800a442 <__mdiff+0xe2>
 800a470:	0800c585 	.word	0x0800c585
 800a474:	0800c60e 	.word	0x0800c60e

0800a478 <__d2b>:
 800a478:	b5f7      	push	{r0, r1, r2, r4, r5, r6, r7, lr}
 800a47a:	2101      	movs	r1, #1
 800a47c:	4617      	mov	r7, r2
 800a47e:	461c      	mov	r4, r3
 800a480:	9e08      	ldr	r6, [sp, #32]
 800a482:	f7ff fd25 	bl	8009ed0 <_Balloc>
 800a486:	4605      	mov	r5, r0
 800a488:	b930      	cbnz	r0, 800a498 <__d2b+0x20>
 800a48a:	4602      	mov	r2, r0
 800a48c:	f240 310f 	movw	r1, #783	; 0x30f
 800a490:	4b22      	ldr	r3, [pc, #136]	; (800a51c <__d2b+0xa4>)
 800a492:	4823      	ldr	r0, [pc, #140]	; (800a520 <__d2b+0xa8>)
 800a494:	f000 fb9e 	bl	800abd4 <__assert_func>
 800a498:	f3c4 0313 	ubfx	r3, r4, #0, #20
 800a49c:	f3c4 540a 	ubfx	r4, r4, #20, #11
 800a4a0:	bb24      	cbnz	r4, 800a4ec <__d2b+0x74>
 800a4a2:	2f00      	cmp	r7, #0
 800a4a4:	9301      	str	r3, [sp, #4]
 800a4a6:	d026      	beq.n	800a4f6 <__d2b+0x7e>
 800a4a8:	4668      	mov	r0, sp
 800a4aa:	9700      	str	r7, [sp, #0]
 800a4ac:	f7ff fda4 	bl	8009ff8 <__lo0bits>
 800a4b0:	e9dd 1200 	ldrd	r1, r2, [sp]
 800a4b4:	b1e8      	cbz	r0, 800a4f2 <__d2b+0x7a>
 800a4b6:	f1c0 0320 	rsb	r3, r0, #32
 800a4ba:	fa02 f303 	lsl.w	r3, r2, r3
 800a4be:	430b      	orrs	r3, r1
 800a4c0:	40c2      	lsrs	r2, r0
 800a4c2:	616b      	str	r3, [r5, #20]
 800a4c4:	9201      	str	r2, [sp, #4]
 800a4c6:	9b01      	ldr	r3, [sp, #4]
 800a4c8:	2b00      	cmp	r3, #0
 800a4ca:	bf14      	ite	ne
 800a4cc:	2102      	movne	r1, #2
 800a4ce:	2101      	moveq	r1, #1
 800a4d0:	61ab      	str	r3, [r5, #24]
 800a4d2:	6129      	str	r1, [r5, #16]
 800a4d4:	b1bc      	cbz	r4, 800a506 <__d2b+0x8e>
 800a4d6:	f2a4 4433 	subw	r4, r4, #1075	; 0x433
 800a4da:	4404      	add	r4, r0
 800a4dc:	6034      	str	r4, [r6, #0]
 800a4de:	f1c0 0035 	rsb	r0, r0, #53	; 0x35
 800a4e2:	9b09      	ldr	r3, [sp, #36]	; 0x24
 800a4e4:	6018      	str	r0, [r3, #0]
 800a4e6:	4628      	mov	r0, r5
 800a4e8:	b003      	add	sp, #12
 800a4ea:	bdf0      	pop	{r4, r5, r6, r7, pc}
 800a4ec:	f443 1380 	orr.w	r3, r3, #1048576	; 0x100000
 800a4f0:	e7d7      	b.n	800a4a2 <__d2b+0x2a>
 800a4f2:	6169      	str	r1, [r5, #20]
 800a4f4:	e7e7      	b.n	800a4c6 <__d2b+0x4e>
 800a4f6:	a801      	add	r0, sp, #4
 800a4f8:	f7ff fd7e 	bl	8009ff8 <__lo0bits>
 800a4fc:	9b01      	ldr	r3, [sp, #4]
 800a4fe:	2101      	movs	r1, #1
 800a500:	616b      	str	r3, [r5, #20]
 800a502:	3020      	adds	r0, #32
 800a504:	e7e5      	b.n	800a4d2 <__d2b+0x5a>
 800a506:	f2a0 4032 	subw	r0, r0, #1074	; 0x432
 800a50a:	eb05 0381 	add.w	r3, r5, r1, lsl #2
 800a50e:	6030      	str	r0, [r6, #0]
 800a510:	6918      	ldr	r0, [r3, #16]
 800a512:	f7ff fd51 	bl	8009fb8 <__hi0bits>
 800a516:	ebc0 1041 	rsb	r0, r0, r1, lsl #5
 800a51a:	e7e2      	b.n	800a4e2 <__d2b+0x6a>
 800a51c:	0800c585 	.word	0x0800c585
 800a520:	0800c60e 	.word	0x0800c60e

0800a524 <_fclose_r>:
 800a524:	b570      	push	{r4, r5, r6, lr}
 800a526:	4606      	mov	r6, r0
 800a528:	460c      	mov	r4, r1
 800a52a:	b911      	cbnz	r1, 800a532 <_fclose_r+0xe>
 800a52c:	2500      	movs	r5, #0
 800a52e:	4628      	mov	r0, r5
 800a530:	bd70      	pop	{r4, r5, r6, pc}
 800a532:	b118      	cbz	r0, 800a53c <_fclose_r+0x18>
 800a534:	6b43      	ldr	r3, [r0, #52]	; 0x34
 800a536:	b90b      	cbnz	r3, 800a53c <_fclose_r+0x18>
 800a538:	f7fc ffb4 	bl	80074a4 <__sinit>
 800a53c:	6e63      	ldr	r3, [r4, #100]	; 0x64
 800a53e:	07d8      	lsls	r0, r3, #31
 800a540:	d405      	bmi.n	800a54e <_fclose_r+0x2a>
 800a542:	89a3      	ldrh	r3, [r4, #12]
 800a544:	0599      	lsls	r1, r3, #22
 800a546:	d402      	bmi.n	800a54e <_fclose_r+0x2a>
 800a548:	6da0      	ldr	r0, [r4, #88]	; 0x58
 800a54a:	f7fd fa9f 	bl	8007a8c <__retarget_lock_acquire_recursive>
 800a54e:	f9b4 300c 	ldrsh.w	r3, [r4, #12]
 800a552:	b93b      	cbnz	r3, 800a564 <_fclose_r+0x40>
 800a554:	6e65      	ldr	r5, [r4, #100]	; 0x64
 800a556:	f015 0501 	ands.w	r5, r5, #1
 800a55a:	d1e7      	bne.n	800a52c <_fclose_r+0x8>
 800a55c:	6da0      	ldr	r0, [r4, #88]	; 0x58
 800a55e:	f7fd fa96 	bl	8007a8e <__retarget_lock_release_recursive>
 800a562:	e7e4      	b.n	800a52e <_fclose_r+0xa>
 800a564:	4621      	mov	r1, r4
 800a566:	4630      	mov	r0, r6
 800a568:	f7fc fe60 	bl	800722c <__sflush_r>
 800a56c:	6ae3      	ldr	r3, [r4, #44]	; 0x2c
 800a56e:	4605      	mov	r5, r0
 800a570:	b133      	cbz	r3, 800a580 <_fclose_r+0x5c>
 800a572:	4630      	mov	r0, r6
 800a574:	69e1      	ldr	r1, [r4, #28]
 800a576:	4798      	blx	r3
 800a578:	2800      	cmp	r0, #0
 800a57a:	bfb8      	it	lt
 800a57c:	f04f 35ff 	movlt.w	r5, #4294967295	; 0xffffffff
 800a580:	89a3      	ldrh	r3, [r4, #12]
 800a582:	061a      	lsls	r2, r3, #24
 800a584:	d503      	bpl.n	800a58e <_fclose_r+0x6a>
 800a586:	4630      	mov	r0, r6
 800a588:	6921      	ldr	r1, [r4, #16]
 800a58a:	f7fe f99d 	bl	80088c8 <_free_r>
 800a58e:	6b21      	ldr	r1, [r4, #48]	; 0x30
 800a590:	b141      	cbz	r1, 800a5a4 <_fclose_r+0x80>
 800a592:	f104 0340 	add.w	r3, r4, #64	; 0x40
 800a596:	4299      	cmp	r1, r3
 800a598:	d002      	beq.n	800a5a0 <_fclose_r+0x7c>
 800a59a:	4630      	mov	r0, r6
 800a59c:	f7fe f994 	bl	80088c8 <_free_r>
 800a5a0:	2300      	movs	r3, #0
 800a5a2:	6323      	str	r3, [r4, #48]	; 0x30
 800a5a4:	6c61      	ldr	r1, [r4, #68]	; 0x44
 800a5a6:	b121      	cbz	r1, 800a5b2 <_fclose_r+0x8e>
 800a5a8:	4630      	mov	r0, r6
 800a5aa:	f7fe f98d 	bl	80088c8 <_free_r>
 800a5ae:	2300      	movs	r3, #0
 800a5b0:	6463      	str	r3, [r4, #68]	; 0x44
 800a5b2:	f7fc ff6b 	bl	800748c <__sfp_lock_acquire>
 800a5b6:	2300      	movs	r3, #0
 800a5b8:	81a3      	strh	r3, [r4, #12]
 800a5ba:	6e63      	ldr	r3, [r4, #100]	; 0x64
 800a5bc:	07db      	lsls	r3, r3, #31
 800a5be:	d402      	bmi.n	800a5c6 <_fclose_r+0xa2>
 800a5c0:	6da0      	ldr	r0, [r4, #88]	; 0x58
 800a5c2:	f7fd fa64 	bl	8007a8e <__retarget_lock_release_recursive>
 800a5c6:	6da0      	ldr	r0, [r4, #88]	; 0x58
 800a5c8:	f7fd fa5f 	bl	8007a8a <__retarget_lock_close_recursive>
 800a5cc:	f7fc ff64 	bl	8007498 <__sfp_lock_release>
 800a5d0:	e7ad      	b.n	800a52e <_fclose_r+0xa>
	...

0800a5d4 <_realloc_r>:
 800a5d4:	e92d 4ff7 	stmdb	sp!, {r0, r1, r2, r4, r5, r6, r7, r8, r9, sl, fp, lr}
 800a5d8:	460c      	mov	r4, r1
 800a5da:	4682      	mov	sl, r0
 800a5dc:	4611      	mov	r1, r2
 800a5de:	b924      	cbnz	r4, 800a5ea <_realloc_r+0x16>
 800a5e0:	b003      	add	sp, #12
 800a5e2:	e8bd 4ff0 	ldmia.w	sp!, {r4, r5, r6, r7, r8, r9, sl, fp, lr}
 800a5e6:	f7fa bbb7 	b.w	8004d58 <_malloc_r>
 800a5ea:	9201      	str	r2, [sp, #4]
 800a5ec:	f7fc fd5c 	bl	80070a8 <__malloc_lock>
 800a5f0:	9901      	ldr	r1, [sp, #4]
 800a5f2:	f854 5c04 	ldr.w	r5, [r4, #-4]
 800a5f6:	f101 080b 	add.w	r8, r1, #11
 800a5fa:	f1b8 0f16 	cmp.w	r8, #22
 800a5fe:	d90b      	bls.n	800a618 <_realloc_r+0x44>
 800a600:	f038 0807 	bics.w	r8, r8, #7
 800a604:	d50a      	bpl.n	800a61c <_realloc_r+0x48>
 800a606:	230c      	movs	r3, #12
 800a608:	f04f 0b00 	mov.w	fp, #0
 800a60c:	f8ca 3000 	str.w	r3, [sl]
 800a610:	4658      	mov	r0, fp
 800a612:	b003      	add	sp, #12
 800a614:	e8bd 8ff0 	ldmia.w	sp!, {r4, r5, r6, r7, r8, r9, sl, fp, pc}
 800a618:	f04f 0810 	mov.w	r8, #16
 800a61c:	4588      	cmp	r8, r1
 800a61e:	d3f2      	bcc.n	800a606 <_realloc_r+0x32>
 800a620:	f025 0603 	bic.w	r6, r5, #3
 800a624:	45b0      	cmp	r8, r6
 800a626:	f1a4 0908 	sub.w	r9, r4, #8
 800a62a:	f340 8173 	ble.w	800a914 <_realloc_r+0x340>
 800a62e:	4a9d      	ldr	r2, [pc, #628]	; (800a8a4 <_realloc_r+0x2d0>)
 800a630:	eb09 0306 	add.w	r3, r9, r6
 800a634:	f8d2 c008 	ldr.w	ip, [r2, #8]
 800a638:	685a      	ldr	r2, [r3, #4]
 800a63a:	459c      	cmp	ip, r3
 800a63c:	d005      	beq.n	800a64a <_realloc_r+0x76>
 800a63e:	f022 0001 	bic.w	r0, r2, #1
 800a642:	4418      	add	r0, r3
 800a644:	6840      	ldr	r0, [r0, #4]
 800a646:	07c7      	lsls	r7, r0, #31
 800a648:	d447      	bmi.n	800a6da <_realloc_r+0x106>
 800a64a:	f022 0203 	bic.w	r2, r2, #3
 800a64e:	459c      	cmp	ip, r3
 800a650:	eb06 0702 	add.w	r7, r6, r2
 800a654:	d119      	bne.n	800a68a <_realloc_r+0xb6>
 800a656:	f108 0010 	add.w	r0, r8, #16
 800a65a:	42b8      	cmp	r0, r7
 800a65c:	dc3f      	bgt.n	800a6de <_realloc_r+0x10a>
 800a65e:	4a91      	ldr	r2, [pc, #580]	; (800a8a4 <_realloc_r+0x2d0>)
 800a660:	eba7 0708 	sub.w	r7, r7, r8
 800a664:	eb09 0308 	add.w	r3, r9, r8
 800a668:	f047 0701 	orr.w	r7, r7, #1
 800a66c:	6093      	str	r3, [r2, #8]
 800a66e:	605f      	str	r7, [r3, #4]
 800a670:	f854 3c04 	ldr.w	r3, [r4, #-4]
 800a674:	4650      	mov	r0, sl
 800a676:	f003 0301 	and.w	r3, r3, #1
 800a67a:	ea43 0308 	orr.w	r3, r3, r8
 800a67e:	f844 3c04 	str.w	r3, [r4, #-4]
 800a682:	f7fc fd17 	bl	80070b4 <__malloc_unlock>
 800a686:	46a3      	mov	fp, r4
 800a688:	e7c2      	b.n	800a610 <_realloc_r+0x3c>
 800a68a:	45b8      	cmp	r8, r7
 800a68c:	dc27      	bgt.n	800a6de <_realloc_r+0x10a>
 800a68e:	e9d3 3202 	ldrd	r3, r2, [r3, #8]
 800a692:	60da      	str	r2, [r3, #12]
 800a694:	6093      	str	r3, [r2, #8]
 800a696:	f8d9 3004 	ldr.w	r3, [r9, #4]
 800a69a:	eba7 0008 	sub.w	r0, r7, r8
 800a69e:	280f      	cmp	r0, #15
 800a6a0:	f003 0301 	and.w	r3, r3, #1
 800a6a4:	eb09 0207 	add.w	r2, r9, r7
 800a6a8:	f240 8136 	bls.w	800a918 <_realloc_r+0x344>
 800a6ac:	eb09 0108 	add.w	r1, r9, r8
 800a6b0:	ea48 0303 	orr.w	r3, r8, r3
 800a6b4:	f040 0001 	orr.w	r0, r0, #1
 800a6b8:	f8c9 3004 	str.w	r3, [r9, #4]
 800a6bc:	6048      	str	r0, [r1, #4]
 800a6be:	6853      	ldr	r3, [r2, #4]
 800a6c0:	4650      	mov	r0, sl
 800a6c2:	f043 0301 	orr.w	r3, r3, #1
 800a6c6:	6053      	str	r3, [r2, #4]
 800a6c8:	3108      	adds	r1, #8
 800a6ca:	f7fe f8fd 	bl	80088c8 <_free_r>
 800a6ce:	4650      	mov	r0, sl
 800a6d0:	f7fc fcf0 	bl	80070b4 <__malloc_unlock>
 800a6d4:	f109 0b08 	add.w	fp, r9, #8
 800a6d8:	e79a      	b.n	800a610 <_realloc_r+0x3c>
 800a6da:	2200      	movs	r2, #0
 800a6dc:	4613      	mov	r3, r2
 800a6de:	07e8      	lsls	r0, r5, #31
 800a6e0:	f100 80c9 	bmi.w	800a876 <_realloc_r+0x2a2>
 800a6e4:	f854 5c08 	ldr.w	r5, [r4, #-8]
 800a6e8:	eba9 0505 	sub.w	r5, r9, r5
 800a6ec:	6868      	ldr	r0, [r5, #4]
 800a6ee:	f020 0003 	bic.w	r0, r0, #3
 800a6f2:	eb00 0b06 	add.w	fp, r0, r6
 800a6f6:	2b00      	cmp	r3, #0
 800a6f8:	f000 8088 	beq.w	800a80c <_realloc_r+0x238>
 800a6fc:	459c      	cmp	ip, r3
 800a6fe:	eb02 070b 	add.w	r7, r2, fp
 800a702:	d14a      	bne.n	800a79a <_realloc_r+0x1c6>
 800a704:	f108 0310 	add.w	r3, r8, #16
 800a708:	42bb      	cmp	r3, r7
 800a70a:	dc7f      	bgt.n	800a80c <_realloc_r+0x238>
 800a70c:	46ab      	mov	fp, r5
 800a70e:	68eb      	ldr	r3, [r5, #12]
 800a710:	f85b 2f08 	ldr.w	r2, [fp, #8]!
 800a714:	60d3      	str	r3, [r2, #12]
 800a716:	609a      	str	r2, [r3, #8]
 800a718:	1f32      	subs	r2, r6, #4
 800a71a:	2a24      	cmp	r2, #36	; 0x24
 800a71c:	d838      	bhi.n	800a790 <_realloc_r+0x1bc>
 800a71e:	2a13      	cmp	r2, #19
 800a720:	d934      	bls.n	800a78c <_realloc_r+0x1b8>
 800a722:	6823      	ldr	r3, [r4, #0]
 800a724:	2a1b      	cmp	r2, #27
 800a726:	60ab      	str	r3, [r5, #8]
 800a728:	6863      	ldr	r3, [r4, #4]
 800a72a:	60eb      	str	r3, [r5, #12]
 800a72c:	d81b      	bhi.n	800a766 <_realloc_r+0x192>
 800a72e:	3408      	adds	r4, #8
 800a730:	f105 0310 	add.w	r3, r5, #16
 800a734:	6822      	ldr	r2, [r4, #0]
 800a736:	601a      	str	r2, [r3, #0]
 800a738:	6862      	ldr	r2, [r4, #4]
 800a73a:	605a      	str	r2, [r3, #4]
 800a73c:	68a2      	ldr	r2, [r4, #8]
 800a73e:	609a      	str	r2, [r3, #8]
 800a740:	4a58      	ldr	r2, [pc, #352]	; (800a8a4 <_realloc_r+0x2d0>)
 800a742:	eba7 0708 	sub.w	r7, r7, r8
 800a746:	eb05 0308 	add.w	r3, r5, r8
 800a74a:	f047 0701 	orr.w	r7, r7, #1
 800a74e:	6093      	str	r3, [r2, #8]
 800a750:	605f      	str	r7, [r3, #4]
 800a752:	686b      	ldr	r3, [r5, #4]
 800a754:	f003 0301 	and.w	r3, r3, #1
 800a758:	ea43 0308 	orr.w	r3, r3, r8
 800a75c:	606b      	str	r3, [r5, #4]
 800a75e:	4650      	mov	r0, sl
 800a760:	f7fc fca8 	bl	80070b4 <__malloc_unlock>
 800a764:	e754      	b.n	800a610 <_realloc_r+0x3c>
 800a766:	68a3      	ldr	r3, [r4, #8]
 800a768:	2a24      	cmp	r2, #36	; 0x24
 800a76a:	612b      	str	r3, [r5, #16]
 800a76c:	68e3      	ldr	r3, [r4, #12]
 800a76e:	bf18      	it	ne
 800a770:	3410      	addne	r4, #16
 800a772:	616b      	str	r3, [r5, #20]
 800a774:	bf09      	itett	eq
 800a776:	6923      	ldreq	r3, [r4, #16]
 800a778:	f105 0318 	addne.w	r3, r5, #24
 800a77c:	61ab      	streq	r3, [r5, #24]
 800a77e:	6962      	ldreq	r2, [r4, #20]
 800a780:	bf02      	ittt	eq
 800a782:	f105 0320 	addeq.w	r3, r5, #32
 800a786:	61ea      	streq	r2, [r5, #28]
 800a788:	3418      	addeq	r4, #24
 800a78a:	e7d3      	b.n	800a734 <_realloc_r+0x160>
 800a78c:	465b      	mov	r3, fp
 800a78e:	e7d1      	b.n	800a734 <_realloc_r+0x160>
 800a790:	4621      	mov	r1, r4
 800a792:	4658      	mov	r0, fp
 800a794:	f7fd f902 	bl	800799c <memmove>
 800a798:	e7d2      	b.n	800a740 <_realloc_r+0x16c>
 800a79a:	45b8      	cmp	r8, r7
 800a79c:	dc36      	bgt.n	800a80c <_realloc_r+0x238>
 800a79e:	e9d3 3202 	ldrd	r3, r2, [r3, #8]
 800a7a2:	4628      	mov	r0, r5
 800a7a4:	60da      	str	r2, [r3, #12]
 800a7a6:	6093      	str	r3, [r2, #8]
 800a7a8:	f850 2f08 	ldr.w	r2, [r0, #8]!
 800a7ac:	68eb      	ldr	r3, [r5, #12]
 800a7ae:	60d3      	str	r3, [r2, #12]
 800a7b0:	609a      	str	r2, [r3, #8]
 800a7b2:	1f32      	subs	r2, r6, #4
 800a7b4:	2a24      	cmp	r2, #36	; 0x24
 800a7b6:	d825      	bhi.n	800a804 <_realloc_r+0x230>
 800a7b8:	2a13      	cmp	r2, #19
 800a7ba:	d908      	bls.n	800a7ce <_realloc_r+0x1fa>
 800a7bc:	6823      	ldr	r3, [r4, #0]
 800a7be:	2a1b      	cmp	r2, #27
 800a7c0:	60ab      	str	r3, [r5, #8]
 800a7c2:	6863      	ldr	r3, [r4, #4]
 800a7c4:	60eb      	str	r3, [r5, #12]
 800a7c6:	d80a      	bhi.n	800a7de <_realloc_r+0x20a>
 800a7c8:	3408      	adds	r4, #8
 800a7ca:	f105 0010 	add.w	r0, r5, #16
 800a7ce:	6823      	ldr	r3, [r4, #0]
 800a7d0:	6003      	str	r3, [r0, #0]
 800a7d2:	6863      	ldr	r3, [r4, #4]
 800a7d4:	6043      	str	r3, [r0, #4]
 800a7d6:	68a3      	ldr	r3, [r4, #8]
 800a7d8:	6083      	str	r3, [r0, #8]
 800a7da:	46a9      	mov	r9, r5
 800a7dc:	e75b      	b.n	800a696 <_realloc_r+0xc2>
 800a7de:	68a3      	ldr	r3, [r4, #8]
 800a7e0:	2a24      	cmp	r2, #36	; 0x24
 800a7e2:	612b      	str	r3, [r5, #16]
 800a7e4:	68e3      	ldr	r3, [r4, #12]
 800a7e6:	bf18      	it	ne
 800a7e8:	f105 0018 	addne.w	r0, r5, #24
 800a7ec:	616b      	str	r3, [r5, #20]
 800a7ee:	bf09      	itett	eq
 800a7f0:	6923      	ldreq	r3, [r4, #16]
 800a7f2:	3410      	addne	r4, #16
 800a7f4:	61ab      	streq	r3, [r5, #24]
 800a7f6:	6963      	ldreq	r3, [r4, #20]
 800a7f8:	bf02      	ittt	eq
 800a7fa:	f105 0020 	addeq.w	r0, r5, #32
 800a7fe:	61eb      	streq	r3, [r5, #28]
 800a800:	3418      	addeq	r4, #24
 800a802:	e7e4      	b.n	800a7ce <_realloc_r+0x1fa>
 800a804:	4621      	mov	r1, r4
 800a806:	f7fd f8c9 	bl	800799c <memmove>
 800a80a:	e7e6      	b.n	800a7da <_realloc_r+0x206>
 800a80c:	45d8      	cmp	r8, fp
 800a80e:	dc32      	bgt.n	800a876 <_realloc_r+0x2a2>
 800a810:	4628      	mov	r0, r5
 800a812:	68eb      	ldr	r3, [r5, #12]
 800a814:	f850 2f08 	ldr.w	r2, [r0, #8]!
 800a818:	60d3      	str	r3, [r2, #12]
 800a81a:	609a      	str	r2, [r3, #8]
 800a81c:	1f32      	subs	r2, r6, #4
 800a81e:	2a24      	cmp	r2, #36	; 0x24
 800a820:	d825      	bhi.n	800a86e <_realloc_r+0x29a>
 800a822:	2a13      	cmp	r2, #19
 800a824:	d908      	bls.n	800a838 <_realloc_r+0x264>
 800a826:	6823      	ldr	r3, [r4, #0]
 800a828:	2a1b      	cmp	r2, #27
 800a82a:	60ab      	str	r3, [r5, #8]
 800a82c:	6863      	ldr	r3, [r4, #4]
 800a82e:	60eb      	str	r3, [r5, #12]
 800a830:	d80a      	bhi.n	800a848 <_realloc_r+0x274>
 800a832:	3408      	adds	r4, #8
 800a834:	f105 0010 	add.w	r0, r5, #16
 800a838:	6823      	ldr	r3, [r4, #0]
 800a83a:	6003      	str	r3, [r0, #0]
 800a83c:	6863      	ldr	r3, [r4, #4]
 800a83e:	6043      	str	r3, [r0, #4]
 800a840:	68a3      	ldr	r3, [r4, #8]
 800a842:	6083      	str	r3, [r0, #8]
 800a844:	465f      	mov	r7, fp
 800a846:	e7c8      	b.n	800a7da <_realloc_r+0x206>
 800a848:	68a3      	ldr	r3, [r4, #8]
 800a84a:	2a24      	cmp	r2, #36	; 0x24
 800a84c:	612b      	str	r3, [r5, #16]
 800a84e:	68e3      	ldr	r3, [r4, #12]
 800a850:	bf18      	it	ne
 800a852:	f105 0018 	addne.w	r0, r5, #24
 800a856:	616b      	str	r3, [r5, #20]
 800a858:	bf09      	itett	eq
 800a85a:	6923      	ldreq	r3, [r4, #16]
 800a85c:	3410      	addne	r4, #16
 800a85e:	61ab      	streq	r3, [r5, #24]
 800a860:	6963      	ldreq	r3, [r4, #20]
 800a862:	bf02      	ittt	eq
 800a864:	f105 0020 	addeq.w	r0, r5, #32
 800a868:	61eb      	streq	r3, [r5, #28]
 800a86a:	3418      	addeq	r4, #24
 800a86c:	e7e4      	b.n	800a838 <_realloc_r+0x264>
 800a86e:	4621      	mov	r1, r4
 800a870:	f7fd f894 	bl	800799c <memmove>
 800a874:	e7e6      	b.n	800a844 <_realloc_r+0x270>
 800a876:	4650      	mov	r0, sl
 800a878:	f7fa fa6e 	bl	8004d58 <_malloc_r>
 800a87c:	4683      	mov	fp, r0
 800a87e:	2800      	cmp	r0, #0
 800a880:	f43f af6d 	beq.w	800a75e <_realloc_r+0x18a>
 800a884:	f854 3c04 	ldr.w	r3, [r4, #-4]
 800a888:	f1a0 0208 	sub.w	r2, r0, #8
 800a88c:	f023 0301 	bic.w	r3, r3, #1
 800a890:	444b      	add	r3, r9
 800a892:	4293      	cmp	r3, r2
 800a894:	d108      	bne.n	800a8a8 <_realloc_r+0x2d4>
 800a896:	f850 7c04 	ldr.w	r7, [r0, #-4]
 800a89a:	f027 0703 	bic.w	r7, r7, #3
 800a89e:	4437      	add	r7, r6
 800a8a0:	e6f9      	b.n	800a696 <_realloc_r+0xc2>
 800a8a2:	bf00      	nop
 800a8a4:	20000034 	.word	0x20000034
 800a8a8:	1f32      	subs	r2, r6, #4
 800a8aa:	2a24      	cmp	r2, #36	; 0x24
 800a8ac:	d82e      	bhi.n	800a90c <_realloc_r+0x338>
 800a8ae:	2a13      	cmp	r2, #19
 800a8b0:	d929      	bls.n	800a906 <_realloc_r+0x332>
 800a8b2:	6823      	ldr	r3, [r4, #0]
 800a8b4:	2a1b      	cmp	r2, #27
 800a8b6:	6003      	str	r3, [r0, #0]
 800a8b8:	6863      	ldr	r3, [r4, #4]
 800a8ba:	6043      	str	r3, [r0, #4]
 800a8bc:	d80e      	bhi.n	800a8dc <_realloc_r+0x308>
 800a8be:	f104 0208 	add.w	r2, r4, #8
 800a8c2:	f100 0308 	add.w	r3, r0, #8
 800a8c6:	6811      	ldr	r1, [r2, #0]
 800a8c8:	6019      	str	r1, [r3, #0]
 800a8ca:	6851      	ldr	r1, [r2, #4]
 800a8cc:	6059      	str	r1, [r3, #4]
 800a8ce:	6892      	ldr	r2, [r2, #8]
 800a8d0:	609a      	str	r2, [r3, #8]
 800a8d2:	4621      	mov	r1, r4
 800a8d4:	4650      	mov	r0, sl
 800a8d6:	f7fd fff7 	bl	80088c8 <_free_r>
 800a8da:	e740      	b.n	800a75e <_realloc_r+0x18a>
 800a8dc:	68a3      	ldr	r3, [r4, #8]
 800a8de:	2a24      	cmp	r2, #36	; 0x24
 800a8e0:	6083      	str	r3, [r0, #8]
 800a8e2:	68e3      	ldr	r3, [r4, #12]
 800a8e4:	bf18      	it	ne
 800a8e6:	f104 0210 	addne.w	r2, r4, #16
 800a8ea:	60c3      	str	r3, [r0, #12]
 800a8ec:	bf09      	itett	eq
 800a8ee:	6923      	ldreq	r3, [r4, #16]
 800a8f0:	f100 0310 	addne.w	r3, r0, #16
 800a8f4:	6103      	streq	r3, [r0, #16]
 800a8f6:	6961      	ldreq	r1, [r4, #20]
 800a8f8:	bf02      	ittt	eq
 800a8fa:	f104 0218 	addeq.w	r2, r4, #24
 800a8fe:	f100 0318 	addeq.w	r3, r0, #24
 800a902:	6141      	streq	r1, [r0, #20]
 800a904:	e7df      	b.n	800a8c6 <_realloc_r+0x2f2>
 800a906:	4603      	mov	r3, r0
 800a908:	4622      	mov	r2, r4
 800a90a:	e7dc      	b.n	800a8c6 <_realloc_r+0x2f2>
 800a90c:	4621      	mov	r1, r4
 800a90e:	f7fd f845 	bl	800799c <memmove>
 800a912:	e7de      	b.n	800a8d2 <_realloc_r+0x2fe>
 800a914:	4637      	mov	r7, r6
 800a916:	e6be      	b.n	800a696 <_realloc_r+0xc2>
 800a918:	431f      	orrs	r7, r3
 800a91a:	f8c9 7004 	str.w	r7, [r9, #4]
 800a91e:	6853      	ldr	r3, [r2, #4]
 800a920:	f043 0301 	orr.w	r3, r3, #1
 800a924:	6053      	str	r3, [r2, #4]
 800a926:	e6d2      	b.n	800a6ce <_realloc_r+0xfa>

0800a928 <__sread>:
 800a928:	b510      	push	{r4, lr}
 800a92a:	460c      	mov	r4, r1
 800a92c:	f9b1 100e 	ldrsh.w	r1, [r1, #14]
 800a930:	f000 f8d8 	bl	800aae4 <_read_r>
 800a934:	2800      	cmp	r0, #0
 800a936:	bfab      	itete	ge
 800a938:	6d23      	ldrge	r3, [r4, #80]	; 0x50
 800a93a:	89a3      	ldrhlt	r3, [r4, #12]
 800a93c:	181b      	addge	r3, r3, r0
 800a93e:	f423 5380 	biclt.w	r3, r3, #4096	; 0x1000
 800a942:	bfac      	ite	ge
 800a944:	6523      	strge	r3, [r4, #80]	; 0x50
 800a946:	81a3      	strhlt	r3, [r4, #12]
 800a948:	bd10      	pop	{r4, pc}

0800a94a <__swrite>:
 800a94a:	e92d 41f0 	stmdb	sp!, {r4, r5, r6, r7, r8, lr}
 800a94e:	461f      	mov	r7, r3
 800a950:	898b      	ldrh	r3, [r1, #12]
 800a952:	4605      	mov	r5, r0
 800a954:	05db      	lsls	r3, r3, #23
 800a956:	460c      	mov	r4, r1
 800a958:	4616      	mov	r6, r2
 800a95a:	d505      	bpl.n	800a968 <__swrite+0x1e>
 800a95c:	2302      	movs	r3, #2
 800a95e:	2200      	movs	r2, #0
 800a960:	f9b1 100e 	ldrsh.w	r1, [r1, #14]
 800a964:	f000 f8ac 	bl	800aac0 <_lseek_r>
 800a968:	89a3      	ldrh	r3, [r4, #12]
 800a96a:	4632      	mov	r2, r6
 800a96c:	f423 5380 	bic.w	r3, r3, #4096	; 0x1000
 800a970:	81a3      	strh	r3, [r4, #12]
 800a972:	4628      	mov	r0, r5
 800a974:	463b      	mov	r3, r7
 800a976:	f9b4 100e 	ldrsh.w	r1, [r4, #14]
 800a97a:	e8bd 41f0 	ldmia.w	sp!, {r4, r5, r6, r7, r8, lr}
 800a97e:	f000 b8c3 	b.w	800ab08 <_write_r>

0800a982 <__sseek>:
 800a982:	b510      	push	{r4, lr}
 800a984:	460c      	mov	r4, r1
 800a986:	f9b1 100e 	ldrsh.w	r1, [r1, #14]
 800a98a:	f000 f899 	bl	800aac0 <_lseek_r>
 800a98e:	1c43      	adds	r3, r0, #1
 800a990:	89a3      	ldrh	r3, [r4, #12]
 800a992:	bf15      	itete	ne
 800a994:	6520      	strne	r0, [r4, #80]	; 0x50
 800a996:	f423 5380 	biceq.w	r3, r3, #4096	; 0x1000
 800a99a:	f443 5380 	orrne.w	r3, r3, #4096	; 0x1000
 800a99e:	81a3      	strheq	r3, [r4, #12]
 800a9a0:	bf18      	it	ne
 800a9a2:	81a3      	strhne	r3, [r4, #12]
 800a9a4:	bd10      	pop	{r4, pc}

0800a9a6 <__sclose>:
 800a9a6:	f9b1 100e 	ldrsh.w	r1, [r1, #14]
 800a9aa:	f000 b857 	b.w	800aa5c <_close_r>

0800a9ae <__ascii_wctomb>:
 800a9ae:	4603      	mov	r3, r0
 800a9b0:	4608      	mov	r0, r1
 800a9b2:	b141      	cbz	r1, 800a9c6 <__ascii_wctomb+0x18>
 800a9b4:	2aff      	cmp	r2, #255	; 0xff
 800a9b6:	d904      	bls.n	800a9c2 <__ascii_wctomb+0x14>
 800a9b8:	228a      	movs	r2, #138	; 0x8a
 800a9ba:	f04f 30ff 	mov.w	r0, #4294967295	; 0xffffffff
 800a9be:	601a      	str	r2, [r3, #0]
 800a9c0:	4770      	bx	lr
 800a9c2:	2001      	movs	r0, #1
 800a9c4:	700a      	strb	r2, [r1, #0]
 800a9c6:	4770      	bx	lr

0800a9c8 <__swbuf_r>:
 800a9c8:	b5f8      	push	{r3, r4, r5, r6, r7, lr}
 800a9ca:	460e      	mov	r6, r1
 800a9cc:	4614      	mov	r4, r2
 800a9ce:	4605      	mov	r5, r0
 800a9d0:	b118      	cbz	r0, 800a9da <__swbuf_r+0x12>
 800a9d2:	6b43      	ldr	r3, [r0, #52]	; 0x34
 800a9d4:	b90b      	cbnz	r3, 800a9da <__swbuf_r+0x12>
 800a9d6:	f7fc fd65 	bl	80074a4 <__sinit>
 800a9da:	69a3      	ldr	r3, [r4, #24]
 800a9dc:	60a3      	str	r3, [r4, #8]
 800a9de:	89a3      	ldrh	r3, [r4, #12]
 800a9e0:	0719      	lsls	r1, r3, #28
 800a9e2:	d529      	bpl.n	800aa38 <__swbuf_r+0x70>
 800a9e4:	6923      	ldr	r3, [r4, #16]
 800a9e6:	b33b      	cbz	r3, 800aa38 <__swbuf_r+0x70>
 800a9e8:	f9b4 300c 	ldrsh.w	r3, [r4, #12]
 800a9ec:	b2f6      	uxtb	r6, r6
 800a9ee:	049a      	lsls	r2, r3, #18
 800a9f0:	4637      	mov	r7, r6
 800a9f2:	d52a      	bpl.n	800aa4a <__swbuf_r+0x82>
 800a9f4:	6823      	ldr	r3, [r4, #0]
 800a9f6:	6922      	ldr	r2, [r4, #16]
 800a9f8:	1a98      	subs	r0, r3, r2
 800a9fa:	6963      	ldr	r3, [r4, #20]
 800a9fc:	4283      	cmp	r3, r0
 800a9fe:	dc04      	bgt.n	800aa0a <__swbuf_r+0x42>
 800aa00:	4621      	mov	r1, r4
 800aa02:	4628      	mov	r0, r5
 800aa04:	f7fc fc9c 	bl	8007340 <_fflush_r>
 800aa08:	b9e0      	cbnz	r0, 800aa44 <__swbuf_r+0x7c>
 800aa0a:	68a3      	ldr	r3, [r4, #8]
 800aa0c:	3b01      	subs	r3, #1
 800aa0e:	60a3      	str	r3, [r4, #8]
 800aa10:	6823      	ldr	r3, [r4, #0]
 800aa12:	1c5a      	adds	r2, r3, #1
 800aa14:	6022      	str	r2, [r4, #0]
 800aa16:	701e      	strb	r6, [r3, #0]
 800aa18:	6962      	ldr	r2, [r4, #20]
 800aa1a:	1c43      	adds	r3, r0, #1
 800aa1c:	429a      	cmp	r2, r3
 800aa1e:	d004      	beq.n	800aa2a <__swbuf_r+0x62>
 800aa20:	89a3      	ldrh	r3, [r4, #12]
 800aa22:	07db      	lsls	r3, r3, #31
 800aa24:	d506      	bpl.n	800aa34 <__swbuf_r+0x6c>
 800aa26:	2e0a      	cmp	r6, #10
 800aa28:	d104      	bne.n	800aa34 <__swbuf_r+0x6c>
 800aa2a:	4621      	mov	r1, r4
 800aa2c:	4628      	mov	r0, r5
 800aa2e:	f7fc fc87 	bl	8007340 <_fflush_r>
 800aa32:	b938      	cbnz	r0, 800aa44 <__swbuf_r+0x7c>
 800aa34:	4638      	mov	r0, r7
 800aa36:	bdf8      	pop	{r3, r4, r5, r6, r7, pc}
 800aa38:	4621      	mov	r1, r4
 800aa3a:	4628      	mov	r0, r5
 800aa3c:	f7fc feec 	bl	8007818 <__swsetup_r>
 800aa40:	2800      	cmp	r0, #0
 800aa42:	d0d1      	beq.n	800a9e8 <__swbuf_r+0x20>
 800aa44:	f04f 37ff 	mov.w	r7, #4294967295	; 0xffffffff
 800aa48:	e7f4      	b.n	800aa34 <__swbuf_r+0x6c>
 800aa4a:	f443 5300 	orr.w	r3, r3, #8192	; 0x2000
 800aa4e:	81a3      	strh	r3, [r4, #12]
 800aa50:	6e63      	ldr	r3, [r4, #100]	; 0x64
 800aa52:	f423 5300 	bic.w	r3, r3, #8192	; 0x2000
 800aa56:	6663      	str	r3, [r4, #100]	; 0x64
 800aa58:	e7cc      	b.n	800a9f4 <__swbuf_r+0x2c>
	...

0800aa5c <_close_r>:
 800aa5c:	b538      	push	{r3, r4, r5, lr}
 800aa5e:	2300      	movs	r3, #0
 800aa60:	4d05      	ldr	r5, [pc, #20]	; (800aa78 <_close_r+0x1c>)
 800aa62:	4604      	mov	r4, r0
 800aa64:	4608      	mov	r0, r1
 800aa66:	602b      	str	r3, [r5, #0]
 800aa68:	f7f7 f815 	bl	8001a96 <_close>
 800aa6c:	1c43      	adds	r3, r0, #1
 800aa6e:	d102      	bne.n	800aa76 <_close_r+0x1a>
 800aa70:	682b      	ldr	r3, [r5, #0]
 800aa72:	b103      	cbz	r3, 800aa76 <_close_r+0x1a>
 800aa74:	6023      	str	r3, [r4, #0]
 800aa76:	bd38      	pop	{r3, r4, r5, pc}
 800aa78:	20000f08 	.word	0x20000f08

0800aa7c <_fstat_r>:
 800aa7c:	b538      	push	{r3, r4, r5, lr}
 800aa7e:	2300      	movs	r3, #0
 800aa80:	4d06      	ldr	r5, [pc, #24]	; (800aa9c <_fstat_r+0x20>)
 800aa82:	4604      	mov	r4, r0
 800aa84:	4608      	mov	r0, r1
 800aa86:	4611      	mov	r1, r2
 800aa88:	602b      	str	r3, [r5, #0]
 800aa8a:	f7f7 f807 	bl	8001a9c <_fstat>
 800aa8e:	1c43      	adds	r3, r0, #1
 800aa90:	d102      	bne.n	800aa98 <_fstat_r+0x1c>
 800aa92:	682b      	ldr	r3, [r5, #0]
 800aa94:	b103      	cbz	r3, 800aa98 <_fstat_r+0x1c>
 800aa96:	6023      	str	r3, [r4, #0]
 800aa98:	bd38      	pop	{r3, r4, r5, pc}
 800aa9a:	bf00      	nop
 800aa9c:	20000f08 	.word	0x20000f08

0800aaa0 <_isatty_r>:
 800aaa0:	b538      	push	{r3, r4, r5, lr}
 800aaa2:	2300      	movs	r3, #0
 800aaa4:	4d05      	ldr	r5, [pc, #20]	; (800aabc <_isatty_r+0x1c>)
 800aaa6:	4604      	mov	r4, r0
 800aaa8:	4608      	mov	r0, r1
 800aaaa:	602b      	str	r3, [r5, #0]
 800aaac:	f7f6 fffd 	bl	8001aaa <_isatty>
 800aab0:	1c43      	adds	r3, r0, #1
 800aab2:	d102      	bne.n	800aaba <_isatty_r+0x1a>
 800aab4:	682b      	ldr	r3, [r5, #0]
 800aab6:	b103      	cbz	r3, 800aaba <_isatty_r+0x1a>
 800aab8:	6023      	str	r3, [r4, #0]
 800aaba:	bd38      	pop	{r3, r4, r5, pc}
 800aabc:	20000f08 	.word	0x20000f08

0800aac0 <_lseek_r>:
 800aac0:	b538      	push	{r3, r4, r5, lr}
 800aac2:	4604      	mov	r4, r0
 800aac4:	4608      	mov	r0, r1
 800aac6:	4611      	mov	r1, r2
 800aac8:	2200      	movs	r2, #0
 800aaca:	4d05      	ldr	r5, [pc, #20]	; (800aae0 <_lseek_r+0x20>)
 800aacc:	602a      	str	r2, [r5, #0]
 800aace:	461a      	mov	r2, r3
 800aad0:	f7f6 fffe 	bl	8001ad0 <_lseek>
 800aad4:	1c43      	adds	r3, r0, #1
 800aad6:	d102      	bne.n	800aade <_lseek_r+0x1e>
 800aad8:	682b      	ldr	r3, [r5, #0]
 800aada:	b103      	cbz	r3, 800aade <_lseek_r+0x1e>
 800aadc:	6023      	str	r3, [r4, #0]
 800aade:	bd38      	pop	{r3, r4, r5, pc}
 800aae0:	20000f08 	.word	0x20000f08

0800aae4 <_read_r>:
 800aae4:	b538      	push	{r3, r4, r5, lr}
 800aae6:	4604      	mov	r4, r0
 800aae8:	4608      	mov	r0, r1
 800aaea:	4611      	mov	r1, r2
 800aaec:	2200      	movs	r2, #0
 800aaee:	4d05      	ldr	r5, [pc, #20]	; (800ab04 <_read_r+0x20>)
 800aaf0:	602a      	str	r2, [r5, #0]
 800aaf2:	461a      	mov	r2, r3
 800aaf4:	f7f7 f83c 	bl	8001b70 <_read>
 800aaf8:	1c43      	adds	r3, r0, #1
 800aafa:	d102      	bne.n	800ab02 <_read_r+0x1e>
 800aafc:	682b      	ldr	r3, [r5, #0]
 800aafe:	b103      	cbz	r3, 800ab02 <_read_r+0x1e>
 800ab00:	6023      	str	r3, [r4, #0]
 800ab02:	bd38      	pop	{r3, r4, r5, pc}
 800ab04:	20000f08 	.word	0x20000f08

0800ab08 <_write_r>:
 800ab08:	b538      	push	{r3, r4, r5, lr}
 800ab0a:	4604      	mov	r4, r0
 800ab0c:	4608      	mov	r0, r1
 800ab0e:	4611      	mov	r1, r2
 800ab10:	2200      	movs	r2, #0
 800ab12:	4d05      	ldr	r5, [pc, #20]	; (800ab28 <_write_r+0x20>)
 800ab14:	602a      	str	r2, [r5, #0]
 800ab16:	461a      	mov	r2, r3
 800ab18:	f7f7 f84e 	bl	8001bb8 <_write>
 800ab1c:	1c43      	adds	r3, r0, #1
 800ab1e:	d102      	bne.n	800ab26 <_write_r+0x1e>
 800ab20:	682b      	ldr	r3, [r5, #0]
 800ab22:	b103      	cbz	r3, 800ab26 <_write_r+0x1e>
 800ab24:	6023      	str	r3, [r4, #0]
 800ab26:	bd38      	pop	{r3, r4, r5, pc}
 800ab28:	20000f08 	.word	0x20000f08

0800ab2c <__libc_fini_array>:
 800ab2c:	b538      	push	{r3, r4, r5, lr}
 800ab2e:	4d07      	ldr	r5, [pc, #28]	; (800ab4c <__libc_fini_array+0x20>)
 800ab30:	4c07      	ldr	r4, [pc, #28]	; (800ab50 <__libc_fini_array+0x24>)
 800ab32:	1b64      	subs	r4, r4, r5
 800ab34:	10a4      	asrs	r4, r4, #2
 800ab36:	b91c      	cbnz	r4, 800ab40 <__libc_fini_array+0x14>
 800ab38:	e8bd 4038 	ldmia.w	sp!, {r3, r4, r5, lr}
 800ab3c:	f000 b980 	b.w	800ae40 <_fini>
 800ab40:	3c01      	subs	r4, #1
 800ab42:	f855 3024 	ldr.w	r3, [r5, r4, lsl #2]
 800ab46:	4798      	blx	r3
 800ab48:	e7f5      	b.n	800ab36 <__libc_fini_array+0xa>
 800ab4a:	bf00      	nop
 800ab4c:	0800c7b0 	.word	0x0800c7b0
 800ab50:	0800c7b4 	.word	0x0800c7b4

0800ab54 <__register_exitproc>:
 800ab54:	e92d 47f0 	stmdb	sp!, {r4, r5, r6, r7, r8, r9, sl, lr}
 800ab58:	f8df a06c 	ldr.w	sl, [pc, #108]	; 800abc8 <__register_exitproc+0x74>
 800ab5c:	4606      	mov	r6, r0
 800ab5e:	f8da 0000 	ldr.w	r0, [sl]
 800ab62:	4698      	mov	r8, r3
 800ab64:	460f      	mov	r7, r1
 800ab66:	4691      	mov	r9, r2
 800ab68:	f7fc ff90 	bl	8007a8c <__retarget_lock_acquire_recursive>
 800ab6c:	4b17      	ldr	r3, [pc, #92]	; (800abcc <__register_exitproc+0x78>)
 800ab6e:	681c      	ldr	r4, [r3, #0]
 800ab70:	b90c      	cbnz	r4, 800ab76 <__register_exitproc+0x22>
 800ab72:	4c17      	ldr	r4, [pc, #92]	; (800abd0 <__register_exitproc+0x7c>)
 800ab74:	601c      	str	r4, [r3, #0]
 800ab76:	6865      	ldr	r5, [r4, #4]
 800ab78:	f8da 0000 	ldr.w	r0, [sl]
 800ab7c:	2d1f      	cmp	r5, #31
 800ab7e:	dd05      	ble.n	800ab8c <__register_exitproc+0x38>
 800ab80:	f7fc ff85 	bl	8007a8e <__retarget_lock_release_recursive>
 800ab84:	f04f 30ff 	mov.w	r0, #4294967295	; 0xffffffff
 800ab88:	e8bd 87f0 	ldmia.w	sp!, {r4, r5, r6, r7, r8, r9, sl, pc}
 800ab8c:	b19e      	cbz	r6, 800abb6 <__register_exitproc+0x62>
 800ab8e:	2201      	movs	r2, #1
 800ab90:	eb04 0185 	add.w	r1, r4, r5, lsl #2
 800ab94:	f8c1 9088 	str.w	r9, [r1, #136]	; 0x88
 800ab98:	f8d4 3188 	ldr.w	r3, [r4, #392]	; 0x188
 800ab9c:	40aa      	lsls	r2, r5
 800ab9e:	4313      	orrs	r3, r2
 800aba0:	f8c4 3188 	str.w	r3, [r4, #392]	; 0x188
 800aba4:	2e02      	cmp	r6, #2
 800aba6:	f8c1 8108 	str.w	r8, [r1, #264]	; 0x108
 800abaa:	bf02      	ittt	eq
 800abac:	f8d4 318c 	ldreq.w	r3, [r4, #396]	; 0x18c
 800abb0:	4313      	orreq	r3, r2
 800abb2:	f8c4 318c 	streq.w	r3, [r4, #396]	; 0x18c
 800abb6:	1c6b      	adds	r3, r5, #1
 800abb8:	3502      	adds	r5, #2
 800abba:	6063      	str	r3, [r4, #4]
 800abbc:	f844 7025 	str.w	r7, [r4, r5, lsl #2]
 800abc0:	f7fc ff65 	bl	8007a8e <__retarget_lock_release_recursive>
 800abc4:	2000      	movs	r0, #0
 800abc6:	e7df      	b.n	800ab88 <__register_exitproc+0x34>
 800abc8:	200006e4 	.word	0x200006e4
 800abcc:	20000f04 	.word	0x20000f04
 800abd0:	20000f0c 	.word	0x20000f0c

0800abd4 <__assert_func>:
 800abd4:	b51f      	push	{r0, r1, r2, r3, r4, lr}
 800abd6:	4614      	mov	r4, r2
 800abd8:	461a      	mov	r2, r3
 800abda:	4b09      	ldr	r3, [pc, #36]	; (800ac00 <__assert_func+0x2c>)
 800abdc:	4605      	mov	r5, r0
 800abde:	681b      	ldr	r3, [r3, #0]
 800abe0:	68d8      	ldr	r0, [r3, #12]
 800abe2:	b14c      	cbz	r4, 800abf8 <__assert_func+0x24>
 800abe4:	4b07      	ldr	r3, [pc, #28]	; (800ac04 <__assert_func+0x30>)
 800abe6:	e9cd 3401 	strd	r3, r4, [sp, #4]
 800abea:	9100      	str	r1, [sp, #0]
 800abec:	462b      	mov	r3, r5
 800abee:	4906      	ldr	r1, [pc, #24]	; (800ac08 <__assert_func+0x34>)
 800abf0:	f000 f844 	bl	800ac7c <fiprintf>
 800abf4:	f000 f8d1 	bl	800ad9a <abort>
 800abf8:	4b04      	ldr	r3, [pc, #16]	; (800ac0c <__assert_func+0x38>)
 800abfa:	461c      	mov	r4, r3
 800abfc:	e7f3      	b.n	800abe6 <__assert_func+0x12>
 800abfe:	bf00      	nop
 800ac00:	200006e0 	.word	0x200006e0
 800ac04:	0800c764 	.word	0x0800c764
 800ac08:	0800c771 	.word	0x0800c771
 800ac0c:	0800c79f 	.word	0x0800c79f

0800ac10 <_calloc_r>:
 800ac10:	b538      	push	{r3, r4, r5, lr}
 800ac12:	fba1 1502 	umull	r1, r5, r1, r2
 800ac16:	b92d      	cbnz	r5, 800ac24 <_calloc_r+0x14>
 800ac18:	f7fa f89e 	bl	8004d58 <_malloc_r>
 800ac1c:	4604      	mov	r4, r0
 800ac1e:	b938      	cbnz	r0, 800ac30 <_calloc_r+0x20>
 800ac20:	4620      	mov	r0, r4
 800ac22:	bd38      	pop	{r3, r4, r5, pc}
 800ac24:	f7fc fefa 	bl	8007a1c <__errno>
 800ac28:	230c      	movs	r3, #12
 800ac2a:	2400      	movs	r4, #0
 800ac2c:	6003      	str	r3, [r0, #0]
 800ac2e:	e7f7      	b.n	800ac20 <_calloc_r+0x10>
 800ac30:	f850 2c04 	ldr.w	r2, [r0, #-4]
 800ac34:	f022 0203 	bic.w	r2, r2, #3
 800ac38:	3a04      	subs	r2, #4
 800ac3a:	2a24      	cmp	r2, #36	; 0x24
 800ac3c:	d819      	bhi.n	800ac72 <_calloc_r+0x62>
 800ac3e:	2a13      	cmp	r2, #19
 800ac40:	d915      	bls.n	800ac6e <_calloc_r+0x5e>
 800ac42:	2a1b      	cmp	r2, #27
 800ac44:	e9c0 5500 	strd	r5, r5, [r0]
 800ac48:	d806      	bhi.n	800ac58 <_calloc_r+0x48>
 800ac4a:	f100 0308 	add.w	r3, r0, #8
 800ac4e:	2200      	movs	r2, #0
 800ac50:	e9c3 2200 	strd	r2, r2, [r3]
 800ac54:	609a      	str	r2, [r3, #8]
 800ac56:	e7e3      	b.n	800ac20 <_calloc_r+0x10>
 800ac58:	2a24      	cmp	r2, #36	; 0x24
 800ac5a:	e9c0 5502 	strd	r5, r5, [r0, #8]
 800ac5e:	bf11      	iteee	ne
 800ac60:	f100 0310 	addne.w	r3, r0, #16
 800ac64:	6105      	streq	r5, [r0, #16]
 800ac66:	f100 0318 	addeq.w	r3, r0, #24
 800ac6a:	6145      	streq	r5, [r0, #20]
 800ac6c:	e7ef      	b.n	800ac4e <_calloc_r+0x3e>
 800ac6e:	4603      	mov	r3, r0
 800ac70:	e7ed      	b.n	800ac4e <_calloc_r+0x3e>
 800ac72:	4629      	mov	r1, r5
 800ac74:	f7fc feac 	bl	80079d0 <memset>
 800ac78:	e7d2      	b.n	800ac20 <_calloc_r+0x10>
	...

0800ac7c <fiprintf>:
 800ac7c:	b40e      	push	{r1, r2, r3}
 800ac7e:	b503      	push	{r0, r1, lr}
 800ac80:	4601      	mov	r1, r0
 800ac82:	ab03      	add	r3, sp, #12
 800ac84:	4805      	ldr	r0, [pc, #20]	; (800ac9c <fiprintf+0x20>)
 800ac86:	f853 2b04 	ldr.w	r2, [r3], #4
 800ac8a:	6800      	ldr	r0, [r0, #0]
 800ac8c:	9301      	str	r3, [sp, #4]
 800ac8e:	f7fb fd3d 	bl	800670c <_vfiprintf_r>
 800ac92:	b002      	add	sp, #8
 800ac94:	f85d eb04 	ldr.w	lr, [sp], #4
 800ac98:	b003      	add	sp, #12
 800ac9a:	4770      	bx	lr
 800ac9c:	200006e0 	.word	0x200006e0

0800aca0 <__ssprint_r>:
 800aca0:	e92d 4ff7 	stmdb	sp!, {r0, r1, r2, r4, r5, r6, r7, r8, r9, sl, fp, lr}
 800aca4:	6813      	ldr	r3, [r2, #0]
 800aca6:	4680      	mov	r8, r0
 800aca8:	9301      	str	r3, [sp, #4]
 800acaa:	6893      	ldr	r3, [r2, #8]
 800acac:	460c      	mov	r4, r1
 800acae:	4617      	mov	r7, r2
 800acb0:	2b00      	cmp	r3, #0
 800acb2:	d157      	bne.n	800ad64 <__ssprint_r+0xc4>
 800acb4:	2000      	movs	r0, #0
 800acb6:	2300      	movs	r3, #0
 800acb8:	607b      	str	r3, [r7, #4]
 800acba:	b003      	add	sp, #12
 800acbc:	e8bd 8ff0 	ldmia.w	sp!, {r4, r5, r6, r7, r8, r9, sl, fp, pc}
 800acc0:	9b01      	ldr	r3, [sp, #4]
 800acc2:	e9d3 ab00 	ldrd	sl, fp, [r3]
 800acc6:	3308      	adds	r3, #8
 800acc8:	9301      	str	r3, [sp, #4]
 800acca:	68a6      	ldr	r6, [r4, #8]
 800accc:	6820      	ldr	r0, [r4, #0]
 800acce:	f1bb 0f00 	cmp.w	fp, #0
 800acd2:	d0f5      	beq.n	800acc0 <__ssprint_r+0x20>
 800acd4:	45b3      	cmp	fp, r6
 800acd6:	d32d      	bcc.n	800ad34 <__ssprint_r+0x94>
 800acd8:	89a2      	ldrh	r2, [r4, #12]
 800acda:	f412 6f90 	tst.w	r2, #1152	; 0x480
 800acde:	d029      	beq.n	800ad34 <__ssprint_r+0x94>
 800ace0:	6921      	ldr	r1, [r4, #16]
 800ace2:	6965      	ldr	r5, [r4, #20]
 800ace4:	eba0 0901 	sub.w	r9, r0, r1
 800ace8:	eb05 0545 	add.w	r5, r5, r5, lsl #1
 800acec:	eb05 75d5 	add.w	r5, r5, r5, lsr #31
 800acf0:	f109 0001 	add.w	r0, r9, #1
 800acf4:	106d      	asrs	r5, r5, #1
 800acf6:	4458      	add	r0, fp
 800acf8:	4285      	cmp	r5, r0
 800acfa:	bf38      	it	cc
 800acfc:	4605      	movcc	r5, r0
 800acfe:	0553      	lsls	r3, r2, #21
 800ad00:	d534      	bpl.n	800ad6c <__ssprint_r+0xcc>
 800ad02:	4629      	mov	r1, r5
 800ad04:	4640      	mov	r0, r8
 800ad06:	f7fa f827 	bl	8004d58 <_malloc_r>
 800ad0a:	4606      	mov	r6, r0
 800ad0c:	2800      	cmp	r0, #0
 800ad0e:	d038      	beq.n	800ad82 <__ssprint_r+0xe2>
 800ad10:	464a      	mov	r2, r9
 800ad12:	6921      	ldr	r1, [r4, #16]
 800ad14:	f7fc feca 	bl	8007aac <memcpy>
 800ad18:	89a2      	ldrh	r2, [r4, #12]
 800ad1a:	f422 6290 	bic.w	r2, r2, #1152	; 0x480
 800ad1e:	f042 0280 	orr.w	r2, r2, #128	; 0x80
 800ad22:	81a2      	strh	r2, [r4, #12]
 800ad24:	6126      	str	r6, [r4, #16]
 800ad26:	444e      	add	r6, r9
 800ad28:	6026      	str	r6, [r4, #0]
 800ad2a:	465e      	mov	r6, fp
 800ad2c:	6165      	str	r5, [r4, #20]
 800ad2e:	eba5 0509 	sub.w	r5, r5, r9
 800ad32:	60a5      	str	r5, [r4, #8]
 800ad34:	455e      	cmp	r6, fp
 800ad36:	bf28      	it	cs
 800ad38:	465e      	movcs	r6, fp
 800ad3a:	4651      	mov	r1, sl
 800ad3c:	4632      	mov	r2, r6
 800ad3e:	6820      	ldr	r0, [r4, #0]
 800ad40:	f7fc fe2c 	bl	800799c <memmove>
 800ad44:	68a2      	ldr	r2, [r4, #8]
 800ad46:	44da      	add	sl, fp
 800ad48:	1b92      	subs	r2, r2, r6
 800ad4a:	60a2      	str	r2, [r4, #8]
 800ad4c:	6822      	ldr	r2, [r4, #0]
 800ad4e:	4432      	add	r2, r6
 800ad50:	6022      	str	r2, [r4, #0]
 800ad52:	68ba      	ldr	r2, [r7, #8]
 800ad54:	eba2 030b 	sub.w	r3, r2, fp
 800ad58:	60bb      	str	r3, [r7, #8]
 800ad5a:	2b00      	cmp	r3, #0
 800ad5c:	d0aa      	beq.n	800acb4 <__ssprint_r+0x14>
 800ad5e:	f04f 0b00 	mov.w	fp, #0
 800ad62:	e7b2      	b.n	800acca <__ssprint_r+0x2a>
 800ad64:	f04f 0a00 	mov.w	sl, #0
 800ad68:	46d3      	mov	fp, sl
 800ad6a:	e7ae      	b.n	800acca <__ssprint_r+0x2a>
 800ad6c:	462a      	mov	r2, r5
 800ad6e:	4640      	mov	r0, r8
 800ad70:	f7ff fc30 	bl	800a5d4 <_realloc_r>
 800ad74:	4606      	mov	r6, r0
 800ad76:	2800      	cmp	r0, #0
 800ad78:	d1d4      	bne.n	800ad24 <__ssprint_r+0x84>
 800ad7a:	4640      	mov	r0, r8
 800ad7c:	6921      	ldr	r1, [r4, #16]
 800ad7e:	f7fd fda3 	bl	80088c8 <_free_r>
 800ad82:	230c      	movs	r3, #12
 800ad84:	f8c8 3000 	str.w	r3, [r8]
 800ad88:	89a3      	ldrh	r3, [r4, #12]
 800ad8a:	f04f 30ff 	mov.w	r0, #4294967295	; 0xffffffff
 800ad8e:	f043 0340 	orr.w	r3, r3, #64	; 0x40
 800ad92:	81a3      	strh	r3, [r4, #12]
 800ad94:	2300      	movs	r3, #0
 800ad96:	60bb      	str	r3, [r7, #8]
 800ad98:	e78d      	b.n	800acb6 <__ssprint_r+0x16>

0800ad9a <abort>:
 800ad9a:	2006      	movs	r0, #6
 800ad9c:	b508      	push	{r3, lr}
 800ad9e:	f000 f82d 	bl	800adfc <raise>
 800ada2:	2001      	movs	r0, #1
 800ada4:	f7f6 ff36 	bl	8001c14 <_exit>

0800ada8 <_raise_r>:
 800ada8:	291f      	cmp	r1, #31
 800adaa:	b538      	push	{r3, r4, r5, lr}
 800adac:	4604      	mov	r4, r0
 800adae:	460d      	mov	r5, r1
 800adb0:	d904      	bls.n	800adbc <_raise_r+0x14>
 800adb2:	2316      	movs	r3, #22
 800adb4:	6003      	str	r3, [r0, #0]
 800adb6:	f04f 30ff 	mov.w	r0, #4294967295	; 0xffffffff
 800adba:	bd38      	pop	{r3, r4, r5, pc}
 800adbc:	f8d0 2118 	ldr.w	r2, [r0, #280]	; 0x118
 800adc0:	b112      	cbz	r2, 800adc8 <_raise_r+0x20>
 800adc2:	f852 3021 	ldr.w	r3, [r2, r1, lsl #2]
 800adc6:	b94b      	cbnz	r3, 800addc <_raise_r+0x34>
 800adc8:	4620      	mov	r0, r4
 800adca:	f000 f831 	bl	800ae30 <_getpid_r>
 800adce:	462a      	mov	r2, r5
 800add0:	4601      	mov	r1, r0
 800add2:	4620      	mov	r0, r4
 800add4:	e8bd 4038 	ldmia.w	sp!, {r3, r4, r5, lr}
 800add8:	f000 b818 	b.w	800ae0c <_kill_r>
 800addc:	2b01      	cmp	r3, #1
 800adde:	d00a      	beq.n	800adf6 <_raise_r+0x4e>
 800ade0:	1c59      	adds	r1, r3, #1
 800ade2:	d103      	bne.n	800adec <_raise_r+0x44>
 800ade4:	2316      	movs	r3, #22
 800ade6:	6003      	str	r3, [r0, #0]
 800ade8:	2001      	movs	r0, #1
 800adea:	e7e6      	b.n	800adba <_raise_r+0x12>
 800adec:	2400      	movs	r4, #0
 800adee:	4628      	mov	r0, r5
 800adf0:	f842 4025 	str.w	r4, [r2, r5, lsl #2]
 800adf4:	4798      	blx	r3
 800adf6:	2000      	movs	r0, #0
 800adf8:	e7df      	b.n	800adba <_raise_r+0x12>
	...

0800adfc <raise>:
 800adfc:	4b02      	ldr	r3, [pc, #8]	; (800ae08 <raise+0xc>)
 800adfe:	4601      	mov	r1, r0
 800ae00:	6818      	ldr	r0, [r3, #0]
 800ae02:	f7ff bfd1 	b.w	800ada8 <_raise_r>
 800ae06:	bf00      	nop
 800ae08:	200006e0 	.word	0x200006e0

0800ae0c <_kill_r>:
 800ae0c:	b538      	push	{r3, r4, r5, lr}
 800ae0e:	2300      	movs	r3, #0
 800ae10:	4d06      	ldr	r5, [pc, #24]	; (800ae2c <_kill_r+0x20>)
 800ae12:	4604      	mov	r4, r0
 800ae14:	4608      	mov	r0, r1
 800ae16:	4611      	mov	r1, r2
 800ae18:	602b      	str	r3, [r5, #0]
 800ae1a:	f7f6 fe51 	bl	8001ac0 <_kill>
 800ae1e:	1c43      	adds	r3, r0, #1
 800ae20:	d102      	bne.n	800ae28 <_kill_r+0x1c>
 800ae22:	682b      	ldr	r3, [r5, #0]
 800ae24:	b103      	cbz	r3, 800ae28 <_kill_r+0x1c>
 800ae26:	6023      	str	r3, [r4, #0]
 800ae28:	bd38      	pop	{r3, r4, r5, pc}
 800ae2a:	bf00      	nop
 800ae2c:	20000f08 	.word	0x20000f08

0800ae30 <_getpid_r>:
 800ae30:	f7f6 be39 	b.w	8001aa6 <_getpid>

0800ae34 <_init>:
 800ae34:	b5f8      	push	{r3, r4, r5, r6, r7, lr}
 800ae36:	bf00      	nop
 800ae38:	bcf8      	pop	{r3, r4, r5, r6, r7}
 800ae3a:	bc08      	pop	{r3}
 800ae3c:	469e      	mov	lr, r3
 800ae3e:	4770      	bx	lr

0800ae40 <_fini>:
 800ae40:	b5f8      	push	{r3, r4, r5, r6, r7, lr}
 800ae42:	bf00      	nop
 800ae44:	bcf8      	pop	{r3, r4, r5, r6, r7}
 800ae46:	bc08      	pop	{r3}
 800ae48:	469e      	mov	lr, r3
 800ae4a:	4770      	bx	lr
